
OTH.elf:     file format elf32-littlearm

Sections:
Idx Name          Size      VMA       LMA       File off  Algn
  0 .isr_vector   0000010c  08000000  08000000  00010000  2**0
                  CONTENTS, ALLOC, LOAD, READONLY, DATA
  1 .text         000045e4  08000110  08000110  00010110  2**3
                  CONTENTS, ALLOC, LOAD, READONLY, CODE
  2 .rodata       000000a4  080046f4  080046f4  000146f4  2**0
                  CONTENTS, ALLOC, LOAD, READONLY, DATA
  3 .init_array   00000004  08004798  08004798  00014798  2**2
                  CONTENTS, ALLOC, LOAD, DATA
  4 .fini_array   00000004  0800479c  0800479c  0001479c  2**2
                  CONTENTS, ALLOC, LOAD, DATA
  5 .data         000000b4  20000000  080047a0  00020000  2**2
                  CONTENTS, ALLOC, LOAD, DATA
  6 .bss          00000dc0  200000b4  08004854  000200b4  2**2
                  ALLOC
  7 ._user_heap_stack 00000600  20000e74  08004854  00020e74  2**0
                  ALLOC
  8 .ARM.attributes 00000029  00000000  00000000  000200b4  2**0
                  CONTENTS, READONLY
  9 .debug_info   0001f64c  00000000  00000000  000200dd  2**0
                  CONTENTS, READONLY, DEBUGGING
 10 .debug_abbrev 000037f7  00000000  00000000  0003f729  2**0
                  CONTENTS, READONLY, DEBUGGING
 11 .debug_loc    0000c0e7  00000000  00000000  00042f20  2**0
                  CONTENTS, READONLY, DEBUGGING
 12 .debug_aranges 00000ef0  00000000  00000000  0004f008  2**3
                  CONTENTS, READONLY, DEBUGGING
 13 .debug_ranges 00001650  00000000  00000000  0004fef8  2**3
                  CONTENTS, READONLY, DEBUGGING
 14 .debug_line   00009550  00000000  00000000  00051548  2**0
                  CONTENTS, READONLY, DEBUGGING
 15 .debug_str    0000590a  00000000  00000000  0005aa98  2**0
                  CONTENTS, READONLY, DEBUGGING
 16 .comment      0000007c  00000000  00000000  000603a2  2**0
                  CONTENTS, READONLY
 17 .debug_frame  000032b0  00000000  00000000  00060420  2**2
                  CONTENTS, READONLY, DEBUGGING

Disassembly of section .text:

08000110 <__do_global_dtors_aux>:
 8000110:	b510      	push	{r4, lr}
 8000112:	4c05      	ldr	r4, [pc, #20]	; (8000128 <__do_global_dtors_aux+0x18>)
 8000114:	7823      	ldrb	r3, [r4, #0]
 8000116:	b933      	cbnz	r3, 8000126 <__do_global_dtors_aux+0x16>
 8000118:	4b04      	ldr	r3, [pc, #16]	; (800012c <__do_global_dtors_aux+0x1c>)
 800011a:	b113      	cbz	r3, 8000122 <__do_global_dtors_aux+0x12>
 800011c:	4804      	ldr	r0, [pc, #16]	; (8000130 <__do_global_dtors_aux+0x20>)
 800011e:	f3af 8000 	nop.w
 8000122:	2301      	movs	r3, #1
 8000124:	7023      	strb	r3, [r4, #0]
 8000126:	bd10      	pop	{r4, pc}
 8000128:	200000b4 	.word	0x200000b4
 800012c:	00000000 	.word	0x00000000
 8000130:	080046dc 	.word	0x080046dc

08000134 <frame_dummy>:
 8000134:	b508      	push	{r3, lr}
 8000136:	4b03      	ldr	r3, [pc, #12]	; (8000144 <frame_dummy+0x10>)
 8000138:	b11b      	cbz	r3, 8000142 <frame_dummy+0xe>
 800013a:	4903      	ldr	r1, [pc, #12]	; (8000148 <frame_dummy+0x14>)
 800013c:	4803      	ldr	r0, [pc, #12]	; (800014c <frame_dummy+0x18>)
 800013e:	f3af 8000 	nop.w
 8000142:	bd08      	pop	{r3, pc}
 8000144:	00000000 	.word	0x00000000
 8000148:	200000b8 	.word	0x200000b8
 800014c:	080046dc 	.word	0x080046dc

08000150 <strlen>:
 8000150:	4603      	mov	r3, r0
 8000152:	f813 2b01 	ldrb.w	r2, [r3], #1
 8000156:	2a00      	cmp	r2, #0
 8000158:	d1fb      	bne.n	8000152 <strlen+0x2>
 800015a:	1a18      	subs	r0, r3, r0
 800015c:	3801      	subs	r0, #1
 800015e:	4770      	bx	lr

08000160 <__aeabi_drsub>:
 8000160:	f081 4100 	eor.w	r1, r1, #2147483648	; 0x80000000
 8000164:	e002      	b.n	800016c <__adddf3>
 8000166:	bf00      	nop

08000168 <__aeabi_dsub>:
 8000168:	f083 4300 	eor.w	r3, r3, #2147483648	; 0x80000000

0800016c <__adddf3>:
 800016c:	b530      	push	{r4, r5, lr}
 800016e:	ea4f 0441 	mov.w	r4, r1, lsl #1
 8000172:	ea4f 0543 	mov.w	r5, r3, lsl #1
 8000176:	ea94 0f05 	teq	r4, r5
 800017a:	bf08      	it	eq
 800017c:	ea90 0f02 	teqeq	r0, r2
 8000180:	bf1f      	itttt	ne
 8000182:	ea54 0c00 	orrsne.w	ip, r4, r0
 8000186:	ea55 0c02 	orrsne.w	ip, r5, r2
 800018a:	ea7f 5c64 	mvnsne.w	ip, r4, asr #21
 800018e:	ea7f 5c65 	mvnsne.w	ip, r5, asr #21
 8000192:	f000 80e2 	beq.w	800035a <__adddf3+0x1ee>
 8000196:	ea4f 5454 	mov.w	r4, r4, lsr #21
 800019a:	ebd4 5555 	rsbs	r5, r4, r5, lsr #21
 800019e:	bfb8      	it	lt
 80001a0:	426d      	neglt	r5, r5
 80001a2:	dd0c      	ble.n	80001be <__adddf3+0x52>
 80001a4:	442c      	add	r4, r5
 80001a6:	ea80 0202 	eor.w	r2, r0, r2
 80001aa:	ea81 0303 	eor.w	r3, r1, r3
 80001ae:	ea82 0000 	eor.w	r0, r2, r0
 80001b2:	ea83 0101 	eor.w	r1, r3, r1
 80001b6:	ea80 0202 	eor.w	r2, r0, r2
 80001ba:	ea81 0303 	eor.w	r3, r1, r3
 80001be:	2d36      	cmp	r5, #54	; 0x36
 80001c0:	bf88      	it	hi
 80001c2:	bd30      	pophi	{r4, r5, pc}
 80001c4:	f011 4f00 	tst.w	r1, #2147483648	; 0x80000000
 80001c8:	ea4f 3101 	mov.w	r1, r1, lsl #12
 80001cc:	f44f 1c80 	mov.w	ip, #1048576	; 0x100000
 80001d0:	ea4c 3111 	orr.w	r1, ip, r1, lsr #12
 80001d4:	d002      	beq.n	80001dc <__adddf3+0x70>
 80001d6:	4240      	negs	r0, r0
 80001d8:	eb61 0141 	sbc.w	r1, r1, r1, lsl #1
 80001dc:	f013 4f00 	tst.w	r3, #2147483648	; 0x80000000
 80001e0:	ea4f 3303 	mov.w	r3, r3, lsl #12
 80001e4:	ea4c 3313 	orr.w	r3, ip, r3, lsr #12
 80001e8:	d002      	beq.n	80001f0 <__adddf3+0x84>
 80001ea:	4252      	negs	r2, r2
 80001ec:	eb63 0343 	sbc.w	r3, r3, r3, lsl #1
 80001f0:	ea94 0f05 	teq	r4, r5
 80001f4:	f000 80a7 	beq.w	8000346 <__adddf3+0x1da>
 80001f8:	f1a4 0401 	sub.w	r4, r4, #1
 80001fc:	f1d5 0e20 	rsbs	lr, r5, #32
 8000200:	db0d      	blt.n	800021e <__adddf3+0xb2>
 8000202:	fa02 fc0e 	lsl.w	ip, r2, lr
 8000206:	fa22 f205 	lsr.w	r2, r2, r5
 800020a:	1880      	adds	r0, r0, r2
 800020c:	f141 0100 	adc.w	r1, r1, #0
 8000210:	fa03 f20e 	lsl.w	r2, r3, lr
 8000214:	1880      	adds	r0, r0, r2
 8000216:	fa43 f305 	asr.w	r3, r3, r5
 800021a:	4159      	adcs	r1, r3
 800021c:	e00e      	b.n	800023c <__adddf3+0xd0>
 800021e:	f1a5 0520 	sub.w	r5, r5, #32
 8000222:	f10e 0e20 	add.w	lr, lr, #32
 8000226:	2a01      	cmp	r2, #1
 8000228:	fa03 fc0e 	lsl.w	ip, r3, lr
 800022c:	bf28      	it	cs
 800022e:	f04c 0c02 	orrcs.w	ip, ip, #2
 8000232:	fa43 f305 	asr.w	r3, r3, r5
 8000236:	18c0      	adds	r0, r0, r3
 8000238:	eb51 71e3 	adcs.w	r1, r1, r3, asr #31
 800023c:	f001 4500 	and.w	r5, r1, #2147483648	; 0x80000000
 8000240:	d507      	bpl.n	8000252 <__adddf3+0xe6>
 8000242:	f04f 0e00 	mov.w	lr, #0
 8000246:	f1dc 0c00 	rsbs	ip, ip, #0
 800024a:	eb7e 0000 	sbcs.w	r0, lr, r0
 800024e:	eb6e 0101 	sbc.w	r1, lr, r1
 8000252:	f5b1 1f80 	cmp.w	r1, #1048576	; 0x100000
 8000256:	d31b      	bcc.n	8000290 <__adddf3+0x124>
 8000258:	f5b1 1f00 	cmp.w	r1, #2097152	; 0x200000
 800025c:	d30c      	bcc.n	8000278 <__adddf3+0x10c>
 800025e:	0849      	lsrs	r1, r1, #1
 8000260:	ea5f 0030 	movs.w	r0, r0, rrx
 8000264:	ea4f 0c3c 	mov.w	ip, ip, rrx
 8000268:	f104 0401 	add.w	r4, r4, #1
 800026c:	ea4f 5244 	mov.w	r2, r4, lsl #21
 8000270:	f512 0f80 	cmn.w	r2, #4194304	; 0x400000
 8000274:	f080 809a 	bcs.w	80003ac <__adddf3+0x240>
 8000278:	f1bc 4f00 	cmp.w	ip, #2147483648	; 0x80000000
 800027c:	bf08      	it	eq
 800027e:	ea5f 0c50 	movseq.w	ip, r0, lsr #1
 8000282:	f150 0000 	adcs.w	r0, r0, #0
 8000286:	eb41 5104 	adc.w	r1, r1, r4, lsl #20
 800028a:	ea41 0105 	orr.w	r1, r1, r5
 800028e:	bd30      	pop	{r4, r5, pc}
 8000290:	ea5f 0c4c 	movs.w	ip, ip, lsl #1
 8000294:	4140      	adcs	r0, r0
 8000296:	eb41 0101 	adc.w	r1, r1, r1
 800029a:	f411 1f80 	tst.w	r1, #1048576	; 0x100000
 800029e:	f1a4 0401 	sub.w	r4, r4, #1
 80002a2:	d1e9      	bne.n	8000278 <__adddf3+0x10c>
 80002a4:	f091 0f00 	teq	r1, #0
 80002a8:	bf04      	itt	eq
 80002aa:	4601      	moveq	r1, r0
 80002ac:	2000      	moveq	r0, #0
 80002ae:	fab1 f381 	clz	r3, r1
 80002b2:	bf08      	it	eq
 80002b4:	3320      	addeq	r3, #32
 80002b6:	f1a3 030b 	sub.w	r3, r3, #11
 80002ba:	f1b3 0220 	subs.w	r2, r3, #32
 80002be:	da0c      	bge.n	80002da <__adddf3+0x16e>
 80002c0:	320c      	adds	r2, #12
 80002c2:	dd08      	ble.n	80002d6 <__adddf3+0x16a>
 80002c4:	f102 0c14 	add.w	ip, r2, #20
 80002c8:	f1c2 020c 	rsb	r2, r2, #12
 80002cc:	fa01 f00c 	lsl.w	r0, r1, ip
 80002d0:	fa21 f102 	lsr.w	r1, r1, r2
 80002d4:	e00c      	b.n	80002f0 <__adddf3+0x184>
 80002d6:	f102 0214 	add.w	r2, r2, #20
 80002da:	bfd8      	it	le
 80002dc:	f1c2 0c20 	rsble	ip, r2, #32
 80002e0:	fa01 f102 	lsl.w	r1, r1, r2
 80002e4:	fa20 fc0c 	lsr.w	ip, r0, ip
 80002e8:	bfdc      	itt	le
 80002ea:	ea41 010c 	orrle.w	r1, r1, ip
 80002ee:	4090      	lslle	r0, r2
 80002f0:	1ae4      	subs	r4, r4, r3
 80002f2:	bfa2      	ittt	ge
 80002f4:	eb01 5104 	addge.w	r1, r1, r4, lsl #20
 80002f8:	4329      	orrge	r1, r5
 80002fa:	bd30      	popge	{r4, r5, pc}
 80002fc:	ea6f 0404 	mvn.w	r4, r4
 8000300:	3c1f      	subs	r4, #31
 8000302:	da1c      	bge.n	800033e <__adddf3+0x1d2>
 8000304:	340c      	adds	r4, #12
 8000306:	dc0e      	bgt.n	8000326 <__adddf3+0x1ba>
 8000308:	f104 0414 	add.w	r4, r4, #20
 800030c:	f1c4 0220 	rsb	r2, r4, #32
 8000310:	fa20 f004 	lsr.w	r0, r0, r4
 8000314:	fa01 f302 	lsl.w	r3, r1, r2
 8000318:	ea40 0003 	orr.w	r0, r0, r3
 800031c:	fa21 f304 	lsr.w	r3, r1, r4
 8000320:	ea45 0103 	orr.w	r1, r5, r3
 8000324:	bd30      	pop	{r4, r5, pc}
 8000326:	f1c4 040c 	rsb	r4, r4, #12
 800032a:	f1c4 0220 	rsb	r2, r4, #32
 800032e:	fa20 f002 	lsr.w	r0, r0, r2
 8000332:	fa01 f304 	lsl.w	r3, r1, r4
 8000336:	ea40 0003 	orr.w	r0, r0, r3
 800033a:	4629      	mov	r1, r5
 800033c:	bd30      	pop	{r4, r5, pc}
 800033e:	fa21 f004 	lsr.w	r0, r1, r4
 8000342:	4629      	mov	r1, r5
 8000344:	bd30      	pop	{r4, r5, pc}
 8000346:	f094 0f00 	teq	r4, #0
 800034a:	f483 1380 	eor.w	r3, r3, #1048576	; 0x100000
 800034e:	bf06      	itte	eq
 8000350:	f481 1180 	eoreq.w	r1, r1, #1048576	; 0x100000
 8000354:	3401      	addeq	r4, #1
 8000356:	3d01      	subne	r5, #1
 8000358:	e74e      	b.n	80001f8 <__adddf3+0x8c>
 800035a:	ea7f 5c64 	mvns.w	ip, r4, asr #21
 800035e:	bf18      	it	ne
 8000360:	ea7f 5c65 	mvnsne.w	ip, r5, asr #21
 8000364:	d029      	beq.n	80003ba <__adddf3+0x24e>
 8000366:	ea94 0f05 	teq	r4, r5
 800036a:	bf08      	it	eq
 800036c:	ea90 0f02 	teqeq	r0, r2
 8000370:	d005      	beq.n	800037e <__adddf3+0x212>
 8000372:	ea54 0c00 	orrs.w	ip, r4, r0
 8000376:	bf04      	itt	eq
 8000378:	4619      	moveq	r1, r3
 800037a:	4610      	moveq	r0, r2
 800037c:	bd30      	pop	{r4, r5, pc}
 800037e:	ea91 0f03 	teq	r1, r3
 8000382:	bf1e      	ittt	ne
 8000384:	2100      	movne	r1, #0
 8000386:	2000      	movne	r0, #0
 8000388:	bd30      	popne	{r4, r5, pc}
 800038a:	ea5f 5c54 	movs.w	ip, r4, lsr #21
 800038e:	d105      	bne.n	800039c <__adddf3+0x230>
 8000390:	0040      	lsls	r0, r0, #1
 8000392:	4149      	adcs	r1, r1
 8000394:	bf28      	it	cs
 8000396:	f041 4100 	orrcs.w	r1, r1, #2147483648	; 0x80000000
 800039a:	bd30      	pop	{r4, r5, pc}
 800039c:	f514 0480 	adds.w	r4, r4, #4194304	; 0x400000
 80003a0:	bf3c      	itt	cc
 80003a2:	f501 1180 	addcc.w	r1, r1, #1048576	; 0x100000
 80003a6:	bd30      	popcc	{r4, r5, pc}
 80003a8:	f001 4500 	and.w	r5, r1, #2147483648	; 0x80000000
 80003ac:	f045 41fe 	orr.w	r1, r5, #2130706432	; 0x7f000000
 80003b0:	f441 0170 	orr.w	r1, r1, #15728640	; 0xf00000
 80003b4:	f04f 0000 	mov.w	r0, #0
 80003b8:	bd30      	pop	{r4, r5, pc}
 80003ba:	ea7f 5c64 	mvns.w	ip, r4, asr #21
 80003be:	bf1a      	itte	ne
 80003c0:	4619      	movne	r1, r3
 80003c2:	4610      	movne	r0, r2
 80003c4:	ea7f 5c65 	mvnseq.w	ip, r5, asr #21
 80003c8:	bf1c      	itt	ne
 80003ca:	460b      	movne	r3, r1
 80003cc:	4602      	movne	r2, r0
 80003ce:	ea50 3401 	orrs.w	r4, r0, r1, lsl #12
 80003d2:	bf06      	itte	eq
 80003d4:	ea52 3503 	orrseq.w	r5, r2, r3, lsl #12
 80003d8:	ea91 0f03 	teqeq	r1, r3
 80003dc:	f441 2100 	orrne.w	r1, r1, #524288	; 0x80000
 80003e0:	bd30      	pop	{r4, r5, pc}
 80003e2:	bf00      	nop

080003e4 <__aeabi_ui2d>:
 80003e4:	f090 0f00 	teq	r0, #0
 80003e8:	bf04      	itt	eq
 80003ea:	2100      	moveq	r1, #0
 80003ec:	4770      	bxeq	lr
 80003ee:	b530      	push	{r4, r5, lr}
 80003f0:	f44f 6480 	mov.w	r4, #1024	; 0x400
 80003f4:	f104 0432 	add.w	r4, r4, #50	; 0x32
 80003f8:	f04f 0500 	mov.w	r5, #0
 80003fc:	f04f 0100 	mov.w	r1, #0
 8000400:	e750      	b.n	80002a4 <__adddf3+0x138>
 8000402:	bf00      	nop

08000404 <__aeabi_i2d>:
 8000404:	f090 0f00 	teq	r0, #0
 8000408:	bf04      	itt	eq
 800040a:	2100      	moveq	r1, #0
 800040c:	4770      	bxeq	lr
 800040e:	b530      	push	{r4, r5, lr}
 8000410:	f44f 6480 	mov.w	r4, #1024	; 0x400
 8000414:	f104 0432 	add.w	r4, r4, #50	; 0x32
 8000418:	f010 4500 	ands.w	r5, r0, #2147483648	; 0x80000000
 800041c:	bf48      	it	mi
 800041e:	4240      	negmi	r0, r0
 8000420:	f04f 0100 	mov.w	r1, #0
 8000424:	e73e      	b.n	80002a4 <__adddf3+0x138>
 8000426:	bf00      	nop

08000428 <__aeabi_f2d>:
 8000428:	0042      	lsls	r2, r0, #1
 800042a:	ea4f 01e2 	mov.w	r1, r2, asr #3
 800042e:	ea4f 0131 	mov.w	r1, r1, rrx
 8000432:	ea4f 7002 	mov.w	r0, r2, lsl #28
 8000436:	bf1f      	itttt	ne
 8000438:	f012 437f 	andsne.w	r3, r2, #4278190080	; 0xff000000
 800043c:	f093 4f7f 	teqne	r3, #4278190080	; 0xff000000
 8000440:	f081 5160 	eorne.w	r1, r1, #939524096	; 0x38000000
 8000444:	4770      	bxne	lr
 8000446:	f092 0f00 	teq	r2, #0
 800044a:	bf14      	ite	ne
 800044c:	f093 4f7f 	teqne	r3, #4278190080	; 0xff000000
 8000450:	4770      	bxeq	lr
 8000452:	b530      	push	{r4, r5, lr}
 8000454:	f44f 7460 	mov.w	r4, #896	; 0x380
 8000458:	f001 4500 	and.w	r5, r1, #2147483648	; 0x80000000
 800045c:	f021 4100 	bic.w	r1, r1, #2147483648	; 0x80000000
 8000460:	e720      	b.n	80002a4 <__adddf3+0x138>
 8000462:	bf00      	nop

08000464 <__aeabi_ul2d>:
 8000464:	ea50 0201 	orrs.w	r2, r0, r1
 8000468:	bf08      	it	eq
 800046a:	4770      	bxeq	lr
 800046c:	b530      	push	{r4, r5, lr}
 800046e:	f04f 0500 	mov.w	r5, #0
 8000472:	e00a      	b.n	800048a <__aeabi_l2d+0x16>

08000474 <__aeabi_l2d>:
 8000474:	ea50 0201 	orrs.w	r2, r0, r1
 8000478:	bf08      	it	eq
 800047a:	4770      	bxeq	lr
 800047c:	b530      	push	{r4, r5, lr}
 800047e:	f011 4500 	ands.w	r5, r1, #2147483648	; 0x80000000
 8000482:	d502      	bpl.n	800048a <__aeabi_l2d+0x16>
 8000484:	4240      	negs	r0, r0
 8000486:	eb61 0141 	sbc.w	r1, r1, r1, lsl #1
 800048a:	f44f 6480 	mov.w	r4, #1024	; 0x400
 800048e:	f104 0432 	add.w	r4, r4, #50	; 0x32
 8000492:	ea5f 5c91 	movs.w	ip, r1, lsr #22
 8000496:	f43f aedc 	beq.w	8000252 <__adddf3+0xe6>
 800049a:	f04f 0203 	mov.w	r2, #3
 800049e:	ea5f 0cdc 	movs.w	ip, ip, lsr #3
 80004a2:	bf18      	it	ne
 80004a4:	3203      	addne	r2, #3
 80004a6:	ea5f 0cdc 	movs.w	ip, ip, lsr #3
 80004aa:	bf18      	it	ne
 80004ac:	3203      	addne	r2, #3
 80004ae:	eb02 02dc 	add.w	r2, r2, ip, lsr #3
 80004b2:	f1c2 0320 	rsb	r3, r2, #32
 80004b6:	fa00 fc03 	lsl.w	ip, r0, r3
 80004ba:	fa20 f002 	lsr.w	r0, r0, r2
 80004be:	fa01 fe03 	lsl.w	lr, r1, r3
 80004c2:	ea40 000e 	orr.w	r0, r0, lr
 80004c6:	fa21 f102 	lsr.w	r1, r1, r2
 80004ca:	4414      	add	r4, r2
 80004cc:	e6c1      	b.n	8000252 <__adddf3+0xe6>
 80004ce:	bf00      	nop

080004d0 <__aeabi_dmul>:
 80004d0:	b570      	push	{r4, r5, r6, lr}
 80004d2:	f04f 0cff 	mov.w	ip, #255	; 0xff
 80004d6:	f44c 6ce0 	orr.w	ip, ip, #1792	; 0x700
 80004da:	ea1c 5411 	ands.w	r4, ip, r1, lsr #20
 80004de:	bf1d      	ittte	ne
 80004e0:	ea1c 5513 	andsne.w	r5, ip, r3, lsr #20
 80004e4:	ea94 0f0c 	teqne	r4, ip
 80004e8:	ea95 0f0c 	teqne	r5, ip
 80004ec:	f000 f8de 	bleq	80006ac <__aeabi_dmul+0x1dc>
 80004f0:	442c      	add	r4, r5
 80004f2:	ea81 0603 	eor.w	r6, r1, r3
 80004f6:	ea21 514c 	bic.w	r1, r1, ip, lsl #21
 80004fa:	ea23 534c 	bic.w	r3, r3, ip, lsl #21
 80004fe:	ea50 3501 	orrs.w	r5, r0, r1, lsl #12
 8000502:	bf18      	it	ne
 8000504:	ea52 3503 	orrsne.w	r5, r2, r3, lsl #12
 8000508:	f441 1180 	orr.w	r1, r1, #1048576	; 0x100000
 800050c:	f443 1380 	orr.w	r3, r3, #1048576	; 0x100000
 8000510:	d038      	beq.n	8000584 <__aeabi_dmul+0xb4>
 8000512:	fba0 ce02 	umull	ip, lr, r0, r2
 8000516:	f04f 0500 	mov.w	r5, #0
 800051a:	fbe1 e502 	umlal	lr, r5, r1, r2
 800051e:	f006 4200 	and.w	r2, r6, #2147483648	; 0x80000000
 8000522:	fbe0 e503 	umlal	lr, r5, r0, r3
 8000526:	f04f 0600 	mov.w	r6, #0
 800052a:	fbe1 5603 	umlal	r5, r6, r1, r3
 800052e:	f09c 0f00 	teq	ip, #0
 8000532:	bf18      	it	ne
 8000534:	f04e 0e01 	orrne.w	lr, lr, #1
 8000538:	f1a4 04ff 	sub.w	r4, r4, #255	; 0xff
 800053c:	f5b6 7f00 	cmp.w	r6, #512	; 0x200
 8000540:	f564 7440 	sbc.w	r4, r4, #768	; 0x300
 8000544:	d204      	bcs.n	8000550 <__aeabi_dmul+0x80>
 8000546:	ea5f 0e4e 	movs.w	lr, lr, lsl #1
 800054a:	416d      	adcs	r5, r5
 800054c:	eb46 0606 	adc.w	r6, r6, r6
 8000550:	ea42 21c6 	orr.w	r1, r2, r6, lsl #11
 8000554:	ea41 5155 	orr.w	r1, r1, r5, lsr #21
 8000558:	ea4f 20c5 	mov.w	r0, r5, lsl #11
 800055c:	ea40 505e 	orr.w	r0, r0, lr, lsr #21
 8000560:	ea4f 2ece 	mov.w	lr, lr, lsl #11
 8000564:	f1b4 0cfd 	subs.w	ip, r4, #253	; 0xfd
 8000568:	bf88      	it	hi
 800056a:	f5bc 6fe0 	cmphi.w	ip, #1792	; 0x700
 800056e:	d81e      	bhi.n	80005ae <__aeabi_dmul+0xde>
 8000570:	f1be 4f00 	cmp.w	lr, #2147483648	; 0x80000000
 8000574:	bf08      	it	eq
 8000576:	ea5f 0e50 	movseq.w	lr, r0, lsr #1
 800057a:	f150 0000 	adcs.w	r0, r0, #0
 800057e:	eb41 5104 	adc.w	r1, r1, r4, lsl #20
 8000582:	bd70      	pop	{r4, r5, r6, pc}
 8000584:	f006 4600 	and.w	r6, r6, #2147483648	; 0x80000000
 8000588:	ea46 0101 	orr.w	r1, r6, r1
 800058c:	ea40 0002 	orr.w	r0, r0, r2
 8000590:	ea81 0103 	eor.w	r1, r1, r3
 8000594:	ebb4 045c 	subs.w	r4, r4, ip, lsr #1
 8000598:	bfc2      	ittt	gt
 800059a:	ebd4 050c 	rsbsgt	r5, r4, ip
 800059e:	ea41 5104 	orrgt.w	r1, r1, r4, lsl #20
 80005a2:	bd70      	popgt	{r4, r5, r6, pc}
 80005a4:	f441 1180 	orr.w	r1, r1, #1048576	; 0x100000
 80005a8:	f04f 0e00 	mov.w	lr, #0
 80005ac:	3c01      	subs	r4, #1
 80005ae:	f300 80ab 	bgt.w	8000708 <__aeabi_dmul+0x238>
 80005b2:	f114 0f36 	cmn.w	r4, #54	; 0x36
 80005b6:	bfde      	ittt	le
 80005b8:	2000      	movle	r0, #0
 80005ba:	f001 4100 	andle.w	r1, r1, #2147483648	; 0x80000000
 80005be:	bd70      	pople	{r4, r5, r6, pc}
 80005c0:	f1c4 0400 	rsb	r4, r4, #0
 80005c4:	3c20      	subs	r4, #32
 80005c6:	da35      	bge.n	8000634 <__aeabi_dmul+0x164>
 80005c8:	340c      	adds	r4, #12
 80005ca:	dc1b      	bgt.n	8000604 <__aeabi_dmul+0x134>
 80005cc:	f104 0414 	add.w	r4, r4, #20
 80005d0:	f1c4 0520 	rsb	r5, r4, #32
 80005d4:	fa00 f305 	lsl.w	r3, r0, r5
 80005d8:	fa20 f004 	lsr.w	r0, r0, r4
 80005dc:	fa01 f205 	lsl.w	r2, r1, r5
 80005e0:	ea40 0002 	orr.w	r0, r0, r2
 80005e4:	f001 4200 	and.w	r2, r1, #2147483648	; 0x80000000
 80005e8:	f021 4100 	bic.w	r1, r1, #2147483648	; 0x80000000
 80005ec:	eb10 70d3 	adds.w	r0, r0, r3, lsr #31
 80005f0:	fa21 f604 	lsr.w	r6, r1, r4
 80005f4:	eb42 0106 	adc.w	r1, r2, r6
 80005f8:	ea5e 0e43 	orrs.w	lr, lr, r3, lsl #1
 80005fc:	bf08      	it	eq
 80005fe:	ea20 70d3 	biceq.w	r0, r0, r3, lsr #31
 8000602:	bd70      	pop	{r4, r5, r6, pc}
 8000604:	f1c4 040c 	rsb	r4, r4, #12
 8000608:	f1c4 0520 	rsb	r5, r4, #32
 800060c:	fa00 f304 	lsl.w	r3, r0, r4
 8000610:	fa20 f005 	lsr.w	r0, r0, r5
 8000614:	fa01 f204 	lsl.w	r2, r1, r4
 8000618:	ea40 0002 	orr.w	r0, r0, r2
 800061c:	f001 4100 	and.w	r1, r1, #2147483648	; 0x80000000
 8000620:	eb10 70d3 	adds.w	r0, r0, r3, lsr #31
 8000624:	f141 0100 	adc.w	r1, r1, #0
 8000628:	ea5e 0e43 	orrs.w	lr, lr, r3, lsl #1
 800062c:	bf08      	it	eq
 800062e:	ea20 70d3 	biceq.w	r0, r0, r3, lsr #31
 8000632:	bd70      	pop	{r4, r5, r6, pc}
 8000634:	f1c4 0520 	rsb	r5, r4, #32
 8000638:	fa00 f205 	lsl.w	r2, r0, r5
 800063c:	ea4e 0e02 	orr.w	lr, lr, r2
 8000640:	fa20 f304 	lsr.w	r3, r0, r4
 8000644:	fa01 f205 	lsl.w	r2, r1, r5
 8000648:	ea43 0302 	orr.w	r3, r3, r2
 800064c:	fa21 f004 	lsr.w	r0, r1, r4
 8000650:	f001 4100 	and.w	r1, r1, #2147483648	; 0x80000000
 8000654:	fa21 f204 	lsr.w	r2, r1, r4
 8000658:	ea20 0002 	bic.w	r0, r0, r2
 800065c:	eb00 70d3 	add.w	r0, r0, r3, lsr #31
 8000660:	ea5e 0e43 	orrs.w	lr, lr, r3, lsl #1
 8000664:	bf08      	it	eq
 8000666:	ea20 70d3 	biceq.w	r0, r0, r3, lsr #31
 800066a:	bd70      	pop	{r4, r5, r6, pc}
 800066c:	f094 0f00 	teq	r4, #0
 8000670:	d10f      	bne.n	8000692 <__aeabi_dmul+0x1c2>
 8000672:	f001 4600 	and.w	r6, r1, #2147483648	; 0x80000000
 8000676:	0040      	lsls	r0, r0, #1
 8000678:	eb41 0101 	adc.w	r1, r1, r1
 800067c:	f411 1f80 	tst.w	r1, #1048576	; 0x100000
 8000680:	bf08      	it	eq
 8000682:	3c01      	subeq	r4, #1
 8000684:	d0f7      	beq.n	8000676 <__aeabi_dmul+0x1a6>
 8000686:	ea41 0106 	orr.w	r1, r1, r6
 800068a:	f095 0f00 	teq	r5, #0
 800068e:	bf18      	it	ne
 8000690:	4770      	bxne	lr
 8000692:	f003 4600 	and.w	r6, r3, #2147483648	; 0x80000000
 8000696:	0052      	lsls	r2, r2, #1
 8000698:	eb43 0303 	adc.w	r3, r3, r3
 800069c:	f413 1f80 	tst.w	r3, #1048576	; 0x100000
 80006a0:	bf08      	it	eq
 80006a2:	3d01      	subeq	r5, #1
 80006a4:	d0f7      	beq.n	8000696 <__aeabi_dmul+0x1c6>
 80006a6:	ea43 0306 	orr.w	r3, r3, r6
 80006aa:	4770      	bx	lr
 80006ac:	ea94 0f0c 	teq	r4, ip
 80006b0:	ea0c 5513 	and.w	r5, ip, r3, lsr #20
 80006b4:	bf18      	it	ne
 80006b6:	ea95 0f0c 	teqne	r5, ip
 80006ba:	d00c      	beq.n	80006d6 <__aeabi_dmul+0x206>
 80006bc:	ea50 0641 	orrs.w	r6, r0, r1, lsl #1
 80006c0:	bf18      	it	ne
 80006c2:	ea52 0643 	orrsne.w	r6, r2, r3, lsl #1
 80006c6:	d1d1      	bne.n	800066c <__aeabi_dmul+0x19c>
 80006c8:	ea81 0103 	eor.w	r1, r1, r3
 80006cc:	f001 4100 	and.w	r1, r1, #2147483648	; 0x80000000
 80006d0:	f04f 0000 	mov.w	r0, #0
 80006d4:	bd70      	pop	{r4, r5, r6, pc}
 80006d6:	ea50 0641 	orrs.w	r6, r0, r1, lsl #1
 80006da:	bf06      	itte	eq
 80006dc:	4610      	moveq	r0, r2
 80006de:	4619      	moveq	r1, r3
 80006e0:	ea52 0643 	orrsne.w	r6, r2, r3, lsl #1
 80006e4:	d019      	beq.n	800071a <__aeabi_dmul+0x24a>
 80006e6:	ea94 0f0c 	teq	r4, ip
 80006ea:	d102      	bne.n	80006f2 <__aeabi_dmul+0x222>
 80006ec:	ea50 3601 	orrs.w	r6, r0, r1, lsl #12
 80006f0:	d113      	bne.n	800071a <__aeabi_dmul+0x24a>
 80006f2:	ea95 0f0c 	teq	r5, ip
 80006f6:	d105      	bne.n	8000704 <__aeabi_dmul+0x234>
 80006f8:	ea52 3603 	orrs.w	r6, r2, r3, lsl #12
 80006fc:	bf1c      	itt	ne
 80006fe:	4610      	movne	r0, r2
 8000700:	4619      	movne	r1, r3
 8000702:	d10a      	bne.n	800071a <__aeabi_dmul+0x24a>
 8000704:	ea81 0103 	eor.w	r1, r1, r3
 8000708:	f001 4100 	and.w	r1, r1, #2147483648	; 0x80000000
 800070c:	f041 41fe 	orr.w	r1, r1, #2130706432	; 0x7f000000
 8000710:	f441 0170 	orr.w	r1, r1, #15728640	; 0xf00000
 8000714:	f04f 0000 	mov.w	r0, #0
 8000718:	bd70      	pop	{r4, r5, r6, pc}
 800071a:	f041 41fe 	orr.w	r1, r1, #2130706432	; 0x7f000000
 800071e:	f441 0178 	orr.w	r1, r1, #16252928	; 0xf80000
 8000722:	bd70      	pop	{r4, r5, r6, pc}

08000724 <__aeabi_ddiv>:
 8000724:	b570      	push	{r4, r5, r6, lr}
 8000726:	f04f 0cff 	mov.w	ip, #255	; 0xff
 800072a:	f44c 6ce0 	orr.w	ip, ip, #1792	; 0x700
 800072e:	ea1c 5411 	ands.w	r4, ip, r1, lsr #20
 8000732:	bf1d      	ittte	ne
 8000734:	ea1c 5513 	andsne.w	r5, ip, r3, lsr #20
 8000738:	ea94 0f0c 	teqne	r4, ip
 800073c:	ea95 0f0c 	teqne	r5, ip
 8000740:	f000 f8a7 	bleq	8000892 <__aeabi_ddiv+0x16e>
 8000744:	eba4 0405 	sub.w	r4, r4, r5
 8000748:	ea81 0e03 	eor.w	lr, r1, r3
 800074c:	ea52 3503 	orrs.w	r5, r2, r3, lsl #12
 8000750:	ea4f 3101 	mov.w	r1, r1, lsl #12
 8000754:	f000 8088 	beq.w	8000868 <__aeabi_ddiv+0x144>
 8000758:	ea4f 3303 	mov.w	r3, r3, lsl #12
 800075c:	f04f 5580 	mov.w	r5, #268435456	; 0x10000000
 8000760:	ea45 1313 	orr.w	r3, r5, r3, lsr #4
 8000764:	ea43 6312 	orr.w	r3, r3, r2, lsr #24
 8000768:	ea4f 2202 	mov.w	r2, r2, lsl #8
 800076c:	ea45 1511 	orr.w	r5, r5, r1, lsr #4
 8000770:	ea45 6510 	orr.w	r5, r5, r0, lsr #24
 8000774:	ea4f 2600 	mov.w	r6, r0, lsl #8
 8000778:	f00e 4100 	and.w	r1, lr, #2147483648	; 0x80000000
 800077c:	429d      	cmp	r5, r3
 800077e:	bf08      	it	eq
 8000780:	4296      	cmpeq	r6, r2
 8000782:	f144 04fd 	adc.w	r4, r4, #253	; 0xfd
 8000786:	f504 7440 	add.w	r4, r4, #768	; 0x300
 800078a:	d202      	bcs.n	8000792 <__aeabi_ddiv+0x6e>
 800078c:	085b      	lsrs	r3, r3, #1
 800078e:	ea4f 0232 	mov.w	r2, r2, rrx
 8000792:	1ab6      	subs	r6, r6, r2
 8000794:	eb65 0503 	sbc.w	r5, r5, r3
 8000798:	085b      	lsrs	r3, r3, #1
 800079a:	ea4f 0232 	mov.w	r2, r2, rrx
 800079e:	f44f 1080 	mov.w	r0, #1048576	; 0x100000
 80007a2:	f44f 2c00 	mov.w	ip, #524288	; 0x80000
 80007a6:	ebb6 0e02 	subs.w	lr, r6, r2
 80007aa:	eb75 0e03 	sbcs.w	lr, r5, r3
 80007ae:	bf22      	ittt	cs
 80007b0:	1ab6      	subcs	r6, r6, r2
 80007b2:	4675      	movcs	r5, lr
 80007b4:	ea40 000c 	orrcs.w	r0, r0, ip
 80007b8:	085b      	lsrs	r3, r3, #1
 80007ba:	ea4f 0232 	mov.w	r2, r2, rrx
 80007be:	ebb6 0e02 	subs.w	lr, r6, r2
 80007c2:	eb75 0e03 	sbcs.w	lr, r5, r3
 80007c6:	bf22      	ittt	cs
 80007c8:	1ab6      	subcs	r6, r6, r2
 80007ca:	4675      	movcs	r5, lr
 80007cc:	ea40 005c 	orrcs.w	r0, r0, ip, lsr #1
 80007d0:	085b      	lsrs	r3, r3, #1
 80007d2:	ea4f 0232 	mov.w	r2, r2, rrx
 80007d6:	ebb6 0e02 	subs.w	lr, r6, r2
 80007da:	eb75 0e03 	sbcs.w	lr, r5, r3
 80007de:	bf22      	ittt	cs
 80007e0:	1ab6      	subcs	r6, r6, r2
 80007e2:	4675      	movcs	r5, lr
 80007e4:	ea40 009c 	orrcs.w	r0, r0, ip, lsr #2
 80007e8:	085b      	lsrs	r3, r3, #1
 80007ea:	ea4f 0232 	mov.w	r2, r2, rrx
 80007ee:	ebb6 0e02 	subs.w	lr, r6, r2
 80007f2:	eb75 0e03 	sbcs.w	lr, r5, r3
 80007f6:	bf22      	ittt	cs
 80007f8:	1ab6      	subcs	r6, r6, r2
 80007fa:	4675      	movcs	r5, lr
 80007fc:	ea40 00dc 	orrcs.w	r0, r0, ip, lsr #3
 8000800:	ea55 0e06 	orrs.w	lr, r5, r6
 8000804:	d018      	beq.n	8000838 <__aeabi_ddiv+0x114>
 8000806:	ea4f 1505 	mov.w	r5, r5, lsl #4
 800080a:	ea45 7516 	orr.w	r5, r5, r6, lsr #28
 800080e:	ea4f 1606 	mov.w	r6, r6, lsl #4
 8000812:	ea4f 03c3 	mov.w	r3, r3, lsl #3
 8000816:	ea43 7352 	orr.w	r3, r3, r2, lsr #29
 800081a:	ea4f 02c2 	mov.w	r2, r2, lsl #3
 800081e:	ea5f 1c1c 	movs.w	ip, ip, lsr #4
 8000822:	d1c0      	bne.n	80007a6 <__aeabi_ddiv+0x82>
 8000824:	f411 1f80 	tst.w	r1, #1048576	; 0x100000
 8000828:	d10b      	bne.n	8000842 <__aeabi_ddiv+0x11e>
 800082a:	ea41 0100 	orr.w	r1, r1, r0
 800082e:	f04f 0000 	mov.w	r0, #0
 8000832:	f04f 4c00 	mov.w	ip, #2147483648	; 0x80000000
 8000836:	e7b6      	b.n	80007a6 <__aeabi_ddiv+0x82>
 8000838:	f411 1f80 	tst.w	r1, #1048576	; 0x100000
 800083c:	bf04      	itt	eq
 800083e:	4301      	orreq	r1, r0
 8000840:	2000      	moveq	r0, #0
 8000842:	f1b4 0cfd 	subs.w	ip, r4, #253	; 0xfd
 8000846:	bf88      	it	hi
 8000848:	f5bc 6fe0 	cmphi.w	ip, #1792	; 0x700
 800084c:	f63f aeaf 	bhi.w	80005ae <__aeabi_dmul+0xde>
 8000850:	ebb5 0c03 	subs.w	ip, r5, r3
 8000854:	bf04      	itt	eq
 8000856:	ebb6 0c02 	subseq.w	ip, r6, r2
 800085a:	ea5f 0c50 	movseq.w	ip, r0, lsr #1
 800085e:	f150 0000 	adcs.w	r0, r0, #0
 8000862:	eb41 5104 	adc.w	r1, r1, r4, lsl #20
 8000866:	bd70      	pop	{r4, r5, r6, pc}
 8000868:	f00e 4e00 	and.w	lr, lr, #2147483648	; 0x80000000
 800086c:	ea4e 3111 	orr.w	r1, lr, r1, lsr #12
 8000870:	eb14 045c 	adds.w	r4, r4, ip, lsr #1
 8000874:	bfc2      	ittt	gt
 8000876:	ebd4 050c 	rsbsgt	r5, r4, ip
 800087a:	ea41 5104 	orrgt.w	r1, r1, r4, lsl #20
 800087e:	bd70      	popgt	{r4, r5, r6, pc}
 8000880:	f441 1180 	orr.w	r1, r1, #1048576	; 0x100000
 8000884:	f04f 0e00 	mov.w	lr, #0
 8000888:	3c01      	subs	r4, #1
 800088a:	e690      	b.n	80005ae <__aeabi_dmul+0xde>
 800088c:	ea45 0e06 	orr.w	lr, r5, r6
 8000890:	e68d      	b.n	80005ae <__aeabi_dmul+0xde>
 8000892:	ea0c 5513 	and.w	r5, ip, r3, lsr #20
 8000896:	ea94 0f0c 	teq	r4, ip
 800089a:	bf08      	it	eq
 800089c:	ea95 0f0c 	teqeq	r5, ip
 80008a0:	f43f af3b 	beq.w	800071a <__aeabi_dmul+0x24a>
 80008a4:	ea94 0f0c 	teq	r4, ip
 80008a8:	d10a      	bne.n	80008c0 <__aeabi_ddiv+0x19c>
 80008aa:	ea50 3401 	orrs.w	r4, r0, r1, lsl #12
 80008ae:	f47f af34 	bne.w	800071a <__aeabi_dmul+0x24a>
 80008b2:	ea95 0f0c 	teq	r5, ip
 80008b6:	f47f af25 	bne.w	8000704 <__aeabi_dmul+0x234>
 80008ba:	4610      	mov	r0, r2
 80008bc:	4619      	mov	r1, r3
 80008be:	e72c      	b.n	800071a <__aeabi_dmul+0x24a>
 80008c0:	ea95 0f0c 	teq	r5, ip
 80008c4:	d106      	bne.n	80008d4 <__aeabi_ddiv+0x1b0>
 80008c6:	ea52 3503 	orrs.w	r5, r2, r3, lsl #12
 80008ca:	f43f aefd 	beq.w	80006c8 <__aeabi_dmul+0x1f8>
 80008ce:	4610      	mov	r0, r2
 80008d0:	4619      	mov	r1, r3
 80008d2:	e722      	b.n	800071a <__aeabi_dmul+0x24a>
 80008d4:	ea50 0641 	orrs.w	r6, r0, r1, lsl #1
 80008d8:	bf18      	it	ne
 80008da:	ea52 0643 	orrsne.w	r6, r2, r3, lsl #1
 80008de:	f47f aec5 	bne.w	800066c <__aeabi_dmul+0x19c>
 80008e2:	ea50 0441 	orrs.w	r4, r0, r1, lsl #1
 80008e6:	f47f af0d 	bne.w	8000704 <__aeabi_dmul+0x234>
 80008ea:	ea52 0543 	orrs.w	r5, r2, r3, lsl #1
 80008ee:	f47f aeeb 	bne.w	80006c8 <__aeabi_dmul+0x1f8>
 80008f2:	e712      	b.n	800071a <__aeabi_dmul+0x24a>

080008f4 <__aeabi_d2iz>:
 80008f4:	ea4f 0241 	mov.w	r2, r1, lsl #1
 80008f8:	f512 1200 	adds.w	r2, r2, #2097152	; 0x200000
 80008fc:	d215      	bcs.n	800092a <__aeabi_d2iz+0x36>
 80008fe:	d511      	bpl.n	8000924 <__aeabi_d2iz+0x30>
 8000900:	f46f 7378 	mvn.w	r3, #992	; 0x3e0
 8000904:	ebb3 5262 	subs.w	r2, r3, r2, asr #21
 8000908:	d912      	bls.n	8000930 <__aeabi_d2iz+0x3c>
 800090a:	ea4f 23c1 	mov.w	r3, r1, lsl #11
 800090e:	f043 4300 	orr.w	r3, r3, #2147483648	; 0x80000000
 8000912:	ea43 5350 	orr.w	r3, r3, r0, lsr #21
 8000916:	f011 4f00 	tst.w	r1, #2147483648	; 0x80000000
 800091a:	fa23 f002 	lsr.w	r0, r3, r2
 800091e:	bf18      	it	ne
 8000920:	4240      	negne	r0, r0
 8000922:	4770      	bx	lr
 8000924:	f04f 0000 	mov.w	r0, #0
 8000928:	4770      	bx	lr
 800092a:	ea50 3001 	orrs.w	r0, r0, r1, lsl #12
 800092e:	d105      	bne.n	800093c <__aeabi_d2iz+0x48>
 8000930:	f011 4000 	ands.w	r0, r1, #2147483648	; 0x80000000
 8000934:	bf08      	it	eq
 8000936:	f06f 4000 	mvneq.w	r0, #2147483648	; 0x80000000
 800093a:	4770      	bx	lr
 800093c:	f04f 0000 	mov.w	r0, #0
 8000940:	4770      	bx	lr
 8000942:	bf00      	nop

08000944 <__aeabi_d2f>:
 8000944:	ea4f 0241 	mov.w	r2, r1, lsl #1
 8000948:	f1b2 43e0 	subs.w	r3, r2, #1879048192	; 0x70000000
 800094c:	bf24      	itt	cs
 800094e:	f5b3 1c00 	subscs.w	ip, r3, #2097152	; 0x200000
 8000952:	f1dc 5cfe 	rsbscs	ip, ip, #532676608	; 0x1fc00000
 8000956:	d90d      	bls.n	8000974 <__aeabi_d2f+0x30>
 8000958:	f001 4c00 	and.w	ip, r1, #2147483648	; 0x80000000
 800095c:	ea4f 02c0 	mov.w	r2, r0, lsl #3
 8000960:	ea4c 7050 	orr.w	r0, ip, r0, lsr #29
 8000964:	f1b2 4f00 	cmp.w	r2, #2147483648	; 0x80000000
 8000968:	eb40 0083 	adc.w	r0, r0, r3, lsl #2
 800096c:	bf08      	it	eq
 800096e:	f020 0001 	biceq.w	r0, r0, #1
 8000972:	4770      	bx	lr
 8000974:	f011 4f80 	tst.w	r1, #1073741824	; 0x40000000
 8000978:	d121      	bne.n	80009be <__aeabi_d2f+0x7a>
 800097a:	f113 7238 	adds.w	r2, r3, #48234496	; 0x2e00000
 800097e:	bfbc      	itt	lt
 8000980:	f001 4000 	andlt.w	r0, r1, #2147483648	; 0x80000000
 8000984:	4770      	bxlt	lr
 8000986:	f441 1180 	orr.w	r1, r1, #1048576	; 0x100000
 800098a:	ea4f 5252 	mov.w	r2, r2, lsr #21
 800098e:	f1c2 0218 	rsb	r2, r2, #24
 8000992:	f1c2 0c20 	rsb	ip, r2, #32
 8000996:	fa10 f30c 	lsls.w	r3, r0, ip
 800099a:	fa20 f002 	lsr.w	r0, r0, r2
 800099e:	bf18      	it	ne
 80009a0:	f040 0001 	orrne.w	r0, r0, #1
 80009a4:	ea4f 23c1 	mov.w	r3, r1, lsl #11
 80009a8:	ea4f 23d3 	mov.w	r3, r3, lsr #11
 80009ac:	fa03 fc0c 	lsl.w	ip, r3, ip
 80009b0:	ea40 000c 	orr.w	r0, r0, ip
 80009b4:	fa23 f302 	lsr.w	r3, r3, r2
 80009b8:	ea4f 0343 	mov.w	r3, r3, lsl #1
 80009bc:	e7cc      	b.n	8000958 <__aeabi_d2f+0x14>
 80009be:	ea7f 5362 	mvns.w	r3, r2, asr #21
 80009c2:	d107      	bne.n	80009d4 <__aeabi_d2f+0x90>
 80009c4:	ea50 3301 	orrs.w	r3, r0, r1, lsl #12
 80009c8:	bf1e      	ittt	ne
 80009ca:	f04f 40fe 	movne.w	r0, #2130706432	; 0x7f000000
 80009ce:	f440 0040 	orrne.w	r0, r0, #12582912	; 0xc00000
 80009d2:	4770      	bxne	lr
 80009d4:	f001 4000 	and.w	r0, r1, #2147483648	; 0x80000000
 80009d8:	f040 40fe 	orr.w	r0, r0, #2130706432	; 0x7f000000
 80009dc:	f440 0000 	orr.w	r0, r0, #8388608	; 0x800000
 80009e0:	4770      	bx	lr
 80009e2:	bf00      	nop

080009e4 <__aeabi_frsub>:
 80009e4:	f080 4000 	eor.w	r0, r0, #2147483648	; 0x80000000
 80009e8:	e002      	b.n	80009f0 <__addsf3>
 80009ea:	bf00      	nop

080009ec <__aeabi_fsub>:
 80009ec:	f081 4100 	eor.w	r1, r1, #2147483648	; 0x80000000

080009f0 <__addsf3>:
 80009f0:	0042      	lsls	r2, r0, #1
 80009f2:	bf1f      	itttt	ne
 80009f4:	ea5f 0341 	movsne.w	r3, r1, lsl #1
 80009f8:	ea92 0f03 	teqne	r2, r3
 80009fc:	ea7f 6c22 	mvnsne.w	ip, r2, asr #24
 8000a00:	ea7f 6c23 	mvnsne.w	ip, r3, asr #24
 8000a04:	d06a      	beq.n	8000adc <__addsf3+0xec>
 8000a06:	ea4f 6212 	mov.w	r2, r2, lsr #24
 8000a0a:	ebd2 6313 	rsbs	r3, r2, r3, lsr #24
 8000a0e:	bfc1      	itttt	gt
 8000a10:	18d2      	addgt	r2, r2, r3
 8000a12:	4041      	eorgt	r1, r0
 8000a14:	4048      	eorgt	r0, r1
 8000a16:	4041      	eorgt	r1, r0
 8000a18:	bfb8      	it	lt
 8000a1a:	425b      	neglt	r3, r3
 8000a1c:	2b19      	cmp	r3, #25
 8000a1e:	bf88      	it	hi
 8000a20:	4770      	bxhi	lr
 8000a22:	f010 4f00 	tst.w	r0, #2147483648	; 0x80000000
 8000a26:	f440 0000 	orr.w	r0, r0, #8388608	; 0x800000
 8000a2a:	f020 407f 	bic.w	r0, r0, #4278190080	; 0xff000000
 8000a2e:	bf18      	it	ne
 8000a30:	4240      	negne	r0, r0
 8000a32:	f011 4f00 	tst.w	r1, #2147483648	; 0x80000000
 8000a36:	f441 0100 	orr.w	r1, r1, #8388608	; 0x800000
 8000a3a:	f021 417f 	bic.w	r1, r1, #4278190080	; 0xff000000
 8000a3e:	bf18      	it	ne
 8000a40:	4249      	negne	r1, r1
 8000a42:	ea92 0f03 	teq	r2, r3
 8000a46:	d03f      	beq.n	8000ac8 <__addsf3+0xd8>
 8000a48:	f1a2 0201 	sub.w	r2, r2, #1
 8000a4c:	fa41 fc03 	asr.w	ip, r1, r3
 8000a50:	eb10 000c 	adds.w	r0, r0, ip
 8000a54:	f1c3 0320 	rsb	r3, r3, #32
 8000a58:	fa01 f103 	lsl.w	r1, r1, r3
 8000a5c:	f000 4300 	and.w	r3, r0, #2147483648	; 0x80000000
 8000a60:	d502      	bpl.n	8000a68 <__addsf3+0x78>
 8000a62:	4249      	negs	r1, r1
 8000a64:	eb60 0040 	sbc.w	r0, r0, r0, lsl #1
 8000a68:	f5b0 0f00 	cmp.w	r0, #8388608	; 0x800000
 8000a6c:	d313      	bcc.n	8000a96 <__addsf3+0xa6>
 8000a6e:	f1b0 7f80 	cmp.w	r0, #16777216	; 0x1000000
 8000a72:	d306      	bcc.n	8000a82 <__addsf3+0x92>
 8000a74:	0840      	lsrs	r0, r0, #1
 8000a76:	ea4f 0131 	mov.w	r1, r1, rrx
 8000a7a:	f102 0201 	add.w	r2, r2, #1
 8000a7e:	2afe      	cmp	r2, #254	; 0xfe
 8000a80:	d251      	bcs.n	8000b26 <__addsf3+0x136>
 8000a82:	f1b1 4f00 	cmp.w	r1, #2147483648	; 0x80000000
 8000a86:	eb40 50c2 	adc.w	r0, r0, r2, lsl #23
 8000a8a:	bf08      	it	eq
 8000a8c:	f020 0001 	biceq.w	r0, r0, #1
 8000a90:	ea40 0003 	orr.w	r0, r0, r3
 8000a94:	4770      	bx	lr
 8000a96:	0049      	lsls	r1, r1, #1
 8000a98:	eb40 0000 	adc.w	r0, r0, r0
 8000a9c:	f410 0f00 	tst.w	r0, #8388608	; 0x800000
 8000aa0:	f1a2 0201 	sub.w	r2, r2, #1
 8000aa4:	d1ed      	bne.n	8000a82 <__addsf3+0x92>
 8000aa6:	fab0 fc80 	clz	ip, r0
 8000aaa:	f1ac 0c08 	sub.w	ip, ip, #8
 8000aae:	ebb2 020c 	subs.w	r2, r2, ip
 8000ab2:	fa00 f00c 	lsl.w	r0, r0, ip
 8000ab6:	bfaa      	itet	ge
 8000ab8:	eb00 50c2 	addge.w	r0, r0, r2, lsl #23
 8000abc:	4252      	neglt	r2, r2
 8000abe:	4318      	orrge	r0, r3
 8000ac0:	bfbc      	itt	lt
 8000ac2:	40d0      	lsrlt	r0, r2
 8000ac4:	4318      	orrlt	r0, r3
 8000ac6:	4770      	bx	lr
 8000ac8:	f092 0f00 	teq	r2, #0
 8000acc:	f481 0100 	eor.w	r1, r1, #8388608	; 0x800000
 8000ad0:	bf06      	itte	eq
 8000ad2:	f480 0000 	eoreq.w	r0, r0, #8388608	; 0x800000
 8000ad6:	3201      	addeq	r2, #1
 8000ad8:	3b01      	subne	r3, #1
 8000ada:	e7b5      	b.n	8000a48 <__addsf3+0x58>
 8000adc:	ea4f 0341 	mov.w	r3, r1, lsl #1
 8000ae0:	ea7f 6c22 	mvns.w	ip, r2, asr #24
 8000ae4:	bf18      	it	ne
 8000ae6:	ea7f 6c23 	mvnsne.w	ip, r3, asr #24
 8000aea:	d021      	beq.n	8000b30 <__addsf3+0x140>
 8000aec:	ea92 0f03 	teq	r2, r3
 8000af0:	d004      	beq.n	8000afc <__addsf3+0x10c>
 8000af2:	f092 0f00 	teq	r2, #0
 8000af6:	bf08      	it	eq
 8000af8:	4608      	moveq	r0, r1
 8000afa:	4770      	bx	lr
 8000afc:	ea90 0f01 	teq	r0, r1
 8000b00:	bf1c      	itt	ne
 8000b02:	2000      	movne	r0, #0
 8000b04:	4770      	bxne	lr
 8000b06:	f012 4f7f 	tst.w	r2, #4278190080	; 0xff000000
 8000b0a:	d104      	bne.n	8000b16 <__addsf3+0x126>
 8000b0c:	0040      	lsls	r0, r0, #1
 8000b0e:	bf28      	it	cs
 8000b10:	f040 4000 	orrcs.w	r0, r0, #2147483648	; 0x80000000
 8000b14:	4770      	bx	lr
 8000b16:	f112 7200 	adds.w	r2, r2, #33554432	; 0x2000000
 8000b1a:	bf3c      	itt	cc
 8000b1c:	f500 0000 	addcc.w	r0, r0, #8388608	; 0x800000
 8000b20:	4770      	bxcc	lr
 8000b22:	f000 4300 	and.w	r3, r0, #2147483648	; 0x80000000
 8000b26:	f043 40fe 	orr.w	r0, r3, #2130706432	; 0x7f000000
 8000b2a:	f440 0000 	orr.w	r0, r0, #8388608	; 0x800000
 8000b2e:	4770      	bx	lr
 8000b30:	ea7f 6222 	mvns.w	r2, r2, asr #24
 8000b34:	bf16      	itet	ne
 8000b36:	4608      	movne	r0, r1
 8000b38:	ea7f 6323 	mvnseq.w	r3, r3, asr #24
 8000b3c:	4601      	movne	r1, r0
 8000b3e:	0242      	lsls	r2, r0, #9
 8000b40:	bf06      	itte	eq
 8000b42:	ea5f 2341 	movseq.w	r3, r1, lsl #9
 8000b46:	ea90 0f01 	teqeq	r0, r1
 8000b4a:	f440 0080 	orrne.w	r0, r0, #4194304	; 0x400000
 8000b4e:	4770      	bx	lr

08000b50 <__aeabi_ui2f>:
 8000b50:	f04f 0300 	mov.w	r3, #0
 8000b54:	e004      	b.n	8000b60 <__aeabi_i2f+0x8>
 8000b56:	bf00      	nop

08000b58 <__aeabi_i2f>:
 8000b58:	f010 4300 	ands.w	r3, r0, #2147483648	; 0x80000000
 8000b5c:	bf48      	it	mi
 8000b5e:	4240      	negmi	r0, r0
 8000b60:	ea5f 0c00 	movs.w	ip, r0
 8000b64:	bf08      	it	eq
 8000b66:	4770      	bxeq	lr
 8000b68:	f043 4396 	orr.w	r3, r3, #1258291200	; 0x4b000000
 8000b6c:	4601      	mov	r1, r0
 8000b6e:	f04f 0000 	mov.w	r0, #0
 8000b72:	e01c      	b.n	8000bae <__aeabi_l2f+0x2a>

08000b74 <__aeabi_ul2f>:
 8000b74:	ea50 0201 	orrs.w	r2, r0, r1
 8000b78:	bf08      	it	eq
 8000b7a:	4770      	bxeq	lr
 8000b7c:	f04f 0300 	mov.w	r3, #0
 8000b80:	e00a      	b.n	8000b98 <__aeabi_l2f+0x14>
 8000b82:	bf00      	nop

08000b84 <__aeabi_l2f>:
 8000b84:	ea50 0201 	orrs.w	r2, r0, r1
 8000b88:	bf08      	it	eq
 8000b8a:	4770      	bxeq	lr
 8000b8c:	f011 4300 	ands.w	r3, r1, #2147483648	; 0x80000000
 8000b90:	d502      	bpl.n	8000b98 <__aeabi_l2f+0x14>
 8000b92:	4240      	negs	r0, r0
 8000b94:	eb61 0141 	sbc.w	r1, r1, r1, lsl #1
 8000b98:	ea5f 0c01 	movs.w	ip, r1
 8000b9c:	bf02      	ittt	eq
 8000b9e:	4684      	moveq	ip, r0
 8000ba0:	4601      	moveq	r1, r0
 8000ba2:	2000      	moveq	r0, #0
 8000ba4:	f043 43b6 	orr.w	r3, r3, #1526726656	; 0x5b000000
 8000ba8:	bf08      	it	eq
 8000baa:	f1a3 5380 	subeq.w	r3, r3, #268435456	; 0x10000000
 8000bae:	f5a3 0300 	sub.w	r3, r3, #8388608	; 0x800000
 8000bb2:	fabc f28c 	clz	r2, ip
 8000bb6:	3a08      	subs	r2, #8
 8000bb8:	eba3 53c2 	sub.w	r3, r3, r2, lsl #23
 8000bbc:	db10      	blt.n	8000be0 <__aeabi_l2f+0x5c>
 8000bbe:	fa01 fc02 	lsl.w	ip, r1, r2
 8000bc2:	4463      	add	r3, ip
 8000bc4:	fa00 fc02 	lsl.w	ip, r0, r2
 8000bc8:	f1c2 0220 	rsb	r2, r2, #32
 8000bcc:	f1bc 4f00 	cmp.w	ip, #2147483648	; 0x80000000
 8000bd0:	fa20 f202 	lsr.w	r2, r0, r2
 8000bd4:	eb43 0002 	adc.w	r0, r3, r2
 8000bd8:	bf08      	it	eq
 8000bda:	f020 0001 	biceq.w	r0, r0, #1
 8000bde:	4770      	bx	lr
 8000be0:	f102 0220 	add.w	r2, r2, #32
 8000be4:	fa01 fc02 	lsl.w	ip, r1, r2
 8000be8:	f1c2 0220 	rsb	r2, r2, #32
 8000bec:	ea50 004c 	orrs.w	r0, r0, ip, lsl #1
 8000bf0:	fa21 f202 	lsr.w	r2, r1, r2
 8000bf4:	eb43 0002 	adc.w	r0, r3, r2
 8000bf8:	bf08      	it	eq
 8000bfa:	ea20 70dc 	biceq.w	r0, r0, ip, lsr #31
 8000bfe:	4770      	bx	lr

08000c00 <__aeabi_fmul>:
 8000c00:	f04f 0cff 	mov.w	ip, #255	; 0xff
 8000c04:	ea1c 52d0 	ands.w	r2, ip, r0, lsr #23
 8000c08:	bf1e      	ittt	ne
 8000c0a:	ea1c 53d1 	andsne.w	r3, ip, r1, lsr #23
 8000c0e:	ea92 0f0c 	teqne	r2, ip
 8000c12:	ea93 0f0c 	teqne	r3, ip
 8000c16:	d06f      	beq.n	8000cf8 <__aeabi_fmul+0xf8>
 8000c18:	441a      	add	r2, r3
 8000c1a:	ea80 0c01 	eor.w	ip, r0, r1
 8000c1e:	0240      	lsls	r0, r0, #9
 8000c20:	bf18      	it	ne
 8000c22:	ea5f 2141 	movsne.w	r1, r1, lsl #9
 8000c26:	d01e      	beq.n	8000c66 <__aeabi_fmul+0x66>
 8000c28:	f04f 6300 	mov.w	r3, #134217728	; 0x8000000
 8000c2c:	ea43 1050 	orr.w	r0, r3, r0, lsr #5
 8000c30:	ea43 1151 	orr.w	r1, r3, r1, lsr #5
 8000c34:	fba0 3101 	umull	r3, r1, r0, r1
 8000c38:	f00c 4000 	and.w	r0, ip, #2147483648	; 0x80000000
 8000c3c:	f5b1 0f00 	cmp.w	r1, #8388608	; 0x800000
 8000c40:	bf3e      	ittt	cc
 8000c42:	0049      	lslcc	r1, r1, #1
 8000c44:	ea41 71d3 	orrcc.w	r1, r1, r3, lsr #31
 8000c48:	005b      	lslcc	r3, r3, #1
 8000c4a:	ea40 0001 	orr.w	r0, r0, r1
 8000c4e:	f162 027f 	sbc.w	r2, r2, #127	; 0x7f
 8000c52:	2afd      	cmp	r2, #253	; 0xfd
 8000c54:	d81d      	bhi.n	8000c92 <__aeabi_fmul+0x92>
 8000c56:	f1b3 4f00 	cmp.w	r3, #2147483648	; 0x80000000
 8000c5a:	eb40 50c2 	adc.w	r0, r0, r2, lsl #23
 8000c5e:	bf08      	it	eq
 8000c60:	f020 0001 	biceq.w	r0, r0, #1
 8000c64:	4770      	bx	lr
 8000c66:	f090 0f00 	teq	r0, #0
 8000c6a:	f00c 4c00 	and.w	ip, ip, #2147483648	; 0x80000000
 8000c6e:	bf08      	it	eq
 8000c70:	0249      	lsleq	r1, r1, #9
 8000c72:	ea4c 2050 	orr.w	r0, ip, r0, lsr #9
 8000c76:	ea40 2051 	orr.w	r0, r0, r1, lsr #9
 8000c7a:	3a7f      	subs	r2, #127	; 0x7f
 8000c7c:	bfc2      	ittt	gt
 8000c7e:	f1d2 03ff 	rsbsgt	r3, r2, #255	; 0xff
 8000c82:	ea40 50c2 	orrgt.w	r0, r0, r2, lsl #23
 8000c86:	4770      	bxgt	lr
 8000c88:	f440 0000 	orr.w	r0, r0, #8388608	; 0x800000
 8000c8c:	f04f 0300 	mov.w	r3, #0
 8000c90:	3a01      	subs	r2, #1
 8000c92:	dc5d      	bgt.n	8000d50 <__aeabi_fmul+0x150>
 8000c94:	f112 0f19 	cmn.w	r2, #25
 8000c98:	bfdc      	itt	le
 8000c9a:	f000 4000 	andle.w	r0, r0, #2147483648	; 0x80000000
 8000c9e:	4770      	bxle	lr
 8000ca0:	f1c2 0200 	rsb	r2, r2, #0
 8000ca4:	0041      	lsls	r1, r0, #1
 8000ca6:	fa21 f102 	lsr.w	r1, r1, r2
 8000caa:	f1c2 0220 	rsb	r2, r2, #32
 8000cae:	fa00 fc02 	lsl.w	ip, r0, r2
 8000cb2:	ea5f 0031 	movs.w	r0, r1, rrx
 8000cb6:	f140 0000 	adc.w	r0, r0, #0
 8000cba:	ea53 034c 	orrs.w	r3, r3, ip, lsl #1
 8000cbe:	bf08      	it	eq
 8000cc0:	ea20 70dc 	biceq.w	r0, r0, ip, lsr #31
 8000cc4:	4770      	bx	lr
 8000cc6:	f092 0f00 	teq	r2, #0
 8000cca:	f000 4c00 	and.w	ip, r0, #2147483648	; 0x80000000
 8000cce:	bf02      	ittt	eq
 8000cd0:	0040      	lsleq	r0, r0, #1
 8000cd2:	f410 0f00 	tsteq.w	r0, #8388608	; 0x800000
 8000cd6:	3a01      	subeq	r2, #1
 8000cd8:	d0f9      	beq.n	8000cce <__aeabi_fmul+0xce>
 8000cda:	ea40 000c 	orr.w	r0, r0, ip
 8000cde:	f093 0f00 	teq	r3, #0
 8000ce2:	f001 4c00 	and.w	ip, r1, #2147483648	; 0x80000000
 8000ce6:	bf02      	ittt	eq
 8000ce8:	0049      	lsleq	r1, r1, #1
 8000cea:	f411 0f00 	tsteq.w	r1, #8388608	; 0x800000
 8000cee:	3b01      	subeq	r3, #1
 8000cf0:	d0f9      	beq.n	8000ce6 <__aeabi_fmul+0xe6>
 8000cf2:	ea41 010c 	orr.w	r1, r1, ip
 8000cf6:	e78f      	b.n	8000c18 <__aeabi_fmul+0x18>
 8000cf8:	ea0c 53d1 	and.w	r3, ip, r1, lsr #23
 8000cfc:	ea92 0f0c 	teq	r2, ip
 8000d00:	bf18      	it	ne
 8000d02:	ea93 0f0c 	teqne	r3, ip
 8000d06:	d00a      	beq.n	8000d1e <__aeabi_fmul+0x11e>
 8000d08:	f030 4c00 	bics.w	ip, r0, #2147483648	; 0x80000000
 8000d0c:	bf18      	it	ne
 8000d0e:	f031 4c00 	bicsne.w	ip, r1, #2147483648	; 0x80000000
 8000d12:	d1d8      	bne.n	8000cc6 <__aeabi_fmul+0xc6>
 8000d14:	ea80 0001 	eor.w	r0, r0, r1
 8000d18:	f000 4000 	and.w	r0, r0, #2147483648	; 0x80000000
 8000d1c:	4770      	bx	lr
 8000d1e:	f090 0f00 	teq	r0, #0
 8000d22:	bf17      	itett	ne
 8000d24:	f090 4f00 	teqne	r0, #2147483648	; 0x80000000
 8000d28:	4608      	moveq	r0, r1
 8000d2a:	f091 0f00 	teqne	r1, #0
 8000d2e:	f091 4f00 	teqne	r1, #2147483648	; 0x80000000
 8000d32:	d014      	beq.n	8000d5e <__aeabi_fmul+0x15e>
 8000d34:	ea92 0f0c 	teq	r2, ip
 8000d38:	d101      	bne.n	8000d3e <__aeabi_fmul+0x13e>
 8000d3a:	0242      	lsls	r2, r0, #9
 8000d3c:	d10f      	bne.n	8000d5e <__aeabi_fmul+0x15e>
 8000d3e:	ea93 0f0c 	teq	r3, ip
 8000d42:	d103      	bne.n	8000d4c <__aeabi_fmul+0x14c>
 8000d44:	024b      	lsls	r3, r1, #9
 8000d46:	bf18      	it	ne
 8000d48:	4608      	movne	r0, r1
 8000d4a:	d108      	bne.n	8000d5e <__aeabi_fmul+0x15e>
 8000d4c:	ea80 0001 	eor.w	r0, r0, r1
 8000d50:	f000 4000 	and.w	r0, r0, #2147483648	; 0x80000000
 8000d54:	f040 40fe 	orr.w	r0, r0, #2130706432	; 0x7f000000
 8000d58:	f440 0000 	orr.w	r0, r0, #8388608	; 0x800000
 8000d5c:	4770      	bx	lr
 8000d5e:	f040 40fe 	orr.w	r0, r0, #2130706432	; 0x7f000000
 8000d62:	f440 0040 	orr.w	r0, r0, #12582912	; 0xc00000
 8000d66:	4770      	bx	lr

08000d68 <__aeabi_fdiv>:
 8000d68:	f04f 0cff 	mov.w	ip, #255	; 0xff
 8000d6c:	ea1c 52d0 	ands.w	r2, ip, r0, lsr #23
 8000d70:	bf1e      	ittt	ne
 8000d72:	ea1c 53d1 	andsne.w	r3, ip, r1, lsr #23
 8000d76:	ea92 0f0c 	teqne	r2, ip
 8000d7a:	ea93 0f0c 	teqne	r3, ip
 8000d7e:	d069      	beq.n	8000e54 <__aeabi_fdiv+0xec>
 8000d80:	eba2 0203 	sub.w	r2, r2, r3
 8000d84:	ea80 0c01 	eor.w	ip, r0, r1
 8000d88:	0249      	lsls	r1, r1, #9
 8000d8a:	ea4f 2040 	mov.w	r0, r0, lsl #9
 8000d8e:	d037      	beq.n	8000e00 <__aeabi_fdiv+0x98>
 8000d90:	f04f 5380 	mov.w	r3, #268435456	; 0x10000000
 8000d94:	ea43 1111 	orr.w	r1, r3, r1, lsr #4
 8000d98:	ea43 1310 	orr.w	r3, r3, r0, lsr #4
 8000d9c:	f00c 4000 	and.w	r0, ip, #2147483648	; 0x80000000
 8000da0:	428b      	cmp	r3, r1
 8000da2:	bf38      	it	cc
 8000da4:	005b      	lslcc	r3, r3, #1
 8000da6:	f142 027d 	adc.w	r2, r2, #125	; 0x7d
 8000daa:	f44f 0c00 	mov.w	ip, #8388608	; 0x800000
 8000dae:	428b      	cmp	r3, r1
 8000db0:	bf24      	itt	cs
 8000db2:	1a5b      	subcs	r3, r3, r1
 8000db4:	ea40 000c 	orrcs.w	r0, r0, ip
 8000db8:	ebb3 0f51 	cmp.w	r3, r1, lsr #1
 8000dbc:	bf24      	itt	cs
 8000dbe:	eba3 0351 	subcs.w	r3, r3, r1, lsr #1
 8000dc2:	ea40 005c 	orrcs.w	r0, r0, ip, lsr #1
 8000dc6:	ebb3 0f91 	cmp.w	r3, r1, lsr #2
 8000dca:	bf24      	itt	cs
 8000dcc:	eba3 0391 	subcs.w	r3, r3, r1, lsr #2
 8000dd0:	ea40 009c 	orrcs.w	r0, r0, ip, lsr #2
 8000dd4:	ebb3 0fd1 	cmp.w	r3, r1, lsr #3
 8000dd8:	bf24      	itt	cs
 8000dda:	eba3 03d1 	subcs.w	r3, r3, r1, lsr #3
 8000dde:	ea40 00dc 	orrcs.w	r0, r0, ip, lsr #3
 8000de2:	011b      	lsls	r3, r3, #4
 8000de4:	bf18      	it	ne
 8000de6:	ea5f 1c1c 	movsne.w	ip, ip, lsr #4
 8000dea:	d1e0      	bne.n	8000dae <__aeabi_fdiv+0x46>
 8000dec:	2afd      	cmp	r2, #253	; 0xfd
 8000dee:	f63f af50 	bhi.w	8000c92 <__aeabi_fmul+0x92>
 8000df2:	428b      	cmp	r3, r1
 8000df4:	eb40 50c2 	adc.w	r0, r0, r2, lsl #23
 8000df8:	bf08      	it	eq
 8000dfa:	f020 0001 	biceq.w	r0, r0, #1
 8000dfe:	4770      	bx	lr
 8000e00:	f00c 4c00 	and.w	ip, ip, #2147483648	; 0x80000000
 8000e04:	ea4c 2050 	orr.w	r0, ip, r0, lsr #9
 8000e08:	327f      	adds	r2, #127	; 0x7f
 8000e0a:	bfc2      	ittt	gt
 8000e0c:	f1d2 03ff 	rsbsgt	r3, r2, #255	; 0xff
 8000e10:	ea40 50c2 	orrgt.w	r0, r0, r2, lsl #23
 8000e14:	4770      	bxgt	lr
 8000e16:	f440 0000 	orr.w	r0, r0, #8388608	; 0x800000
 8000e1a:	f04f 0300 	mov.w	r3, #0
 8000e1e:	3a01      	subs	r2, #1
 8000e20:	e737      	b.n	8000c92 <__aeabi_fmul+0x92>
 8000e22:	f092 0f00 	teq	r2, #0
 8000e26:	f000 4c00 	and.w	ip, r0, #2147483648	; 0x80000000
 8000e2a:	bf02      	ittt	eq
 8000e2c:	0040      	lsleq	r0, r0, #1
 8000e2e:	f410 0f00 	tsteq.w	r0, #8388608	; 0x800000
 8000e32:	3a01      	subeq	r2, #1
 8000e34:	d0f9      	beq.n	8000e2a <__aeabi_fdiv+0xc2>
 8000e36:	ea40 000c 	orr.w	r0, r0, ip
 8000e3a:	f093 0f00 	teq	r3, #0
 8000e3e:	f001 4c00 	and.w	ip, r1, #2147483648	; 0x80000000
 8000e42:	bf02      	ittt	eq
 8000e44:	0049      	lsleq	r1, r1, #1
 8000e46:	f411 0f00 	tsteq.w	r1, #8388608	; 0x800000
 8000e4a:	3b01      	subeq	r3, #1
 8000e4c:	d0f9      	beq.n	8000e42 <__aeabi_fdiv+0xda>
 8000e4e:	ea41 010c 	orr.w	r1, r1, ip
 8000e52:	e795      	b.n	8000d80 <__aeabi_fdiv+0x18>
 8000e54:	ea0c 53d1 	and.w	r3, ip, r1, lsr #23
 8000e58:	ea92 0f0c 	teq	r2, ip
 8000e5c:	d108      	bne.n	8000e70 <__aeabi_fdiv+0x108>
 8000e5e:	0242      	lsls	r2, r0, #9
 8000e60:	f47f af7d 	bne.w	8000d5e <__aeabi_fmul+0x15e>
 8000e64:	ea93 0f0c 	teq	r3, ip
 8000e68:	f47f af70 	bne.w	8000d4c <__aeabi_fmul+0x14c>
 8000e6c:	4608      	mov	r0, r1
 8000e6e:	e776      	b.n	8000d5e <__aeabi_fmul+0x15e>
 8000e70:	ea93 0f0c 	teq	r3, ip
 8000e74:	d104      	bne.n	8000e80 <__aeabi_fdiv+0x118>
 8000e76:	024b      	lsls	r3, r1, #9
 8000e78:	f43f af4c 	beq.w	8000d14 <__aeabi_fmul+0x114>
 8000e7c:	4608      	mov	r0, r1
 8000e7e:	e76e      	b.n	8000d5e <__aeabi_fmul+0x15e>
 8000e80:	f030 4c00 	bics.w	ip, r0, #2147483648	; 0x80000000
 8000e84:	bf18      	it	ne
 8000e86:	f031 4c00 	bicsne.w	ip, r1, #2147483648	; 0x80000000
 8000e8a:	d1ca      	bne.n	8000e22 <__aeabi_fdiv+0xba>
 8000e8c:	f030 4200 	bics.w	r2, r0, #2147483648	; 0x80000000
 8000e90:	f47f af5c 	bne.w	8000d4c <__aeabi_fmul+0x14c>
 8000e94:	f031 4300 	bics.w	r3, r1, #2147483648	; 0x80000000
 8000e98:	f47f af3c 	bne.w	8000d14 <__aeabi_fmul+0x114>
 8000e9c:	e75f      	b.n	8000d5e <__aeabi_fmul+0x15e>
 8000e9e:	bf00      	nop

08000ea0 <HAL_InitTick>:
  *       implementation  in user file.
  * @param TickPriority Tick interrupt priority.
  * @retval HAL status
  */
__weak HAL_StatusTypeDef HAL_InitTick(uint32_t TickPriority)
{
 8000ea0:	b538      	push	{r3, r4, r5, lr}
  /* Configure the SysTick to have interrupt in 1ms time basis*/
  if (HAL_SYSTICK_Config(SystemCoreClock / (1000U / uwTickFreq)) > 0U)
 8000ea2:	4b0e      	ldr	r3, [pc, #56]	; (8000edc <HAL_InitTick+0x3c>)
{
 8000ea4:	4605      	mov	r5, r0
  if (HAL_SYSTICK_Config(SystemCoreClock / (1000U / uwTickFreq)) > 0U)
 8000ea6:	7818      	ldrb	r0, [r3, #0]
 8000ea8:	f44f 737a 	mov.w	r3, #1000	; 0x3e8
 8000eac:	fbb3 f3f0 	udiv	r3, r3, r0
 8000eb0:	4a0b      	ldr	r2, [pc, #44]	; (8000ee0 <HAL_InitTick+0x40>)
 8000eb2:	6810      	ldr	r0, [r2, #0]
 8000eb4:	fbb0 f0f3 	udiv	r0, r0, r3
 8000eb8:	f000 faee 	bl	8001498 <HAL_SYSTICK_Config>
 8000ebc:	4604      	mov	r4, r0
 8000ebe:	b958      	cbnz	r0, 8000ed8 <HAL_InitTick+0x38>
  {
    return HAL_ERROR;
  }

  /* Configure the SysTick IRQ priority */
  if (TickPriority < (1UL << __NVIC_PRIO_BITS))
 8000ec0:	2d0f      	cmp	r5, #15
 8000ec2:	d809      	bhi.n	8000ed8 <HAL_InitTick+0x38>
  {
    HAL_NVIC_SetPriority(SysTick_IRQn, TickPriority, 0U);
 8000ec4:	4602      	mov	r2, r0
 8000ec6:	4629      	mov	r1, r5
 8000ec8:	f04f 30ff 	mov.w	r0, #4294967295
 8000ecc:	f000 faa4 	bl	8001418 <HAL_NVIC_SetPriority>
    uwTickPrio = TickPriority;
 8000ed0:	4b04      	ldr	r3, [pc, #16]	; (8000ee4 <HAL_InitTick+0x44>)
 8000ed2:	4620      	mov	r0, r4
 8000ed4:	601d      	str	r5, [r3, #0]
 8000ed6:	bd38      	pop	{r3, r4, r5, pc}
    return HAL_ERROR;
 8000ed8:	2001      	movs	r0, #1
    return HAL_ERROR;
  }

  /* Return function status */
  return HAL_OK;
}
 8000eda:	bd38      	pop	{r3, r4, r5, pc}
 8000edc:	20000000 	.word	0x20000000
 8000ee0:	2000004c 	.word	0x2000004c
 8000ee4:	20000004 	.word	0x20000004

08000ee8 <HAL_Init>:
  __HAL_FLASH_PREFETCH_BUFFER_ENABLE();
 8000ee8:	4a07      	ldr	r2, [pc, #28]	; (8000f08 <HAL_Init+0x20>)
{
 8000eea:	b508      	push	{r3, lr}
  __HAL_FLASH_PREFETCH_BUFFER_ENABLE();
 8000eec:	6813      	ldr	r3, [r2, #0]
  HAL_NVIC_SetPriorityGrouping(NVIC_PRIORITYGROUP_4);
 8000eee:	2003      	movs	r0, #3
  __HAL_FLASH_PREFETCH_BUFFER_ENABLE();
 8000ef0:	f043 0310 	orr.w	r3, r3, #16
 8000ef4:	6013      	str	r3, [r2, #0]
  HAL_NVIC_SetPriorityGrouping(NVIC_PRIORITYGROUP_4);
 8000ef6:	f000 fa7d 	bl	80013f4 <HAL_NVIC_SetPriorityGrouping>
  HAL_InitTick(TICK_INT_PRIORITY);
 8000efa:	2000      	movs	r0, #0
 8000efc:	f7ff ffd0 	bl	8000ea0 <HAL_InitTick>
  HAL_MspInit();
 8000f00:	f002 ff96 	bl	8003e30 <HAL_MspInit>
}
 8000f04:	2000      	movs	r0, #0
 8000f06:	bd08      	pop	{r3, pc}
 8000f08:	40022000 	.word	0x40022000

08000f0c <HAL_IncTick>:
  *      implementations in user file.
  * @retval None
  */
__weak void HAL_IncTick(void)
{
  uwTick += uwTickFreq;
 8000f0c:	4a03      	ldr	r2, [pc, #12]	; (8000f1c <HAL_IncTick+0x10>)
 8000f0e:	4b04      	ldr	r3, [pc, #16]	; (8000f20 <HAL_IncTick+0x14>)
 8000f10:	6811      	ldr	r1, [r2, #0]
 8000f12:	781b      	ldrb	r3, [r3, #0]
 8000f14:	440b      	add	r3, r1
 8000f16:	6013      	str	r3, [r2, #0]
 8000f18:	4770      	bx	lr
 8000f1a:	bf00      	nop
 8000f1c:	200000e8 	.word	0x200000e8
 8000f20:	20000000 	.word	0x20000000

08000f24 <HAL_GetTick>:
  *       implementations in user file.
  * @retval tick value
  */
__weak uint32_t HAL_GetTick(void)
{
  return uwTick;
 8000f24:	4b01      	ldr	r3, [pc, #4]	; (8000f2c <HAL_GetTick+0x8>)
 8000f26:	6818      	ldr	r0, [r3, #0]
}
 8000f28:	4770      	bx	lr
 8000f2a:	bf00      	nop
 8000f2c:	200000e8 	.word	0x200000e8

08000f30 <HAL_Delay>:
  *       implementations in user file.
  * @param Delay specifies the delay time length, in milliseconds.
  * @retval None
  */
__weak void HAL_Delay(uint32_t Delay)
{
 8000f30:	b538      	push	{r3, r4, r5, lr}
 8000f32:	4604      	mov	r4, r0
  uint32_t tickstart = HAL_GetTick();
 8000f34:	f7ff fff6 	bl	8000f24 <HAL_GetTick>
 8000f38:	4605      	mov	r5, r0
  uint32_t wait = Delay;

  /* Add a freq to guarantee minimum wait */
  if (wait < HAL_MAX_DELAY)
 8000f3a:	1c63      	adds	r3, r4, #1
  {
    wait += (uint32_t)(uwTickFreq);
 8000f3c:	bf1e      	ittt	ne
 8000f3e:	4b04      	ldrne	r3, [pc, #16]	; (8000f50 <HAL_Delay+0x20>)
 8000f40:	781b      	ldrbne	r3, [r3, #0]
 8000f42:	18e4      	addne	r4, r4, r3
  }

  while ((HAL_GetTick() - tickstart) < wait)
 8000f44:	f7ff ffee 	bl	8000f24 <HAL_GetTick>
 8000f48:	1b40      	subs	r0, r0, r5
 8000f4a:	4284      	cmp	r4, r0
 8000f4c:	d8fa      	bhi.n	8000f44 <HAL_Delay+0x14>
  {
  }
}
 8000f4e:	bd38      	pop	{r3, r4, r5, pc}
 8000f50:	20000000 	.word	0x20000000

08000f54 <HAL_ADC_GetValue>:

  /* Note: EOC flag is not cleared here by software because automatically     */
  /*       cleared by hardware when reading register DR.                      */
  
  /* Return ADC converted value */ 
  return hadc->Instance->DR;
 8000f54:	6803      	ldr	r3, [r0, #0]
 8000f56:	6cd8      	ldr	r0, [r3, #76]	; 0x4c
}
 8000f58:	4770      	bx	lr
	...

08000f5c <HAL_ADC_ConfigChannel>:
  * @retval HAL status
  */
HAL_StatusTypeDef HAL_ADC_ConfigChannel(ADC_HandleTypeDef* hadc, ADC_ChannelConfTypeDef* sConfig)
{ 
  HAL_StatusTypeDef tmp_hal_status = HAL_OK;
  __IO uint32_t wait_loop_index = 0U;
 8000f5c:	2300      	movs	r3, #0
{ 
 8000f5e:	b573      	push	{r0, r1, r4, r5, r6, lr}
  __IO uint32_t wait_loop_index = 0U;
 8000f60:	9301      	str	r3, [sp, #4]
  assert_param(IS_ADC_CHANNEL(sConfig->Channel));
  assert_param(IS_ADC_REGULAR_RANK(sConfig->Rank));
  assert_param(IS_ADC_SAMPLE_TIME(sConfig->SamplingTime));
  
  /* Process locked */
  __HAL_LOCK(hadc);
 8000f62:	f890 3024 	ldrb.w	r3, [r0, #36]	; 0x24
 8000f66:	2b01      	cmp	r3, #1
 8000f68:	d074      	beq.n	8001054 <HAL_ADC_ConfigChannel+0xf8>
 8000f6a:	2301      	movs	r3, #1
  
  
  /* Regular sequence configuration */
  /* For Rank 1 to 6 */
  if (sConfig->Rank < 7U)
 8000f6c:	684d      	ldr	r5, [r1, #4]
  __HAL_LOCK(hadc);
 8000f6e:	f880 3024 	strb.w	r3, [r0, #36]	; 0x24
  if (sConfig->Rank < 7U)
 8000f72:	2d06      	cmp	r5, #6
 8000f74:	6802      	ldr	r2, [r0, #0]
 8000f76:	ea4f 0385 	mov.w	r3, r5, lsl #2
 8000f7a:	680c      	ldr	r4, [r1, #0]
 8000f7c:	d825      	bhi.n	8000fca <HAL_ADC_ConfigChannel+0x6e>
  {
    MODIFY_REG(hadc->Instance->SQR3                        ,
 8000f7e:	442b      	add	r3, r5
 8000f80:	251f      	movs	r5, #31
 8000f82:	6b56      	ldr	r6, [r2, #52]	; 0x34
 8000f84:	3b05      	subs	r3, #5
 8000f86:	409d      	lsls	r5, r3
 8000f88:	ea26 0505 	bic.w	r5, r6, r5
 8000f8c:	fa04 f303 	lsl.w	r3, r4, r3
 8000f90:	432b      	orrs	r3, r5
 8000f92:	6353      	str	r3, [r2, #52]	; 0x34
  }
  
  
  /* Channel sampling time configuration */
  /* For channels 10 to 17 */
  if (sConfig->Channel >= ADC_CHANNEL_10)
 8000f94:	2c09      	cmp	r4, #9
 8000f96:	ea4f 0344 	mov.w	r3, r4, lsl #1
 8000f9a:	688d      	ldr	r5, [r1, #8]
 8000f9c:	d92f      	bls.n	8000ffe <HAL_ADC_ConfigChannel+0xa2>
  {
    MODIFY_REG(hadc->Instance->SMPR1                             ,
 8000f9e:	2607      	movs	r6, #7
 8000fa0:	4423      	add	r3, r4
 8000fa2:	68d1      	ldr	r1, [r2, #12]
 8000fa4:	3b1e      	subs	r3, #30
 8000fa6:	409e      	lsls	r6, r3
 8000fa8:	ea21 0106 	bic.w	r1, r1, r6
 8000fac:	fa05 f303 	lsl.w	r3, r5, r3
 8000fb0:	430b      	orrs	r3, r1
 8000fb2:	60d3      	str	r3, [r2, #12]
               ADC_SMPR2(sConfig->SamplingTime, sConfig->Channel) );
  }
  
  /* If ADC1 Channel_16 or Channel_17 is selected, enable Temperature sensor  */
  /* and VREFINT measurement path.                                            */
  if ((sConfig->Channel == ADC_CHANNEL_TEMPSENSOR) ||
 8000fb4:	f1a4 0310 	sub.w	r3, r4, #16
 8000fb8:	2b01      	cmp	r3, #1
 8000fba:	d92b      	bls.n	8001014 <HAL_ADC_ConfigChannel+0xb8>
  HAL_StatusTypeDef tmp_hal_status = HAL_OK;
 8000fbc:	2300      	movs	r3, #0
      tmp_hal_status = HAL_ERROR;
    }
  }
  
  /* Process unlocked */
  __HAL_UNLOCK(hadc);
 8000fbe:	2200      	movs	r2, #0
 8000fc0:	f880 2024 	strb.w	r2, [r0, #36]	; 0x24
  
  /* Return function status */
  return tmp_hal_status;
}
 8000fc4:	4618      	mov	r0, r3
 8000fc6:	b002      	add	sp, #8
 8000fc8:	bd70      	pop	{r4, r5, r6, pc}
  else if (sConfig->Rank < 13U)
 8000fca:	2d0c      	cmp	r5, #12
 8000fcc:	d80b      	bhi.n	8000fe6 <HAL_ADC_ConfigChannel+0x8a>
    MODIFY_REG(hadc->Instance->SQR2                        ,
 8000fce:	442b      	add	r3, r5
 8000fd0:	251f      	movs	r5, #31
 8000fd2:	6b16      	ldr	r6, [r2, #48]	; 0x30
 8000fd4:	3b23      	subs	r3, #35	; 0x23
 8000fd6:	409d      	lsls	r5, r3
 8000fd8:	ea26 0505 	bic.w	r5, r6, r5
 8000fdc:	fa04 f303 	lsl.w	r3, r4, r3
 8000fe0:	432b      	orrs	r3, r5
 8000fe2:	6313      	str	r3, [r2, #48]	; 0x30
 8000fe4:	e7d6      	b.n	8000f94 <HAL_ADC_ConfigChannel+0x38>
    MODIFY_REG(hadc->Instance->SQR1                        ,
 8000fe6:	442b      	add	r3, r5
 8000fe8:	251f      	movs	r5, #31
 8000fea:	6ad6      	ldr	r6, [r2, #44]	; 0x2c
 8000fec:	3b41      	subs	r3, #65	; 0x41
 8000fee:	409d      	lsls	r5, r3
 8000ff0:	ea26 0505 	bic.w	r5, r6, r5
 8000ff4:	fa04 f303 	lsl.w	r3, r4, r3
 8000ff8:	432b      	orrs	r3, r5
 8000ffa:	62d3      	str	r3, [r2, #44]	; 0x2c
 8000ffc:	e7ca      	b.n	8000f94 <HAL_ADC_ConfigChannel+0x38>
    MODIFY_REG(hadc->Instance->SMPR2                             ,
 8000ffe:	2607      	movs	r6, #7
 8001000:	6911      	ldr	r1, [r2, #16]
 8001002:	4423      	add	r3, r4
 8001004:	409e      	lsls	r6, r3
 8001006:	ea21 0106 	bic.w	r1, r1, r6
 800100a:	fa05 f303 	lsl.w	r3, r5, r3
 800100e:	430b      	orrs	r3, r1
 8001010:	6113      	str	r3, [r2, #16]
 8001012:	e7cf      	b.n	8000fb4 <HAL_ADC_ConfigChannel+0x58>
    if (hadc->Instance == ADC1)
 8001014:	4b10      	ldr	r3, [pc, #64]	; (8001058 <HAL_ADC_ConfigChannel+0xfc>)
 8001016:	429a      	cmp	r2, r3
 8001018:	d116      	bne.n	8001048 <HAL_ADC_ConfigChannel+0xec>
      if (READ_BIT(hadc->Instance->CR2, ADC_CR2_TSVREFE) == RESET)
 800101a:	6893      	ldr	r3, [r2, #8]
 800101c:	021b      	lsls	r3, r3, #8
 800101e:	d4cd      	bmi.n	8000fbc <HAL_ADC_ConfigChannel+0x60>
        SET_BIT(hadc->Instance->CR2, ADC_CR2_TSVREFE);
 8001020:	6893      	ldr	r3, [r2, #8]
        if ((sConfig->Channel == ADC_CHANNEL_TEMPSENSOR))
 8001022:	2c10      	cmp	r4, #16
        SET_BIT(hadc->Instance->CR2, ADC_CR2_TSVREFE);
 8001024:	f443 0300 	orr.w	r3, r3, #8388608	; 0x800000
 8001028:	6093      	str	r3, [r2, #8]
        if ((sConfig->Channel == ADC_CHANNEL_TEMPSENSOR))
 800102a:	d1c7      	bne.n	8000fbc <HAL_ADC_ConfigChannel+0x60>
          wait_loop_index = (ADC_TEMPSENSOR_DELAY_US * (SystemCoreClock / 1000000U));
 800102c:	4b0b      	ldr	r3, [pc, #44]	; (800105c <HAL_ADC_ConfigChannel+0x100>)
 800102e:	4a0c      	ldr	r2, [pc, #48]	; (8001060 <HAL_ADC_ConfigChannel+0x104>)
 8001030:	681b      	ldr	r3, [r3, #0]
 8001032:	fbb3 f2f2 	udiv	r2, r3, r2
 8001036:	230a      	movs	r3, #10
 8001038:	4353      	muls	r3, r2
            wait_loop_index--;
 800103a:	9301      	str	r3, [sp, #4]
          while(wait_loop_index != 0U)
 800103c:	9b01      	ldr	r3, [sp, #4]
 800103e:	2b00      	cmp	r3, #0
 8001040:	d0bc      	beq.n	8000fbc <HAL_ADC_ConfigChannel+0x60>
            wait_loop_index--;
 8001042:	9b01      	ldr	r3, [sp, #4]
 8001044:	3b01      	subs	r3, #1
 8001046:	e7f8      	b.n	800103a <HAL_ADC_ConfigChannel+0xde>
      SET_BIT(hadc->State, HAL_ADC_STATE_ERROR_CONFIG);
 8001048:	6a83      	ldr	r3, [r0, #40]	; 0x28
 800104a:	f043 0320 	orr.w	r3, r3, #32
 800104e:	6283      	str	r3, [r0, #40]	; 0x28
      tmp_hal_status = HAL_ERROR;
 8001050:	2301      	movs	r3, #1
 8001052:	e7b4      	b.n	8000fbe <HAL_ADC_ConfigChannel+0x62>
  __HAL_LOCK(hadc);
 8001054:	2302      	movs	r3, #2
 8001056:	e7b5      	b.n	8000fc4 <HAL_ADC_ConfigChannel+0x68>
 8001058:	40012400 	.word	0x40012400
 800105c:	2000004c 	.word	0x2000004c
 8001060:	000f4240 	.word	0x000f4240

08001064 <ADC_Enable>:
  * @retval HAL status.
  */
HAL_StatusTypeDef ADC_Enable(ADC_HandleTypeDef* hadc)
{
  uint32_t tickstart = 0U;
  __IO uint32_t wait_loop_index = 0U;
 8001064:	2300      	movs	r3, #0
{
 8001066:	b573      	push	{r0, r1, r4, r5, r6, lr}
  __IO uint32_t wait_loop_index = 0U;
 8001068:	9301      	str	r3, [sp, #4]
  
  /* ADC enable and wait for ADC ready (in case of ADC is disabled or         */
  /* enabling phase not yet completed: flag ADC ready not yet set).           */
  /* Timeout implemented to not be stuck if ADC cannot be enabled (possible   */
  /* causes: ADC clock not running, ...).                                     */
  if (ADC_IS_ENABLE(hadc) == RESET)
 800106a:	6803      	ldr	r3, [r0, #0]
{
 800106c:	4604      	mov	r4, r0
  if (ADC_IS_ENABLE(hadc) == RESET)
 800106e:	689a      	ldr	r2, [r3, #8]
 8001070:	07d2      	lsls	r2, r2, #31
 8001072:	d502      	bpl.n	800107a <ADC_Enable+0x16>
      }
    }
  }
   
  /* Return HAL status */
  return HAL_OK;
 8001074:	2000      	movs	r0, #0
}
 8001076:	b002      	add	sp, #8
 8001078:	bd70      	pop	{r4, r5, r6, pc}
    __HAL_ADC_ENABLE(hadc);
 800107a:	689a      	ldr	r2, [r3, #8]
 800107c:	f042 0201 	orr.w	r2, r2, #1
 8001080:	609a      	str	r2, [r3, #8]
    wait_loop_index = (ADC_STAB_DELAY_US * (SystemCoreClock / 1000000U));
 8001082:	4b12      	ldr	r3, [pc, #72]	; (80010cc <ADC_Enable+0x68>)
 8001084:	4a12      	ldr	r2, [pc, #72]	; (80010d0 <ADC_Enable+0x6c>)
 8001086:	681b      	ldr	r3, [r3, #0]
 8001088:	fbb3 f3f2 	udiv	r3, r3, r2
      wait_loop_index--;
 800108c:	9301      	str	r3, [sp, #4]
    while(wait_loop_index != 0U)
 800108e:	9b01      	ldr	r3, [sp, #4]
 8001090:	b9c3      	cbnz	r3, 80010c4 <ADC_Enable+0x60>
    tickstart = HAL_GetTick();
 8001092:	f7ff ff47 	bl	8000f24 <HAL_GetTick>
 8001096:	4606      	mov	r6, r0
    while(ADC_IS_ENABLE(hadc) == RESET)
 8001098:	6823      	ldr	r3, [r4, #0]
 800109a:	689d      	ldr	r5, [r3, #8]
 800109c:	f015 0501 	ands.w	r5, r5, #1
 80010a0:	d1e8      	bne.n	8001074 <ADC_Enable+0x10>
      if((HAL_GetTick() - tickstart) > ADC_ENABLE_TIMEOUT)
 80010a2:	f7ff ff3f 	bl	8000f24 <HAL_GetTick>
 80010a6:	1b80      	subs	r0, r0, r6
 80010a8:	2802      	cmp	r0, #2
 80010aa:	d9f5      	bls.n	8001098 <ADC_Enable+0x34>
        SET_BIT(hadc->State, HAL_ADC_STATE_ERROR_INTERNAL);
 80010ac:	6aa3      	ldr	r3, [r4, #40]	; 0x28
        __HAL_UNLOCK(hadc);
 80010ae:	f884 5024 	strb.w	r5, [r4, #36]	; 0x24
        SET_BIT(hadc->State, HAL_ADC_STATE_ERROR_INTERNAL);
 80010b2:	f043 0310 	orr.w	r3, r3, #16
 80010b6:	62a3      	str	r3, [r4, #40]	; 0x28
        SET_BIT(hadc->ErrorCode, HAL_ADC_ERROR_INTERNAL);
 80010b8:	6ae3      	ldr	r3, [r4, #44]	; 0x2c
        __HAL_UNLOCK(hadc);
 80010ba:	2001      	movs	r0, #1
        SET_BIT(hadc->ErrorCode, HAL_ADC_ERROR_INTERNAL);
 80010bc:	f043 0301 	orr.w	r3, r3, #1
 80010c0:	62e3      	str	r3, [r4, #44]	; 0x2c
 80010c2:	e7d8      	b.n	8001076 <ADC_Enable+0x12>
      wait_loop_index--;
 80010c4:	9b01      	ldr	r3, [sp, #4]
 80010c6:	3b01      	subs	r3, #1
 80010c8:	e7e0      	b.n	800108c <ADC_Enable+0x28>
 80010ca:	bf00      	nop
 80010cc:	2000004c 	.word	0x2000004c
 80010d0:	000f4240 	.word	0x000f4240

080010d4 <HAL_ADC_Start>:
  __HAL_LOCK(hadc);
 80010d4:	f890 3024 	ldrb.w	r3, [r0, #36]	; 0x24
{
 80010d8:	b510      	push	{r4, lr}
  __HAL_LOCK(hadc);
 80010da:	2b01      	cmp	r3, #1
{
 80010dc:	4604      	mov	r4, r0
  __HAL_LOCK(hadc);
 80010de:	d054      	beq.n	800118a <HAL_ADC_Start+0xb6>
 80010e0:	2301      	movs	r3, #1
 80010e2:	f880 3024 	strb.w	r3, [r0, #36]	; 0x24
  tmp_hal_status = ADC_Enable(hadc);
 80010e6:	f7ff ffbd 	bl	8001064 <ADC_Enable>
  if (tmp_hal_status == HAL_OK)
 80010ea:	2800      	cmp	r0, #0
 80010ec:	d149      	bne.n	8001182 <HAL_ADC_Start+0xae>
    ADC_STATE_CLR_SET(hadc->State,
 80010ee:	6aa3      	ldr	r3, [r4, #40]	; 0x28
    if (ADC_NONMULTIMODE_OR_MULTIMODEMASTER(hadc))
 80010f0:	4a27      	ldr	r2, [pc, #156]	; (8001190 <HAL_ADC_Start+0xbc>)
    ADC_STATE_CLR_SET(hadc->State,
 80010f2:	f423 7340 	bic.w	r3, r3, #768	; 0x300
 80010f6:	f023 0301 	bic.w	r3, r3, #1
 80010fa:	f443 7380 	orr.w	r3, r3, #256	; 0x100
 80010fe:	62a3      	str	r3, [r4, #40]	; 0x28
    if (ADC_NONMULTIMODE_OR_MULTIMODEMASTER(hadc))
 8001100:	6823      	ldr	r3, [r4, #0]
 8001102:	4293      	cmp	r3, r2
 8001104:	d104      	bne.n	8001110 <HAL_ADC_Start+0x3c>
 8001106:	4923      	ldr	r1, [pc, #140]	; (8001194 <HAL_ADC_Start+0xc0>)
 8001108:	684a      	ldr	r2, [r1, #4]
 800110a:	f412 2f70 	tst.w	r2, #983040	; 0xf0000
 800110e:	d12e      	bne.n	800116e <HAL_ADC_Start+0x9a>
      CLEAR_BIT(hadc->State, HAL_ADC_STATE_MULTIMODE_SLAVE);
 8001110:	6aa2      	ldr	r2, [r4, #40]	; 0x28
 8001112:	f422 1280 	bic.w	r2, r2, #1048576	; 0x100000
 8001116:	62a2      	str	r2, [r4, #40]	; 0x28
      if (READ_BIT(hadc->Instance->CR1, ADC_CR1_JAUTO) != RESET)
 8001118:	685a      	ldr	r2, [r3, #4]
      if (ADC_MULTIMODE_AUTO_INJECTED(hadc))
 800111a:	0552      	lsls	r2, r2, #21
        ADC_STATE_CLR_SET(hadc->State, HAL_ADC_STATE_INJ_EOC, HAL_ADC_STATE_INJ_BUSY);
 800111c:	bf41      	itttt	mi
 800111e:	6aa2      	ldrmi	r2, [r4, #40]	; 0x28
 8001120:	f422 5240 	bicmi.w	r2, r2, #12288	; 0x3000
 8001124:	f442 5280 	orrmi.w	r2, r2, #4096	; 0x1000
 8001128:	62a2      	strmi	r2, [r4, #40]	; 0x28
    if (HAL_IS_BIT_SET(hadc->State, HAL_ADC_STATE_INJ_BUSY))
 800112a:	6aa2      	ldr	r2, [r4, #40]	; 0x28
 800112c:	f412 5280 	ands.w	r2, r2, #4096	; 0x1000
      CLEAR_BIT(hadc->ErrorCode, (HAL_ADC_ERROR_OVR | HAL_ADC_ERROR_DMA));         
 8001130:	bf1c      	itt	ne
 8001132:	6ae2      	ldrne	r2, [r4, #44]	; 0x2c
 8001134:	f022 0206 	bicne.w	r2, r2, #6
      ADC_CLEAR_ERRORCODE(hadc);
 8001138:	62e2      	str	r2, [r4, #44]	; 0x2c
    __HAL_UNLOCK(hadc);
 800113a:	2200      	movs	r2, #0
 800113c:	f884 2024 	strb.w	r2, [r4, #36]	; 0x24
    __HAL_ADC_CLEAR_FLAG(hadc, ADC_FLAG_EOC);
 8001140:	f06f 0202 	mvn.w	r2, #2
 8001144:	601a      	str	r2, [r3, #0]
    if (ADC_IS_SOFTWARE_START_REGULAR(hadc)      &&
 8001146:	689a      	ldr	r2, [r3, #8]
 8001148:	f402 2260 	and.w	r2, r2, #917504	; 0xe0000
 800114c:	f5b2 2f60 	cmp.w	r2, #917504	; 0xe0000
 8001150:	d113      	bne.n	800117a <HAL_ADC_Start+0xa6>
 8001152:	4a0f      	ldr	r2, [pc, #60]	; (8001190 <HAL_ADC_Start+0xbc>)
 8001154:	4293      	cmp	r3, r2
 8001156:	d105      	bne.n	8001164 <HAL_ADC_Start+0x90>
        ADC_NONMULTIMODE_OR_MULTIMODEMASTER(hadc)  )
 8001158:	f5a2 6280 	sub.w	r2, r2, #1024	; 0x400
 800115c:	6852      	ldr	r2, [r2, #4]
    if (ADC_IS_SOFTWARE_START_REGULAR(hadc)      &&
 800115e:	f412 2f70 	tst.w	r2, #983040	; 0xf0000
 8001162:	d10a      	bne.n	800117a <HAL_ADC_Start+0xa6>
      SET_BIT(hadc->Instance->CR2, (ADC_CR2_SWSTART | ADC_CR2_EXTTRIG));
 8001164:	689a      	ldr	r2, [r3, #8]
 8001166:	f442 02a0 	orr.w	r2, r2, #5242880	; 0x500000
      SET_BIT(hadc->Instance->CR2, ADC_CR2_EXTTRIG);
 800116a:	609a      	str	r2, [r3, #8]
 800116c:	bd10      	pop	{r4, pc}
      SET_BIT(hadc->State, HAL_ADC_STATE_MULTIMODE_SLAVE);
 800116e:	6aa2      	ldr	r2, [r4, #40]	; 0x28
 8001170:	f442 1280 	orr.w	r2, r2, #1048576	; 0x100000
 8001174:	62a2      	str	r2, [r4, #40]	; 0x28
      if (ADC_MULTIMODE_AUTO_INJECTED(hadc))
 8001176:	684a      	ldr	r2, [r1, #4]
 8001178:	e7cf      	b.n	800111a <HAL_ADC_Start+0x46>
      SET_BIT(hadc->Instance->CR2, ADC_CR2_EXTTRIG);
 800117a:	689a      	ldr	r2, [r3, #8]
 800117c:	f442 1280 	orr.w	r2, r2, #1048576	; 0x100000
 8001180:	e7f3      	b.n	800116a <HAL_ADC_Start+0x96>
    __HAL_UNLOCK(hadc);
 8001182:	2300      	movs	r3, #0
 8001184:	f884 3024 	strb.w	r3, [r4, #36]	; 0x24
 8001188:	bd10      	pop	{r4, pc}
  __HAL_LOCK(hadc);
 800118a:	2002      	movs	r0, #2
}
 800118c:	bd10      	pop	{r4, pc}
 800118e:	bf00      	nop
 8001190:	40012800 	.word	0x40012800
 8001194:	40012400 	.word	0x40012400

08001198 <ADC_ConversionStop_Disable>:
  *         stopped to disable the ADC.
  * @param  hadc: ADC handle
  * @retval HAL status.
  */
HAL_StatusTypeDef ADC_ConversionStop_Disable(ADC_HandleTypeDef* hadc)
{
 8001198:	b538      	push	{r3, r4, r5, lr}
  uint32_t tickstart = 0U;
  
  /* Verification if ADC is not already disabled */
  if (ADC_IS_ENABLE(hadc) != RESET)
 800119a:	6803      	ldr	r3, [r0, #0]
{
 800119c:	4604      	mov	r4, r0
  if (ADC_IS_ENABLE(hadc) != RESET)
 800119e:	689a      	ldr	r2, [r3, #8]
 80011a0:	07d2      	lsls	r2, r2, #31
 80011a2:	d401      	bmi.n	80011a8 <ADC_ConversionStop_Disable+0x10>
      }
    }
  }
  
  /* Return HAL status */
  return HAL_OK;
 80011a4:	2000      	movs	r0, #0
 80011a6:	bd38      	pop	{r3, r4, r5, pc}
    __HAL_ADC_DISABLE(hadc);
 80011a8:	689a      	ldr	r2, [r3, #8]
 80011aa:	f022 0201 	bic.w	r2, r2, #1
 80011ae:	609a      	str	r2, [r3, #8]
    tickstart = HAL_GetTick();
 80011b0:	f7ff feb8 	bl	8000f24 <HAL_GetTick>
 80011b4:	4605      	mov	r5, r0
    while(ADC_IS_ENABLE(hadc) != RESET)
 80011b6:	6823      	ldr	r3, [r4, #0]
 80011b8:	689b      	ldr	r3, [r3, #8]
 80011ba:	07db      	lsls	r3, r3, #31
 80011bc:	d5f2      	bpl.n	80011a4 <ADC_ConversionStop_Disable+0xc>
      if((HAL_GetTick() - tickstart) > ADC_DISABLE_TIMEOUT)
 80011be:	f7ff feb1 	bl	8000f24 <HAL_GetTick>
 80011c2:	1b40      	subs	r0, r0, r5
 80011c4:	2802      	cmp	r0, #2
 80011c6:	d9f6      	bls.n	80011b6 <ADC_ConversionStop_Disable+0x1e>
        SET_BIT(hadc->State, HAL_ADC_STATE_ERROR_INTERNAL);
 80011c8:	6aa3      	ldr	r3, [r4, #40]	; 0x28
        SET_BIT(hadc->ErrorCode, HAL_ADC_ERROR_INTERNAL);
 80011ca:	2001      	movs	r0, #1
        SET_BIT(hadc->State, HAL_ADC_STATE_ERROR_INTERNAL);
 80011cc:	f043 0310 	orr.w	r3, r3, #16
 80011d0:	62a3      	str	r3, [r4, #40]	; 0x28
        SET_BIT(hadc->ErrorCode, HAL_ADC_ERROR_INTERNAL);
 80011d2:	6ae3      	ldr	r3, [r4, #44]	; 0x2c
 80011d4:	f043 0301 	orr.w	r3, r3, #1
 80011d8:	62e3      	str	r3, [r4, #44]	; 0x2c
 80011da:	bd38      	pop	{r3, r4, r5, pc}

080011dc <HAL_ADC_Init>:
{
 80011dc:	b570      	push	{r4, r5, r6, lr}
  if(hadc == NULL)
 80011de:	4604      	mov	r4, r0
 80011e0:	2800      	cmp	r0, #0
 80011e2:	d071      	beq.n	80012c8 <HAL_ADC_Init+0xec>
  if (hadc->State == HAL_ADC_STATE_RESET)
 80011e4:	6a83      	ldr	r3, [r0, #40]	; 0x28
 80011e6:	b923      	cbnz	r3, 80011f2 <HAL_ADC_Init+0x16>
    ADC_CLEAR_ERRORCODE(hadc);
 80011e8:	62c3      	str	r3, [r0, #44]	; 0x2c
    hadc->Lock = HAL_UNLOCKED;
 80011ea:	f880 3024 	strb.w	r3, [r0, #36]	; 0x24
    HAL_ADC_MspInit(hadc);
 80011ee:	f002 fe65 	bl	8003ebc <HAL_ADC_MspInit>
  tmp_hal_status = ADC_ConversionStop_Disable(hadc);
 80011f2:	4620      	mov	r0, r4
 80011f4:	f7ff ffd0 	bl	8001198 <ADC_ConversionStop_Disable>
  if (HAL_IS_BIT_CLR(hadc->State, HAL_ADC_STATE_ERROR_INTERNAL) &&
 80011f8:	6aa3      	ldr	r3, [r4, #40]	; 0x28
 80011fa:	f013 0f10 	tst.w	r3, #16
    ADC_STATE_CLR_SET(hadc->State,
 80011fe:	6aa3      	ldr	r3, [r4, #40]	; 0x28
  if (HAL_IS_BIT_CLR(hadc->State, HAL_ADC_STATE_ERROR_INTERNAL) &&
 8001200:	d164      	bne.n	80012cc <HAL_ADC_Init+0xf0>
 8001202:	2800      	cmp	r0, #0
 8001204:	d162      	bne.n	80012cc <HAL_ADC_Init+0xf0>
    tmp_cr2 |= (hadc->Init.DataAlign                               |
 8001206:	69e1      	ldr	r1, [r4, #28]
    ADC_STATE_CLR_SET(hadc->State,
 8001208:	f423 5388 	bic.w	r3, r3, #4352	; 0x1100
    tmp_cr2 |= (hadc->Init.DataAlign                               |
 800120c:	6862      	ldr	r2, [r4, #4]
    ADC_STATE_CLR_SET(hadc->State,
 800120e:	f023 0302 	bic.w	r3, r3, #2
 8001212:	f043 0302 	orr.w	r3, r3, #2
    tmp_cr2 |= (hadc->Init.DataAlign                               |
 8001216:	430a      	orrs	r2, r1
    tmp_cr1 |= (ADC_CR1_SCAN_SET(hadc->Init.ScanConvMode));
 8001218:	68a1      	ldr	r1, [r4, #8]
    ADC_STATE_CLR_SET(hadc->State,
 800121a:	62a3      	str	r3, [r4, #40]	; 0x28
                ADC_CR2_CONTINUOUS(hadc->Init.ContinuousConvMode)   );
 800121c:	68e3      	ldr	r3, [r4, #12]
    tmp_cr1 |= (ADC_CR1_SCAN_SET(hadc->Init.ScanConvMode));
 800121e:	f5b1 7f80 	cmp.w	r1, #256	; 0x100
                ADC_CFGR_EXTSEL(hadc, hadc->Init.ExternalTrigConv) |
 8001222:	ea42 0243 	orr.w	r2, r2, r3, lsl #1
    tmp_cr1 |= (ADC_CR1_SCAN_SET(hadc->Init.ScanConvMode));
 8001226:	d038      	beq.n	800129a <HAL_ADC_Init+0xbe>
 8001228:	2901      	cmp	r1, #1
 800122a:	bf14      	ite	ne
 800122c:	4606      	movne	r6, r0
 800122e:	f44f 7680 	moveq.w	r6, #256	; 0x100
    if (hadc->Init.DiscontinuousConvMode == ENABLE)
 8001232:	6965      	ldr	r5, [r4, #20]
 8001234:	2d01      	cmp	r5, #1
 8001236:	d107      	bne.n	8001248 <HAL_ADC_Init+0x6c>
      if (hadc->Init.ContinuousConvMode == DISABLE)
 8001238:	2b00      	cmp	r3, #0
 800123a:	d130      	bne.n	800129e <HAL_ADC_Init+0xc2>
        SET_BIT(tmp_cr1, ADC_CR1_DISCEN                                            |
 800123c:	69a3      	ldr	r3, [r4, #24]
 800123e:	3b01      	subs	r3, #1
 8001240:	ea46 3543 	orr.w	r5, r6, r3, lsl #13
 8001244:	f445 6600 	orr.w	r6, r5, #2048	; 0x800
      MODIFY_REG(hadc->Instance->CR1,
 8001248:	6823      	ldr	r3, [r4, #0]
    if (ADC_CR1_SCAN_SET(hadc->Init.ScanConvMode) == ADC_SCAN_ENABLE)
 800124a:	f5b1 7f80 	cmp.w	r1, #256	; 0x100
      MODIFY_REG(hadc->Instance->CR1,
 800124e:	685d      	ldr	r5, [r3, #4]
 8001250:	f425 4569 	bic.w	r5, r5, #59648	; 0xe900
 8001254:	ea45 0506 	orr.w	r5, r5, r6
 8001258:	605d      	str	r5, [r3, #4]
      MODIFY_REG(hadc->Instance->CR2,
 800125a:	689e      	ldr	r6, [r3, #8]
 800125c:	4d1d      	ldr	r5, [pc, #116]	; (80012d4 <HAL_ADC_Init+0xf8>)
 800125e:	ea05 0506 	and.w	r5, r5, r6
 8001262:	ea45 0502 	orr.w	r5, r5, r2
 8001266:	609d      	str	r5, [r3, #8]
    if (ADC_CR1_SCAN_SET(hadc->Init.ScanConvMode) == ADC_SCAN_ENABLE)
 8001268:	d001      	beq.n	800126e <HAL_ADC_Init+0x92>
 800126a:	2901      	cmp	r1, #1
 800126c:	d120      	bne.n	80012b0 <HAL_ADC_Init+0xd4>
      tmp_sqr1 = ADC_SQR1_L_SHIFT(hadc->Init.NbrOfConversion);
 800126e:	6921      	ldr	r1, [r4, #16]
 8001270:	3901      	subs	r1, #1
 8001272:	0509      	lsls	r1, r1, #20
    MODIFY_REG(hadc->Instance->SQR1,
 8001274:	6add      	ldr	r5, [r3, #44]	; 0x2c
 8001276:	f425 0570 	bic.w	r5, r5, #15728640	; 0xf00000
 800127a:	4329      	orrs	r1, r5
 800127c:	62d9      	str	r1, [r3, #44]	; 0x2c
    if (READ_BIT(hadc->Instance->CR2, ~(ADC_CR2_ADON | ADC_CR2_DMA |
 800127e:	6899      	ldr	r1, [r3, #8]
 8001280:	4b15      	ldr	r3, [pc, #84]	; (80012d8 <HAL_ADC_Init+0xfc>)
 8001282:	400b      	ands	r3, r1
 8001284:	429a      	cmp	r2, r3
 8001286:	d115      	bne.n	80012b4 <HAL_ADC_Init+0xd8>
      ADC_CLEAR_ERRORCODE(hadc);
 8001288:	2300      	movs	r3, #0
 800128a:	62e3      	str	r3, [r4, #44]	; 0x2c
      ADC_STATE_CLR_SET(hadc->State,
 800128c:	6aa3      	ldr	r3, [r4, #40]	; 0x28
 800128e:	f023 0303 	bic.w	r3, r3, #3
 8001292:	f043 0301 	orr.w	r3, r3, #1
 8001296:	62a3      	str	r3, [r4, #40]	; 0x28
 8001298:	bd70      	pop	{r4, r5, r6, pc}
    tmp_cr1 |= (ADC_CR1_SCAN_SET(hadc->Init.ScanConvMode));
 800129a:	460e      	mov	r6, r1
 800129c:	e7c9      	b.n	8001232 <HAL_ADC_Init+0x56>
        SET_BIT(hadc->State, HAL_ADC_STATE_ERROR_CONFIG);
 800129e:	6aa3      	ldr	r3, [r4, #40]	; 0x28
 80012a0:	f043 0320 	orr.w	r3, r3, #32
 80012a4:	62a3      	str	r3, [r4, #40]	; 0x28
        SET_BIT(hadc->ErrorCode, HAL_ADC_ERROR_INTERNAL);
 80012a6:	6ae3      	ldr	r3, [r4, #44]	; 0x2c
 80012a8:	f043 0301 	orr.w	r3, r3, #1
 80012ac:	62e3      	str	r3, [r4, #44]	; 0x2c
 80012ae:	e7cb      	b.n	8001248 <HAL_ADC_Init+0x6c>
  uint32_t tmp_sqr1 = 0U;
 80012b0:	2100      	movs	r1, #0
 80012b2:	e7df      	b.n	8001274 <HAL_ADC_Init+0x98>
      ADC_STATE_CLR_SET(hadc->State,
 80012b4:	6aa3      	ldr	r3, [r4, #40]	; 0x28
 80012b6:	f023 0312 	bic.w	r3, r3, #18
 80012ba:	f043 0310 	orr.w	r3, r3, #16
 80012be:	62a3      	str	r3, [r4, #40]	; 0x28
      SET_BIT(hadc->ErrorCode, HAL_ADC_ERROR_INTERNAL);
 80012c0:	6ae3      	ldr	r3, [r4, #44]	; 0x2c
 80012c2:	f043 0301 	orr.w	r3, r3, #1
 80012c6:	62e3      	str	r3, [r4, #44]	; 0x2c
    return HAL_ERROR;
 80012c8:	2001      	movs	r0, #1
}
 80012ca:	bd70      	pop	{r4, r5, r6, pc}
    SET_BIT(hadc->State, HAL_ADC_STATE_ERROR_INTERNAL);
 80012cc:	f043 0310 	orr.w	r3, r3, #16
 80012d0:	62a3      	str	r3, [r4, #40]	; 0x28
 80012d2:	e7f9      	b.n	80012c8 <HAL_ADC_Init+0xec>
 80012d4:	ffe1f7fd 	.word	0xffe1f7fd
 80012d8:	ff1f0efe 	.word	0xff1f0efe

080012dc <HAL_CAN_Init>:
  * @param  hcan: pointer to a CAN_HandleTypeDef structure that contains
  *         the configuration information for the specified CAN.  
  * @retval HAL status
  */
HAL_StatusTypeDef HAL_CAN_Init(CAN_HandleTypeDef* hcan)
{
 80012dc:	b570      	push	{r4, r5, r6, lr}
  uint32_t status = CAN_INITSTATUS_FAILED;  /* Default init status */
  uint32_t tickstart = 0U;
  uint32_t tmp_mcr = 0U;
  
  /* Check CAN handle */
  if(hcan == NULL)
 80012de:	4604      	mov	r4, r0
 80012e0:	2800      	cmp	r0, #0
 80012e2:	d069      	beq.n	80013b8 <HAL_CAN_Init+0xdc>
  assert_param(IS_CAN_SJW(hcan->Init.SJW));
  assert_param(IS_CAN_BS1(hcan->Init.BS1));
  assert_param(IS_CAN_BS2(hcan->Init.BS2));
  assert_param(IS_CAN_PRESCALER(hcan->Init.Prescaler));
  
  if(hcan->State == HAL_CAN_STATE_RESET)
 80012e4:	f890 303c 	ldrb.w	r3, [r0, #60]	; 0x3c
 80012e8:	f003 02ff 	and.w	r2, r3, #255	; 0xff
 80012ec:	b91b      	cbnz	r3, 80012f6 <HAL_CAN_Init+0x1a>
  {
    /* Allocate lock resource and initialize it */
    hcan->Lock = HAL_UNLOCKED;
 80012ee:	f880 203d 	strb.w	r2, [r0, #61]	; 0x3d
    /* Init the low level hardware */
    HAL_CAN_MspInit(hcan);
 80012f2:	f002 fe13 	bl	8003f1c <HAL_CAN_MspInit>
  }
  
  /* Initialize the CAN state*/
  hcan->State = HAL_CAN_STATE_BUSY;
 80012f6:	2302      	movs	r3, #2
 80012f8:	f884 303c 	strb.w	r3, [r4, #60]	; 0x3c
  
  /* Exit from sleep mode */
  CLEAR_BIT(hcan->Instance->MCR, CAN_MCR_SLEEP);
 80012fc:	6823      	ldr	r3, [r4, #0]
 80012fe:	681a      	ldr	r2, [r3, #0]
 8001300:	f022 0202 	bic.w	r2, r2, #2
 8001304:	601a      	str	r2, [r3, #0]

  /* Request initialisation */
  SET_BIT(hcan->Instance->MCR, CAN_MCR_INRQ);
 8001306:	681a      	ldr	r2, [r3, #0]
 8001308:	f042 0201 	orr.w	r2, r2, #1
 800130c:	601a      	str	r2, [r3, #0]

  /* Get timeout */
  tickstart = HAL_GetTick();   
 800130e:	f7ff fe09 	bl	8000f24 <HAL_GetTick>
 8001312:	4606      	mov	r6, r0
  
  /* Wait the acknowledge */
  while(HAL_IS_BIT_CLR(hcan->Instance->MSR, CAN_MSR_INAK))
 8001314:	6822      	ldr	r2, [r4, #0]
 8001316:	6855      	ldr	r5, [r2, #4]
 8001318:	f015 0501 	ands.w	r5, r5, #1
 800131c:	d04e      	beq.n	80013bc <HAL_CAN_Init+0xe0>
      return HAL_TIMEOUT;
    }
  }

  /* Check acknowledge */
  if ((hcan->Instance->MSR & CAN_MSR_INAK) == CAN_MSR_INAK)
 800131e:	6853      	ldr	r3, [r2, #4]
 8001320:	07d9      	lsls	r1, r3, #31
 8001322:	d546      	bpl.n	80013b2 <HAL_CAN_Init+0xd6>
  {
    /* Set the time triggered communication mode */
    if (hcan->Init.TTCM == ENABLE)
 8001324:	69a3      	ldr	r3, [r4, #24]
    {
      CLEAR_BIT(tmp_mcr, CAN_MCR_TTCM);
    }

    /* Set the automatic bus-off management */
    if (hcan->Init.ABOM == ENABLE)
 8001326:	69e1      	ldr	r1, [r4, #28]
      CLEAR_BIT(tmp_mcr, CAN_MCR_TTCM);
 8001328:	2b01      	cmp	r3, #1
 800132a:	bf0c      	ite	eq
 800132c:	2380      	moveq	r3, #128	; 0x80
 800132e:	2300      	movne	r3, #0
    if (hcan->Init.ABOM == ENABLE)
 8001330:	2901      	cmp	r1, #1
    {
      CLEAR_BIT(tmp_mcr, CAN_MCR_ABOM);
    }

    /* Set the automatic wake-up mode */
    if (hcan->Init.AWUM == ENABLE)
 8001332:	6a21      	ldr	r1, [r4, #32]
      SET_BIT(tmp_mcr, CAN_MCR_ABOM);
 8001334:	bf0c      	ite	eq
 8001336:	f043 0340 	orreq.w	r3, r3, #64	; 0x40
      CLEAR_BIT(tmp_mcr, CAN_MCR_ABOM);
 800133a:	f023 0340 	bicne.w	r3, r3, #64	; 0x40
    if (hcan->Init.AWUM == ENABLE)
 800133e:	2901      	cmp	r1, #1
    else
    {
      CLEAR_BIT(tmp_mcr, CAN_MCR_AWUM);
    }
    /* Set the no automatic retransmission */
    if (hcan->Init.NART == ENABLE)
 8001340:	6a61      	ldr	r1, [r4, #36]	; 0x24
      SET_BIT(tmp_mcr, CAN_MCR_AWUM);
 8001342:	bf0c      	ite	eq
 8001344:	f043 0320 	orreq.w	r3, r3, #32
      CLEAR_BIT(tmp_mcr, CAN_MCR_AWUM);
 8001348:	f023 0320 	bicne.w	r3, r3, #32
    if (hcan->Init.NART == ENABLE)
 800134c:	2901      	cmp	r1, #1
    {
      CLEAR_BIT(tmp_mcr, CAN_MCR_NART);
    }

    /* Set the receive FIFO locked mode */
    if (hcan->Init.RFLM == ENABLE)
 800134e:	6aa1      	ldr	r1, [r4, #40]	; 0x28
      SET_BIT(tmp_mcr, CAN_MCR_NART);
 8001350:	bf0c      	ite	eq
 8001352:	f043 0310 	orreq.w	r3, r3, #16
      CLEAR_BIT(tmp_mcr, CAN_MCR_NART);
 8001356:	f023 0310 	bicne.w	r3, r3, #16
    if (hcan->Init.RFLM == ENABLE)
 800135a:	2901      	cmp	r1, #1
    else
    {
      CLEAR_BIT(tmp_mcr, CAN_MCR_RFLM);
    }
    /* Set the transmit FIFO priority */
    if (hcan->Init.TXFP == ENABLE)
 800135c:	6ae1      	ldr	r1, [r4, #44]	; 0x2c
      SET_BIT(tmp_mcr, CAN_MCR_RFLM);
 800135e:	bf0c      	ite	eq
 8001360:	f043 0308 	orreq.w	r3, r3, #8
      CLEAR_BIT(tmp_mcr, CAN_MCR_RFLM);
 8001364:	f023 0308 	bicne.w	r3, r3, #8
    if (hcan->Init.TXFP == ENABLE)
 8001368:	2901      	cmp	r1, #1
    {
      CLEAR_BIT(tmp_mcr, CAN_MCR_TXFP);
    }
    
    /* Update register MCR */
    MODIFY_REG(hcan->Instance->MCR,
 800136a:	6811      	ldr	r1, [r2, #0]
      SET_BIT(tmp_mcr, CAN_MCR_TXFP);
 800136c:	bf0c      	ite	eq
 800136e:	f043 0304 	orreq.w	r3, r3, #4
      CLEAR_BIT(tmp_mcr, CAN_MCR_TXFP);
 8001372:	f023 0304 	bicne.w	r3, r3, #4
    MODIFY_REG(hcan->Instance->MCR,
 8001376:	f021 01fc 	bic.w	r1, r1, #252	; 0xfc
 800137a:	430b      	orrs	r3, r1
 800137c:	6013      	str	r3, [r2, #0]
               CAN_MCR_RFLM |
               CAN_MCR_TXFP,
               tmp_mcr);
    
    /* Set the bit timing register */
    WRITE_REG(hcan->Instance->BTR, (uint32_t)(hcan->Init.Mode           |
 800137e:	68e1      	ldr	r1, [r4, #12]
 8001380:	68a3      	ldr	r3, [r4, #8]
 8001382:	430b      	orrs	r3, r1
 8001384:	6921      	ldr	r1, [r4, #16]
 8001386:	430b      	orrs	r3, r1
 8001388:	6961      	ldr	r1, [r4, #20]
 800138a:	430b      	orrs	r3, r1
 800138c:	6861      	ldr	r1, [r4, #4]
 800138e:	3901      	subs	r1, #1
 8001390:	430b      	orrs	r3, r1
 8001392:	61d3      	str	r3, [r2, #28]
                                              hcan->Init.BS1            |
                                              hcan->Init.BS2            |
                                              (hcan->Init.Prescaler - 1U)));

    /* Request leave initialisation */
    CLEAR_BIT(hcan->Instance->MCR, CAN_MCR_INRQ);
 8001394:	6813      	ldr	r3, [r2, #0]
 8001396:	f023 0301 	bic.w	r3, r3, #1
 800139a:	6013      	str	r3, [r2, #0]

    /* Get timeout */
    tickstart = HAL_GetTick();   
 800139c:	f7ff fdc2 	bl	8000f24 <HAL_GetTick>
 80013a0:	4605      	mov	r5, r0
   
    /* Wait the acknowledge */
    while(HAL_IS_BIT_SET(hcan->Instance->MSR, CAN_MSR_INAK))
 80013a2:	6823      	ldr	r3, [r4, #0]
 80013a4:	685a      	ldr	r2, [r3, #4]
 80013a6:	07d2      	lsls	r2, r2, #31
 80013a8:	d413      	bmi.n	80013d2 <HAL_CAN_Init+0xf6>
        return HAL_TIMEOUT;
      }
    }

    /* Check acknowledged */
    if(HAL_IS_BIT_CLR(hcan->Instance->MSR, CAN_MSR_INAK))
 80013aa:	6858      	ldr	r0, [r3, #4]
 80013ac:	f010 0001 	ands.w	r0, r0, #1
 80013b0:	d01b      	beq.n	80013ea <HAL_CAN_Init+0x10e>
    return HAL_OK;
  }
  else
  {
    /* Initialize the CAN state */
    hcan->State = HAL_CAN_STATE_ERROR;
 80013b2:	2304      	movs	r3, #4
 80013b4:	f884 303c 	strb.w	r3, [r4, #60]	; 0x3c

    /* Return function status */
    return HAL_ERROR;
 80013b8:	2001      	movs	r0, #1
 80013ba:	bd70      	pop	{r4, r5, r6, pc}
    if((HAL_GetTick()-tickstart) > CAN_TIMEOUT_VALUE)
 80013bc:	f7ff fdb2 	bl	8000f24 <HAL_GetTick>
 80013c0:	1b80      	subs	r0, r0, r6
 80013c2:	280a      	cmp	r0, #10
 80013c4:	d9a6      	bls.n	8001314 <HAL_CAN_Init+0x38>
      hcan->State= HAL_CAN_STATE_TIMEOUT;
 80013c6:	2003      	movs	r0, #3
      __HAL_UNLOCK(hcan);
 80013c8:	f884 503d 	strb.w	r5, [r4, #61]	; 0x3d
      hcan->State= HAL_CAN_STATE_TIMEOUT;
 80013cc:	f884 003c 	strb.w	r0, [r4, #60]	; 0x3c
      return HAL_TIMEOUT;
 80013d0:	bd70      	pop	{r4, r5, r6, pc}
      if((HAL_GetTick()-tickstart) > CAN_TIMEOUT_VALUE)
 80013d2:	f7ff fda7 	bl	8000f24 <HAL_GetTick>
 80013d6:	1b40      	subs	r0, r0, r5
 80013d8:	280a      	cmp	r0, #10
 80013da:	d9e2      	bls.n	80013a2 <HAL_CAN_Init+0xc6>
        hcan->State= HAL_CAN_STATE_TIMEOUT;
 80013dc:	2003      	movs	r0, #3
        __HAL_UNLOCK(hcan);
 80013de:	2300      	movs	r3, #0
        hcan->State= HAL_CAN_STATE_TIMEOUT;
 80013e0:	f884 003c 	strb.w	r0, [r4, #60]	; 0x3c
        __HAL_UNLOCK(hcan);
 80013e4:	f884 303d 	strb.w	r3, [r4, #61]	; 0x3d
        return HAL_TIMEOUT;
 80013e8:	bd70      	pop	{r4, r5, r6, pc}
    hcan->State = HAL_CAN_STATE_READY;
 80013ea:	2301      	movs	r3, #1
    hcan->ErrorCode = HAL_CAN_ERROR_NONE;
 80013ec:	6420      	str	r0, [r4, #64]	; 0x40
    hcan->State = HAL_CAN_STATE_READY;
 80013ee:	f884 303c 	strb.w	r3, [r4, #60]	; 0x3c
  }
}
 80013f2:	bd70      	pop	{r4, r5, r6, pc}

080013f4 <HAL_NVIC_SetPriorityGrouping>:
__STATIC_INLINE void NVIC_SetPriorityGrouping(uint32_t PriorityGroup)
{
  uint32_t reg_value;
  uint32_t PriorityGroupTmp = (PriorityGroup & (uint32_t)0x07UL);             /* only values 0..7 are used          */

  reg_value  =  SCB->AIRCR;                                                   /* read old register configuration    */
 80013f4:	4a07      	ldr	r2, [pc, #28]	; (8001414 <HAL_NVIC_SetPriorityGrouping+0x20>)
  reg_value &= ~((uint32_t)(SCB_AIRCR_VECTKEY_Msk | SCB_AIRCR_PRIGROUP_Msk)); /* clear bits to change               */
  reg_value  =  (reg_value                                   |
                ((uint32_t)0x5FAUL << SCB_AIRCR_VECTKEY_Pos) |
                (PriorityGroupTmp << 8U)                      );              /* Insert write key and priorty group */
 80013f6:	0200      	lsls	r0, r0, #8
  reg_value  =  SCB->AIRCR;                                                   /* read old register configuration    */
 80013f8:	68d3      	ldr	r3, [r2, #12]
                (PriorityGroupTmp << 8U)                      );              /* Insert write key and priorty group */
 80013fa:	f400 60e0 	and.w	r0, r0, #1792	; 0x700
  reg_value &= ~((uint32_t)(SCB_AIRCR_VECTKEY_Msk | SCB_AIRCR_PRIGROUP_Msk)); /* clear bits to change               */
 80013fe:	f423 63e0 	bic.w	r3, r3, #1792	; 0x700
 8001402:	041b      	lsls	r3, r3, #16
 8001404:	0c1b      	lsrs	r3, r3, #16
 8001406:	f043 63bf 	orr.w	r3, r3, #100139008	; 0x5f80000
 800140a:	f443 3300 	orr.w	r3, r3, #131072	; 0x20000
  reg_value  =  (reg_value                                   |
 800140e:	4303      	orrs	r3, r0
  SCB->AIRCR =  reg_value;
 8001410:	60d3      	str	r3, [r2, #12]
 8001412:	4770      	bx	lr
 8001414:	e000ed00 	.word	0xe000ed00

08001418 <HAL_NVIC_SetPriority>:
  \details Reads the priority grouping field from the NVIC Interrupt Controller.
  \return                Priority grouping field (SCB->AIRCR [10:8] PRIGROUP field).
 */
__STATIC_INLINE uint32_t NVIC_GetPriorityGrouping(void)
{
  return ((uint32_t)((SCB->AIRCR & SCB_AIRCR_PRIGROUP_Msk) >> SCB_AIRCR_PRIGROUP_Pos));
 8001418:	4b17      	ldr	r3, [pc, #92]	; (8001478 <HAL_NVIC_SetPriority+0x60>)
  *         This parameter can be a value between 0 and 15
  *         A lower priority value indicates a higher priority.          
  * @retval None
  */
void HAL_NVIC_SetPriority(IRQn_Type IRQn, uint32_t PreemptPriority, uint32_t SubPriority)
{ 
 800141a:	b530      	push	{r4, r5, lr}
 800141c:	68dc      	ldr	r4, [r3, #12]
 800141e:	f3c4 2402 	ubfx	r4, r4, #8, #3
{
  uint32_t PriorityGroupTmp = (PriorityGroup & (uint32_t)0x07UL);   /* only values 0..7 are used          */
  uint32_t PreemptPriorityBits;
  uint32_t SubPriorityBits;

  PreemptPriorityBits = ((7UL - PriorityGroupTmp) > (uint32_t)(__NVIC_PRIO_BITS)) ? (uint32_t)(__NVIC_PRIO_BITS) : (uint32_t)(7UL - PriorityGroupTmp);
 8001422:	f1c4 0307 	rsb	r3, r4, #7
  SubPriorityBits     = ((PriorityGroupTmp + (uint32_t)(__NVIC_PRIO_BITS)) < (uint32_t)7UL) ? (uint32_t)0UL : (uint32_t)((PriorityGroupTmp - 7UL) + (uint32_t)(__NVIC_PRIO_BITS));
 8001426:	1d25      	adds	r5, r4, #4
  PreemptPriorityBits = ((7UL - PriorityGroupTmp) > (uint32_t)(__NVIC_PRIO_BITS)) ? (uint32_t)(__NVIC_PRIO_BITS) : (uint32_t)(7UL - PriorityGroupTmp);
 8001428:	2b04      	cmp	r3, #4
 800142a:	bf28      	it	cs
 800142c:	2304      	movcs	r3, #4
  SubPriorityBits     = ((PriorityGroupTmp + (uint32_t)(__NVIC_PRIO_BITS)) < (uint32_t)7UL) ? (uint32_t)0UL : (uint32_t)((PriorityGroupTmp - 7UL) + (uint32_t)(__NVIC_PRIO_BITS));
 800142e:	2d06      	cmp	r5, #6

  return (
           ((PreemptPriority & (uint32_t)((1UL << (PreemptPriorityBits)) - 1UL)) << SubPriorityBits) |
 8001430:	f04f 0501 	mov.w	r5, #1
  SubPriorityBits     = ((PriorityGroupTmp + (uint32_t)(__NVIC_PRIO_BITS)) < (uint32_t)7UL) ? (uint32_t)0UL : (uint32_t)((PriorityGroupTmp - 7UL) + (uint32_t)(__NVIC_PRIO_BITS));
 8001434:	bf98      	it	ls
 8001436:	2400      	movls	r4, #0
           ((PreemptPriority & (uint32_t)((1UL << (PreemptPriorityBits)) - 1UL)) << SubPriorityBits) |
 8001438:	fa05 f303 	lsl.w	r3, r5, r3
 800143c:	f103 33ff 	add.w	r3, r3, #4294967295
  SubPriorityBits     = ((PriorityGroupTmp + (uint32_t)(__NVIC_PRIO_BITS)) < (uint32_t)7UL) ? (uint32_t)0UL : (uint32_t)((PriorityGroupTmp - 7UL) + (uint32_t)(__NVIC_PRIO_BITS));
 8001440:	bf88      	it	hi
 8001442:	3c03      	subhi	r4, #3
           ((PreemptPriority & (uint32_t)((1UL << (PreemptPriorityBits)) - 1UL)) << SubPriorityBits) |
 8001444:	4019      	ands	r1, r3
 8001446:	40a1      	lsls	r1, r4
           ((SubPriority     & (uint32_t)((1UL << (SubPriorityBits    )) - 1UL)))
 8001448:	fa05 f404 	lsl.w	r4, r5, r4
 800144c:	3c01      	subs	r4, #1
 800144e:	4022      	ands	r2, r4
  if ((int32_t)(IRQn) < 0)
 8001450:	2800      	cmp	r0, #0
           ((PreemptPriority & (uint32_t)((1UL << (PreemptPriorityBits)) - 1UL)) << SubPriorityBits) |
 8001452:	ea42 0201 	orr.w	r2, r2, r1
 8001456:	ea4f 1202 	mov.w	r2, r2, lsl #4
    NVIC->IP[((uint32_t)(int32_t)IRQn)]               = (uint8_t)((priority << (8U - __NVIC_PRIO_BITS)) & (uint32_t)0xFFUL);
 800145a:	bfaf      	iteee	ge
 800145c:	f100 4060 	addge.w	r0, r0, #3758096384	; 0xe0000000
    SCB->SHP[(((uint32_t)(int32_t)IRQn) & 0xFUL)-4UL] = (uint8_t)((priority << (8U - __NVIC_PRIO_BITS)) & (uint32_t)0xFFUL);
 8001460:	4b06      	ldrlt	r3, [pc, #24]	; (800147c <HAL_NVIC_SetPriority+0x64>)
 8001462:	f000 000f 	andlt.w	r0, r0, #15
 8001466:	b2d2      	uxtblt	r2, r2
    NVIC->IP[((uint32_t)(int32_t)IRQn)]               = (uint8_t)((priority << (8U - __NVIC_PRIO_BITS)) & (uint32_t)0xFFUL);
 8001468:	bfa5      	ittet	ge
 800146a:	b2d2      	uxtbge	r2, r2
 800146c:	f500 4061 	addge.w	r0, r0, #57600	; 0xe100
    SCB->SHP[(((uint32_t)(int32_t)IRQn) & 0xFUL)-4UL] = (uint8_t)((priority << (8U - __NVIC_PRIO_BITS)) & (uint32_t)0xFFUL);
 8001470:	541a      	strblt	r2, [r3, r0]
    NVIC->IP[((uint32_t)(int32_t)IRQn)]               = (uint8_t)((priority << (8U - __NVIC_PRIO_BITS)) & (uint32_t)0xFFUL);
 8001472:	f880 2300 	strbge.w	r2, [r0, #768]	; 0x300
 8001476:	bd30      	pop	{r4, r5, pc}
 8001478:	e000ed00 	.word	0xe000ed00
 800147c:	e000ed14 	.word	0xe000ed14

08001480 <HAL_NVIC_EnableIRQ>:
  NVIC->ISER[(((uint32_t)(int32_t)IRQn) >> 5UL)] = (uint32_t)(1UL << (((uint32_t)(int32_t)IRQn) & 0x1FUL));
 8001480:	2301      	movs	r3, #1
 8001482:	0942      	lsrs	r2, r0, #5
 8001484:	f000 001f 	and.w	r0, r0, #31
 8001488:	fa03 f000 	lsl.w	r0, r3, r0
 800148c:	4b01      	ldr	r3, [pc, #4]	; (8001494 <HAL_NVIC_EnableIRQ+0x14>)
 800148e:	f843 0022 	str.w	r0, [r3, r2, lsl #2]
 8001492:	4770      	bx	lr
 8001494:	e000e100 	.word	0xe000e100

08001498 <HAL_SYSTICK_Config>:
           function <b>SysTick_Config</b> is not included. In this case, the file <b><i>device</i>.h</b>
           must contain a vendor-specific implementation of this function.
 */
__STATIC_INLINE uint32_t SysTick_Config(uint32_t ticks)
{
  if ((ticks - 1UL) > SysTick_LOAD_RELOAD_Msk)
 8001498:	3801      	subs	r0, #1
 800149a:	f1b0 7f80 	cmp.w	r0, #16777216	; 0x1000000
 800149e:	d20a      	bcs.n	80014b6 <HAL_SYSTICK_Config+0x1e>
    SCB->SHP[(((uint32_t)(int32_t)IRQn) & 0xFUL)-4UL] = (uint8_t)((priority << (8U - __NVIC_PRIO_BITS)) & (uint32_t)0xFFUL);
 80014a0:	21f0      	movs	r1, #240	; 0xf0
  {
    return (1UL);                                                   /* Reload value impossible */
  }

  SysTick->LOAD  = (uint32_t)(ticks - 1UL);                         /* set reload register */
 80014a2:	4b06      	ldr	r3, [pc, #24]	; (80014bc <HAL_SYSTICK_Config+0x24>)
    SCB->SHP[(((uint32_t)(int32_t)IRQn) & 0xFUL)-4UL] = (uint8_t)((priority << (8U - __NVIC_PRIO_BITS)) & (uint32_t)0xFFUL);
 80014a4:	4a06      	ldr	r2, [pc, #24]	; (80014c0 <HAL_SYSTICK_Config+0x28>)
  SysTick->LOAD  = (uint32_t)(ticks - 1UL);                         /* set reload register */
 80014a6:	6058      	str	r0, [r3, #4]
    SCB->SHP[(((uint32_t)(int32_t)IRQn) & 0xFUL)-4UL] = (uint8_t)((priority << (8U - __NVIC_PRIO_BITS)) & (uint32_t)0xFFUL);
 80014a8:	f882 1023 	strb.w	r1, [r2, #35]	; 0x23
  NVIC_SetPriority (SysTick_IRQn, (1UL << __NVIC_PRIO_BITS) - 1UL); /* set Priority for Systick Interrupt */
  SysTick->VAL   = 0UL;                                             /* Load the SysTick Counter Value */
 80014ac:	2000      	movs	r0, #0
  SysTick->CTRL  = SysTick_CTRL_CLKSOURCE_Msk |
 80014ae:	2207      	movs	r2, #7
  SysTick->VAL   = 0UL;                                             /* Load the SysTick Counter Value */
 80014b0:	6098      	str	r0, [r3, #8]
  SysTick->CTRL  = SysTick_CTRL_CLKSOURCE_Msk |
 80014b2:	601a      	str	r2, [r3, #0]
 80014b4:	4770      	bx	lr
    return (1UL);                                                   /* Reload value impossible */
 80014b6:	2001      	movs	r0, #1
  *                  - 1  Function failed.
  */
uint32_t HAL_SYSTICK_Config(uint32_t TicksNumb)
{
   return SysTick_Config(TicksNumb);
}
 80014b8:	4770      	bx	lr
 80014ba:	bf00      	nop
 80014bc:	e000e010 	.word	0xe000e010
 80014c0:	e000ed00 	.word	0xe000ed00

080014c4 <HAL_SYSTICK_CLKSourceConfig>:
  *             @arg SYSTICK_CLKSOURCE_HCLK_DIV8: AHB clock divided by 8 selected as SysTick clock source.
  *             @arg SYSTICK_CLKSOURCE_HCLK: AHB clock selected as SysTick clock source.
  * @retval None
  */
void HAL_SYSTICK_CLKSourceConfig(uint32_t CLKSource)
{
 80014c4:	4b04      	ldr	r3, [pc, #16]	; (80014d8 <HAL_SYSTICK_CLKSourceConfig+0x14>)
  /* Check the parameters */
  assert_param(IS_SYSTICK_CLK_SOURCE(CLKSource));
  if (CLKSource == SYSTICK_CLKSOURCE_HCLK)
 80014c6:	2804      	cmp	r0, #4
  {
    SysTick->CTRL |= SYSTICK_CLKSOURCE_HCLK;
 80014c8:	681a      	ldr	r2, [r3, #0]
 80014ca:	bf0c      	ite	eq
 80014cc:	f042 0204 	orreq.w	r2, r2, #4
  }
  else
  {
    SysTick->CTRL &= ~SYSTICK_CLKSOURCE_HCLK;
 80014d0:	f022 0204 	bicne.w	r2, r2, #4
 80014d4:	601a      	str	r2, [r3, #0]
 80014d6:	4770      	bx	lr
 80014d8:	e000e010 	.word	0xe000e010

080014dc <HAL_SYSTICK_IRQHandler>:
/**
  * @brief  This function handles SYSTICK interrupt request.
  * @retval None
  */
void HAL_SYSTICK_IRQHandler(void)
{
 80014dc:	b508      	push	{r3, lr}
  HAL_SYSTICK_Callback();
 80014de:	f002 fa81 	bl	80039e4 <HAL_SYSTICK_Callback>
 80014e2:	bd08      	pop	{r3, pc}

080014e4 <HAL_DMA_Init>:
  * @param  hdma: Pointer to a DMA_HandleTypeDef structure that contains
  *               the configuration information for the specified DMA Channel.
  * @retval HAL status
  */
HAL_StatusTypeDef HAL_DMA_Init(DMA_HandleTypeDef *hdma)
{
 80014e4:	b510      	push	{r4, lr}
  uint32_t tmp = 0U;

  /* Check the DMA handle allocation */
  if(hdma == NULL)
 80014e6:	b350      	cbz	r0, 800153e <HAL_DMA_Init+0x5a>
    hdma->ChannelIndex = (((uint32_t)hdma->Instance - (uint32_t)DMA2_Channel1) / ((uint32_t)DMA2_Channel2 - (uint32_t)DMA2_Channel1)) << 2;
    hdma->DmaBaseAddress = DMA2;
  }
#else
  /* DMA1 */
  hdma->ChannelIndex = (((uint32_t)hdma->Instance - (uint32_t)DMA1_Channel1) / ((uint32_t)DMA1_Channel2 - (uint32_t)DMA1_Channel1)) << 2;
 80014e8:	2214      	movs	r2, #20
 80014ea:	6801      	ldr	r1, [r0, #0]
 80014ec:	4b15      	ldr	r3, [pc, #84]	; (8001544 <HAL_DMA_Init+0x60>)
  tmp &= ((uint32_t)~(DMA_CCR_PL    | DMA_CCR_MSIZE  | DMA_CCR_PSIZE  | \
                      DMA_CCR_MINC  | DMA_CCR_PINC   | DMA_CCR_CIRC   | \
                      DMA_CCR_DIR));

  /* Prepare the DMA Channel configuration */
  tmp |=  hdma->Init.Direction        |
 80014ee:	6884      	ldr	r4, [r0, #8]
  hdma->ChannelIndex = (((uint32_t)hdma->Instance - (uint32_t)DMA1_Channel1) / ((uint32_t)DMA1_Channel2 - (uint32_t)DMA1_Channel1)) << 2;
 80014f0:	440b      	add	r3, r1
 80014f2:	fbb3 f3f2 	udiv	r3, r3, r2
 80014f6:	009b      	lsls	r3, r3, #2
 80014f8:	6403      	str	r3, [r0, #64]	; 0x40
  hdma->DmaBaseAddress = DMA1;
 80014fa:	4b13      	ldr	r3, [pc, #76]	; (8001548 <HAL_DMA_Init+0x64>)
  tmp = hdma->Instance->CCR;
 80014fc:	680a      	ldr	r2, [r1, #0]
  hdma->DmaBaseAddress = DMA1;
 80014fe:	63c3      	str	r3, [r0, #60]	; 0x3c
  tmp |=  hdma->Init.Direction        |
 8001500:	6843      	ldr	r3, [r0, #4]
  tmp &= ((uint32_t)~(DMA_CCR_PL    | DMA_CCR_MSIZE  | DMA_CCR_PSIZE  | \
 8001502:	f422 527f 	bic.w	r2, r2, #16320	; 0x3fc0
  tmp |=  hdma->Init.Direction        |
 8001506:	4323      	orrs	r3, r4
          hdma->Init.PeriphInc           | hdma->Init.MemInc           |
 8001508:	68c4      	ldr	r4, [r0, #12]
  tmp &= ((uint32_t)~(DMA_CCR_PL    | DMA_CCR_MSIZE  | DMA_CCR_PSIZE  | \
 800150a:	f022 0230 	bic.w	r2, r2, #48	; 0x30
          hdma->Init.PeriphInc           | hdma->Init.MemInc           |
 800150e:	4323      	orrs	r3, r4
 8001510:	6904      	ldr	r4, [r0, #16]
 8001512:	4323      	orrs	r3, r4
          hdma->Init.PeriphDataAlignment | hdma->Init.MemDataAlignment |
 8001514:	6944      	ldr	r4, [r0, #20]
 8001516:	4323      	orrs	r3, r4
 8001518:	6984      	ldr	r4, [r0, #24]
 800151a:	4323      	orrs	r3, r4
          hdma->Init.Mode                | hdma->Init.Priority;
 800151c:	69c4      	ldr	r4, [r0, #28]
 800151e:	4323      	orrs	r3, r4
  tmp |=  hdma->Init.Direction        |
 8001520:	4313      	orrs	r3, r2

  /* Write to DMA Channel CR register */
  hdma->Instance->CCR = tmp;
 8001522:	600b      	str	r3, [r1, #0]

  /* Initialise the error code */
  hdma->ErrorCode = HAL_DMA_ERROR_NONE;

  /* Initialize the DMA state*/
  hdma->State = HAL_DMA_STATE_READY;
 8001524:	2201      	movs	r2, #1
  hdma->XferCpltCallback = NULL;
 8001526:	2300      	movs	r3, #0
  hdma->State = HAL_DMA_STATE_READY;
 8001528:	f880 2021 	strb.w	r2, [r0, #33]	; 0x21
  hdma->XferCpltCallback = NULL;
 800152c:	6283      	str	r3, [r0, #40]	; 0x28
  hdma->XferHalfCpltCallback = NULL;
 800152e:	62c3      	str	r3, [r0, #44]	; 0x2c
  hdma->XferErrorCallback = NULL;
 8001530:	6303      	str	r3, [r0, #48]	; 0x30
  hdma->XferAbortCallback = NULL;
 8001532:	6343      	str	r3, [r0, #52]	; 0x34
  hdma->ErrorCode = HAL_DMA_ERROR_NONE;
 8001534:	6383      	str	r3, [r0, #56]	; 0x38
  /* Allocate lock resource and initialize it */
  hdma->Lock = HAL_UNLOCKED;
 8001536:	f880 3020 	strb.w	r3, [r0, #32]
  
  return HAL_OK;
 800153a:	4618      	mov	r0, r3
 800153c:	bd10      	pop	{r4, pc}
    return HAL_ERROR;
 800153e:	2001      	movs	r0, #1
}
 8001540:	bd10      	pop	{r4, pc}
 8001542:	bf00      	nop
 8001544:	bffdfff8 	.word	0xbffdfff8
 8001548:	40020000 	.word	0x40020000

0800154c <HAL_DMA_Start_IT>:
  * @param  DstAddress: The destination memory Buffer address
  * @param  DataLength: The length of data to be transferred from source to destination
  * @retval HAL status
  */
HAL_StatusTypeDef HAL_DMA_Start_IT(DMA_HandleTypeDef *hdma, uint32_t SrcAddress, uint32_t DstAddress, uint32_t DataLength)
{
 800154c:	b5f0      	push	{r4, r5, r6, r7, lr}

  /* Check the parameters */
  assert_param(IS_DMA_BUFFER_SIZE(DataLength));

  /* Process locked */
  __HAL_LOCK(hdma);
 800154e:	f890 4020 	ldrb.w	r4, [r0, #32]
 8001552:	2c01      	cmp	r4, #1
 8001554:	d035      	beq.n	80015c2 <HAL_DMA_Start_IT+0x76>
 8001556:	2401      	movs	r4, #1
  
  if(HAL_DMA_STATE_READY == hdma->State)
 8001558:	f890 5021 	ldrb.w	r5, [r0, #33]	; 0x21
  __HAL_LOCK(hdma);
 800155c:	f880 4020 	strb.w	r4, [r0, #32]
  if(HAL_DMA_STATE_READY == hdma->State)
 8001560:	42a5      	cmp	r5, r4
 8001562:	f04f 0600 	mov.w	r6, #0
 8001566:	f04f 0402 	mov.w	r4, #2
 800156a:	d128      	bne.n	80015be <HAL_DMA_Start_IT+0x72>
  {
    /* Change DMA peripheral state */
    hdma->State = HAL_DMA_STATE_BUSY;
 800156c:	f880 4021 	strb.w	r4, [r0, #33]	; 0x21
    hdma->ErrorCode = HAL_DMA_ERROR_NONE;
    
    /* Disable the peripheral */
    __HAL_DMA_DISABLE(hdma);
 8001570:	6804      	ldr	r4, [r0, #0]
    hdma->ErrorCode = HAL_DMA_ERROR_NONE;
 8001572:	6386      	str	r6, [r0, #56]	; 0x38
    __HAL_DMA_DISABLE(hdma);
 8001574:	6826      	ldr	r6, [r4, #0]
  * @retval HAL status
  */
static void DMA_SetConfig(DMA_HandleTypeDef *hdma, uint32_t SrcAddress, uint32_t DstAddress, uint32_t DataLength)
{
  /* Clear all flags */
  hdma->DmaBaseAddress->IFCR = (DMA_ISR_GIF1 << hdma->ChannelIndex);
 8001576:	6c07      	ldr	r7, [r0, #64]	; 0x40
    __HAL_DMA_DISABLE(hdma);
 8001578:	f026 0601 	bic.w	r6, r6, #1
 800157c:	6026      	str	r6, [r4, #0]
  hdma->DmaBaseAddress->IFCR = (DMA_ISR_GIF1 << hdma->ChannelIndex);
 800157e:	6bc6      	ldr	r6, [r0, #60]	; 0x3c
 8001580:	40bd      	lsls	r5, r7
 8001582:	6075      	str	r5, [r6, #4]

  /* Configure DMA Channel data length */
  hdma->Instance->CNDTR = DataLength;
 8001584:	6063      	str	r3, [r4, #4]

  /* Memory to Peripheral */
  if((hdma->Init.Direction) == DMA_MEMORY_TO_PERIPH)
 8001586:	6843      	ldr	r3, [r0, #4]
 8001588:	6805      	ldr	r5, [r0, #0]
 800158a:	2b10      	cmp	r3, #16
    if(NULL != hdma->XferHalfCpltCallback)
 800158c:	6ac3      	ldr	r3, [r0, #44]	; 0x2c
  {
    /* Configure DMA Channel destination address */
    hdma->Instance->CPAR = DstAddress;
 800158e:	bf0b      	itete	eq
 8001590:	60a2      	streq	r2, [r4, #8]
  }
  /* Peripheral to Memory */
  else
  {
    /* Configure DMA Channel source address */
    hdma->Instance->CPAR = SrcAddress;
 8001592:	60a1      	strne	r1, [r4, #8]
    hdma->Instance->CMAR = SrcAddress;
 8001594:	60e1      	streq	r1, [r4, #12]

    /* Configure DMA Channel destination address */
    hdma->Instance->CMAR = DstAddress;
 8001596:	60e2      	strne	r2, [r4, #12]
    if(NULL != hdma->XferHalfCpltCallback)
 8001598:	b14b      	cbz	r3, 80015ae <HAL_DMA_Start_IT+0x62>
      __HAL_DMA_ENABLE_IT(hdma, (DMA_IT_TC | DMA_IT_HT | DMA_IT_TE));
 800159a:	6823      	ldr	r3, [r4, #0]
 800159c:	f043 030e 	orr.w	r3, r3, #14
      __HAL_DMA_ENABLE_IT(hdma, (DMA_IT_TC | DMA_IT_TE));
 80015a0:	6023      	str	r3, [r4, #0]
    __HAL_DMA_ENABLE(hdma);
 80015a2:	682b      	ldr	r3, [r5, #0]
  HAL_StatusTypeDef status = HAL_OK;
 80015a4:	2000      	movs	r0, #0
    __HAL_DMA_ENABLE(hdma);
 80015a6:	f043 0301 	orr.w	r3, r3, #1
 80015aa:	602b      	str	r3, [r5, #0]
 80015ac:	bdf0      	pop	{r4, r5, r6, r7, pc}
      __HAL_DMA_DISABLE_IT(hdma, DMA_IT_HT);
 80015ae:	6823      	ldr	r3, [r4, #0]
 80015b0:	f023 0304 	bic.w	r3, r3, #4
 80015b4:	6023      	str	r3, [r4, #0]
      __HAL_DMA_ENABLE_IT(hdma, (DMA_IT_TC | DMA_IT_TE));
 80015b6:	6823      	ldr	r3, [r4, #0]
 80015b8:	f043 030a 	orr.w	r3, r3, #10
 80015bc:	e7f0      	b.n	80015a0 <HAL_DMA_Start_IT+0x54>
    __HAL_UNLOCK(hdma); 
 80015be:	f880 6020 	strb.w	r6, [r0, #32]
  __HAL_LOCK(hdma);
 80015c2:	2002      	movs	r0, #2
}
 80015c4:	bdf0      	pop	{r4, r5, r6, r7, pc}
	...

080015c8 <HAL_DMA_Abort_IT>:
  if(HAL_DMA_STATE_BUSY != hdma->State)
 80015c8:	f890 3021 	ldrb.w	r3, [r0, #33]	; 0x21
{  
 80015cc:	b510      	push	{r4, lr}
  if(HAL_DMA_STATE_BUSY != hdma->State)
 80015ce:	2b02      	cmp	r3, #2
 80015d0:	d003      	beq.n	80015da <HAL_DMA_Abort_IT+0x12>
    hdma->ErrorCode = HAL_DMA_ERROR_NO_XFER;
 80015d2:	2304      	movs	r3, #4
 80015d4:	6383      	str	r3, [r0, #56]	; 0x38
    status = HAL_ERROR;
 80015d6:	2001      	movs	r0, #1
 80015d8:	bd10      	pop	{r4, pc}
    __HAL_DMA_DISABLE_IT(hdma, (DMA_IT_TC | DMA_IT_HT | DMA_IT_TE));
 80015da:	6803      	ldr	r3, [r0, #0]
 80015dc:	681a      	ldr	r2, [r3, #0]
 80015de:	f022 020e 	bic.w	r2, r2, #14
 80015e2:	601a      	str	r2, [r3, #0]
    __HAL_DMA_DISABLE(hdma);
 80015e4:	681a      	ldr	r2, [r3, #0]
 80015e6:	f022 0201 	bic.w	r2, r2, #1
 80015ea:	601a      	str	r2, [r3, #0]
    __HAL_DMA_CLEAR_FLAG(hdma, __HAL_DMA_GET_GI_FLAG_INDEX(hdma));
 80015ec:	4a18      	ldr	r2, [pc, #96]	; (8001650 <HAL_DMA_Abort_IT+0x88>)
 80015ee:	4293      	cmp	r3, r2
 80015f0:	d01f      	beq.n	8001632 <HAL_DMA_Abort_IT+0x6a>
 80015f2:	3214      	adds	r2, #20
 80015f4:	4293      	cmp	r3, r2
 80015f6:	d01e      	beq.n	8001636 <HAL_DMA_Abort_IT+0x6e>
 80015f8:	3214      	adds	r2, #20
 80015fa:	4293      	cmp	r3, r2
 80015fc:	d01d      	beq.n	800163a <HAL_DMA_Abort_IT+0x72>
 80015fe:	3214      	adds	r2, #20
 8001600:	4293      	cmp	r3, r2
 8001602:	d01d      	beq.n	8001640 <HAL_DMA_Abort_IT+0x78>
 8001604:	3214      	adds	r2, #20
 8001606:	4293      	cmp	r3, r2
 8001608:	d01d      	beq.n	8001646 <HAL_DMA_Abort_IT+0x7e>
 800160a:	3214      	adds	r2, #20
 800160c:	4293      	cmp	r3, r2
 800160e:	bf0c      	ite	eq
 8001610:	f44f 1380 	moveq.w	r3, #1048576	; 0x100000
 8001614:	f04f 7380 	movne.w	r3, #16777216	; 0x1000000
 8001618:	4a0e      	ldr	r2, [pc, #56]	; (8001654 <HAL_DMA_Abort_IT+0x8c>)
    __HAL_UNLOCK(hdma);
 800161a:	2400      	movs	r4, #0
    __HAL_DMA_CLEAR_FLAG(hdma, __HAL_DMA_GET_GI_FLAG_INDEX(hdma));
 800161c:	6053      	str	r3, [r2, #4]
    hdma->State = HAL_DMA_STATE_READY;
 800161e:	2301      	movs	r3, #1
 8001620:	f880 3021 	strb.w	r3, [r0, #33]	; 0x21
    if(hdma->XferAbortCallback != NULL)
 8001624:	6b43      	ldr	r3, [r0, #52]	; 0x34
    __HAL_UNLOCK(hdma);
 8001626:	f880 4020 	strb.w	r4, [r0, #32]
    if(hdma->XferAbortCallback != NULL)
 800162a:	b17b      	cbz	r3, 800164c <HAL_DMA_Abort_IT+0x84>
      hdma->XferAbortCallback(hdma);
 800162c:	4798      	blx	r3
  HAL_StatusTypeDef status = HAL_OK;
 800162e:	4620      	mov	r0, r4
 8001630:	bd10      	pop	{r4, pc}
    __HAL_DMA_CLEAR_FLAG(hdma, __HAL_DMA_GET_GI_FLAG_INDEX(hdma));
 8001632:	2301      	movs	r3, #1
 8001634:	e7f0      	b.n	8001618 <HAL_DMA_Abort_IT+0x50>
 8001636:	2310      	movs	r3, #16
 8001638:	e7ee      	b.n	8001618 <HAL_DMA_Abort_IT+0x50>
 800163a:	f44f 7380 	mov.w	r3, #256	; 0x100
 800163e:	e7eb      	b.n	8001618 <HAL_DMA_Abort_IT+0x50>
 8001640:	f44f 5380 	mov.w	r3, #4096	; 0x1000
 8001644:	e7e8      	b.n	8001618 <HAL_DMA_Abort_IT+0x50>
 8001646:	f44f 3380 	mov.w	r3, #65536	; 0x10000
 800164a:	e7e5      	b.n	8001618 <HAL_DMA_Abort_IT+0x50>
  HAL_StatusTypeDef status = HAL_OK;
 800164c:	4618      	mov	r0, r3
}
 800164e:	bd10      	pop	{r4, pc}
 8001650:	40020008 	.word	0x40020008
 8001654:	40020000 	.word	0x40020000

08001658 <HAL_DMA_IRQHandler>:
{
 8001658:	b470      	push	{r4, r5, r6}
  if (((flag_it & (DMA_FLAG_HT1 << hdma->ChannelIndex)) != RESET) && ((source_it & DMA_IT_HT) != RESET))
 800165a:	2504      	movs	r5, #4
  uint32_t flag_it = hdma->DmaBaseAddress->ISR;
 800165c:	6bc6      	ldr	r6, [r0, #60]	; 0x3c
  if (((flag_it & (DMA_FLAG_HT1 << hdma->ChannelIndex)) != RESET) && ((source_it & DMA_IT_HT) != RESET))
 800165e:	6c02      	ldr	r2, [r0, #64]	; 0x40
  uint32_t flag_it = hdma->DmaBaseAddress->ISR;
 8001660:	6834      	ldr	r4, [r6, #0]
  uint32_t source_it = hdma->Instance->CCR;
 8001662:	6803      	ldr	r3, [r0, #0]
  if (((flag_it & (DMA_FLAG_HT1 << hdma->ChannelIndex)) != RESET) && ((source_it & DMA_IT_HT) != RESET))
 8001664:	4095      	lsls	r5, r2
 8001666:	4225      	tst	r5, r4
  uint32_t source_it = hdma->Instance->CCR;
 8001668:	6819      	ldr	r1, [r3, #0]
  if (((flag_it & (DMA_FLAG_HT1 << hdma->ChannelIndex)) != RESET) && ((source_it & DMA_IT_HT) != RESET))
 800166a:	d032      	beq.n	80016d2 <HAL_DMA_IRQHandler+0x7a>
 800166c:	074d      	lsls	r5, r1, #29
 800166e:	d530      	bpl.n	80016d2 <HAL_DMA_IRQHandler+0x7a>
    if((hdma->Instance->CCR & DMA_CCR_CIRC) == 0U)
 8001670:	681a      	ldr	r2, [r3, #0]
 8001672:	0696      	lsls	r6, r2, #26
      __HAL_DMA_DISABLE_IT(hdma, DMA_IT_HT);
 8001674:	bf5e      	ittt	pl
 8001676:	681a      	ldrpl	r2, [r3, #0]
 8001678:	f022 0204 	bicpl.w	r2, r2, #4
 800167c:	601a      	strpl	r2, [r3, #0]
    __HAL_DMA_CLEAR_FLAG(hdma, __HAL_DMA_GET_HT_FLAG_INDEX(hdma));
 800167e:	4a3e      	ldr	r2, [pc, #248]	; (8001778 <HAL_DMA_IRQHandler+0x120>)
 8001680:	4293      	cmp	r3, r2
 8001682:	d019      	beq.n	80016b8 <HAL_DMA_IRQHandler+0x60>
 8001684:	3214      	adds	r2, #20
 8001686:	4293      	cmp	r3, r2
 8001688:	d018      	beq.n	80016bc <HAL_DMA_IRQHandler+0x64>
 800168a:	3214      	adds	r2, #20
 800168c:	4293      	cmp	r3, r2
 800168e:	d017      	beq.n	80016c0 <HAL_DMA_IRQHandler+0x68>
 8001690:	3214      	adds	r2, #20
 8001692:	4293      	cmp	r3, r2
 8001694:	d017      	beq.n	80016c6 <HAL_DMA_IRQHandler+0x6e>
 8001696:	3214      	adds	r2, #20
 8001698:	4293      	cmp	r3, r2
 800169a:	d017      	beq.n	80016cc <HAL_DMA_IRQHandler+0x74>
 800169c:	3214      	adds	r2, #20
 800169e:	4293      	cmp	r3, r2
 80016a0:	bf0c      	ite	eq
 80016a2:	f44f 0380 	moveq.w	r3, #4194304	; 0x400000
 80016a6:	f04f 6380 	movne.w	r3, #67108864	; 0x4000000
 80016aa:	4a34      	ldr	r2, [pc, #208]	; (800177c <HAL_DMA_IRQHandler+0x124>)
 80016ac:	6053      	str	r3, [r2, #4]
    if(hdma->XferHalfCpltCallback != NULL)
 80016ae:	6ac3      	ldr	r3, [r0, #44]	; 0x2c
    if (hdma->XferErrorCallback != NULL)
 80016b0:	2b00      	cmp	r3, #0
 80016b2:	d05e      	beq.n	8001772 <HAL_DMA_IRQHandler+0x11a>
}
 80016b4:	bc70      	pop	{r4, r5, r6}
      hdma->XferErrorCallback(hdma);
 80016b6:	4718      	bx	r3
    __HAL_DMA_CLEAR_FLAG(hdma, __HAL_DMA_GET_HT_FLAG_INDEX(hdma));
 80016b8:	2304      	movs	r3, #4
 80016ba:	e7f6      	b.n	80016aa <HAL_DMA_IRQHandler+0x52>
 80016bc:	2340      	movs	r3, #64	; 0x40
 80016be:	e7f4      	b.n	80016aa <HAL_DMA_IRQHandler+0x52>
 80016c0:	f44f 6380 	mov.w	r3, #1024	; 0x400
 80016c4:	e7f1      	b.n	80016aa <HAL_DMA_IRQHandler+0x52>
 80016c6:	f44f 4380 	mov.w	r3, #16384	; 0x4000
 80016ca:	e7ee      	b.n	80016aa <HAL_DMA_IRQHandler+0x52>
 80016cc:	f44f 2380 	mov.w	r3, #262144	; 0x40000
 80016d0:	e7eb      	b.n	80016aa <HAL_DMA_IRQHandler+0x52>
  else if (((flag_it & (DMA_FLAG_TC1 << hdma->ChannelIndex)) != RESET) && ((source_it & DMA_IT_TC) != RESET))
 80016d2:	2502      	movs	r5, #2
 80016d4:	4095      	lsls	r5, r2
 80016d6:	4225      	tst	r5, r4
 80016d8:	d035      	beq.n	8001746 <HAL_DMA_IRQHandler+0xee>
 80016da:	078d      	lsls	r5, r1, #30
 80016dc:	d533      	bpl.n	8001746 <HAL_DMA_IRQHandler+0xee>
    if((hdma->Instance->CCR & DMA_CCR_CIRC) == 0U)
 80016de:	681a      	ldr	r2, [r3, #0]
 80016e0:	0694      	lsls	r4, r2, #26
 80016e2:	d406      	bmi.n	80016f2 <HAL_DMA_IRQHandler+0x9a>
      __HAL_DMA_DISABLE_IT(hdma, DMA_IT_TE | DMA_IT_TC);  
 80016e4:	681a      	ldr	r2, [r3, #0]
 80016e6:	f022 020a 	bic.w	r2, r2, #10
 80016ea:	601a      	str	r2, [r3, #0]
      hdma->State = HAL_DMA_STATE_READY;
 80016ec:	2201      	movs	r2, #1
 80016ee:	f880 2021 	strb.w	r2, [r0, #33]	; 0x21
      __HAL_DMA_CLEAR_FLAG(hdma, __HAL_DMA_GET_TC_FLAG_INDEX(hdma));
 80016f2:	4a21      	ldr	r2, [pc, #132]	; (8001778 <HAL_DMA_IRQHandler+0x120>)
 80016f4:	4293      	cmp	r3, r2
 80016f6:	d019      	beq.n	800172c <HAL_DMA_IRQHandler+0xd4>
 80016f8:	3214      	adds	r2, #20
 80016fa:	4293      	cmp	r3, r2
 80016fc:	d018      	beq.n	8001730 <HAL_DMA_IRQHandler+0xd8>
 80016fe:	3214      	adds	r2, #20
 8001700:	4293      	cmp	r3, r2
 8001702:	d017      	beq.n	8001734 <HAL_DMA_IRQHandler+0xdc>
 8001704:	3214      	adds	r2, #20
 8001706:	4293      	cmp	r3, r2
 8001708:	d017      	beq.n	800173a <HAL_DMA_IRQHandler+0xe2>
 800170a:	3214      	adds	r2, #20
 800170c:	4293      	cmp	r3, r2
 800170e:	d017      	beq.n	8001740 <HAL_DMA_IRQHandler+0xe8>
 8001710:	3214      	adds	r2, #20
 8001712:	4293      	cmp	r3, r2
 8001714:	bf0c      	ite	eq
 8001716:	f44f 1300 	moveq.w	r3, #2097152	; 0x200000
 800171a:	f04f 7300 	movne.w	r3, #33554432	; 0x2000000
 800171e:	4a17      	ldr	r2, [pc, #92]	; (800177c <HAL_DMA_IRQHandler+0x124>)
 8001720:	6053      	str	r3, [r2, #4]
    __HAL_UNLOCK(hdma);
 8001722:	2300      	movs	r3, #0
 8001724:	f880 3020 	strb.w	r3, [r0, #32]
    if(hdma->XferCpltCallback != NULL)
 8001728:	6a83      	ldr	r3, [r0, #40]	; 0x28
 800172a:	e7c1      	b.n	80016b0 <HAL_DMA_IRQHandler+0x58>
      __HAL_DMA_CLEAR_FLAG(hdma, __HAL_DMA_GET_TC_FLAG_INDEX(hdma));
 800172c:	2302      	movs	r3, #2
 800172e:	e7f6      	b.n	800171e <HAL_DMA_IRQHandler+0xc6>
 8001730:	2320      	movs	r3, #32
 8001732:	e7f4      	b.n	800171e <HAL_DMA_IRQHandler+0xc6>
 8001734:	f44f 7300 	mov.w	r3, #512	; 0x200
 8001738:	e7f1      	b.n	800171e <HAL_DMA_IRQHandler+0xc6>
 800173a:	f44f 5300 	mov.w	r3, #8192	; 0x2000
 800173e:	e7ee      	b.n	800171e <HAL_DMA_IRQHandler+0xc6>
 8001740:	f44f 3300 	mov.w	r3, #131072	; 0x20000
 8001744:	e7eb      	b.n	800171e <HAL_DMA_IRQHandler+0xc6>
  else if (( RESET != (flag_it & (DMA_FLAG_TE1 << hdma->ChannelIndex))) && (RESET != (source_it & DMA_IT_TE)))
 8001746:	2508      	movs	r5, #8
 8001748:	4095      	lsls	r5, r2
 800174a:	4225      	tst	r5, r4
 800174c:	d011      	beq.n	8001772 <HAL_DMA_IRQHandler+0x11a>
 800174e:	0709      	lsls	r1, r1, #28
 8001750:	d50f      	bpl.n	8001772 <HAL_DMA_IRQHandler+0x11a>
    __HAL_DMA_DISABLE_IT(hdma, (DMA_IT_TC | DMA_IT_HT | DMA_IT_TE));
 8001752:	6819      	ldr	r1, [r3, #0]
 8001754:	f021 010e 	bic.w	r1, r1, #14
 8001758:	6019      	str	r1, [r3, #0]
    hdma->DmaBaseAddress->IFCR = (DMA_ISR_GIF1 << hdma->ChannelIndex);
 800175a:	2301      	movs	r3, #1
 800175c:	fa03 f202 	lsl.w	r2, r3, r2
 8001760:	6072      	str	r2, [r6, #4]
    hdma->ErrorCode = HAL_DMA_ERROR_TE;
 8001762:	6383      	str	r3, [r0, #56]	; 0x38
    hdma->State = HAL_DMA_STATE_READY;
 8001764:	f880 3021 	strb.w	r3, [r0, #33]	; 0x21
    __HAL_UNLOCK(hdma);
 8001768:	2300      	movs	r3, #0
 800176a:	f880 3020 	strb.w	r3, [r0, #32]
    if (hdma->XferErrorCallback != NULL)
 800176e:	6b03      	ldr	r3, [r0, #48]	; 0x30
 8001770:	e79e      	b.n	80016b0 <HAL_DMA_IRQHandler+0x58>
}
 8001772:	bc70      	pop	{r4, r5, r6}
 8001774:	4770      	bx	lr
 8001776:	bf00      	nop
 8001778:	40020008 	.word	0x40020008
 800177c:	40020000 	.word	0x40020000

08001780 <HAL_GPIO_Init>:
  * @param  GPIO_Init: pointer to a GPIO_InitTypeDef structure that contains
  *         the configuration information for the specified GPIO peripheral.
  * @retval None
  */
void HAL_GPIO_Init(GPIO_TypeDef  *GPIOx, GPIO_InitTypeDef *GPIO_Init)
{
 8001780:	e92d 4ff7 	stmdb	sp!, {r0, r1, r2, r4, r5, r6, r7, r8, r9, sl, fp, lr}
  uint32_t position;
  uint32_t ioposition = 0x00U;
  uint32_t iocurrent = 0x00U;
  uint32_t temp = 0x00U;
  uint32_t config = 0x00U;
 8001784:	2200      	movs	r2, #0
  assert_param(IS_GPIO_ALL_INSTANCE(GPIOx));
  assert_param(IS_GPIO_PIN(GPIO_Init->Pin));
  assert_param(IS_GPIO_MODE(GPIO_Init->Mode));

  /* Configure the port pins */
  for (position = 0U; position < GPIO_NUMBER; position++)
 8001786:	4616      	mov	r6, r2
 8001788:	4b65      	ldr	r3, [pc, #404]	; (8001920 <HAL_GPIO_Init+0x1a0>)
    {
      /* Check the Alternate function parameters */
      assert_param(IS_GPIO_AF_INSTANCE(GPIOx));

      /* Based on the required mode, filling config variable with MODEy[1:0] and CNFy[3:2] corresponding bits */
      switch (GPIO_Init->Mode)
 800178a:	f8df e1a4 	ldr.w	lr, [pc, #420]	; 8001930 <HAL_GPIO_Init+0x1b0>
 800178e:	f8df c1a4 	ldr.w	ip, [pc, #420]	; 8001934 <HAL_GPIO_Init+0x1b4>
    ioposition = (0x01U << position);
 8001792:	f04f 0801 	mov.w	r8, #1
    iocurrent = (uint32_t)(GPIO_Init->Pin) & ioposition;
 8001796:	680c      	ldr	r4, [r1, #0]
    ioposition = (0x01U << position);
 8001798:	fa08 f806 	lsl.w	r8, r8, r6
    iocurrent = (uint32_t)(GPIO_Init->Pin) & ioposition;
 800179c:	ea08 0404 	and.w	r4, r8, r4
    if (iocurrent == ioposition)
 80017a0:	45a0      	cmp	r8, r4
 80017a2:	d17f      	bne.n	80018a4 <HAL_GPIO_Init+0x124>
      switch (GPIO_Init->Mode)
 80017a4:	684d      	ldr	r5, [r1, #4]
 80017a6:	2d12      	cmp	r5, #18
 80017a8:	f000 80af 	beq.w	800190a <HAL_GPIO_Init+0x18a>
 80017ac:	f200 8088 	bhi.w	80018c0 <HAL_GPIO_Init+0x140>
 80017b0:	2d02      	cmp	r5, #2
 80017b2:	f000 80a7 	beq.w	8001904 <HAL_GPIO_Init+0x184>
 80017b6:	d87c      	bhi.n	80018b2 <HAL_GPIO_Init+0x132>
 80017b8:	2d00      	cmp	r5, #0
 80017ba:	f000 808e 	beq.w	80018da <HAL_GPIO_Init+0x15a>
 80017be:	2d01      	cmp	r5, #1
 80017c0:	f000 809e 	beq.w	8001900 <HAL_GPIO_Init+0x180>
       in order to address CRH or CRL register*/
      configregister = (iocurrent < GPIO_PIN_8) ? &GPIOx->CRL     : &GPIOx->CRH;
      registeroffset = (iocurrent < GPIO_PIN_8) ? (position << 2U) : ((position - 8U) << 2U);

      /* Apply the new configuration of the pin to the register */
      MODIFY_REG((*configregister), ((GPIO_CRL_MODE0 | GPIO_CRL_CNF0) << registeroffset), (config << registeroffset));
 80017c4:	f04f 090f 	mov.w	r9, #15
      configregister = (iocurrent < GPIO_PIN_8) ? &GPIOx->CRL     : &GPIOx->CRH;
 80017c8:	2cff      	cmp	r4, #255	; 0xff
 80017ca:	bf93      	iteet	ls
 80017cc:	4682      	movls	sl, r0
 80017ce:	f106 4580 	addhi.w	r5, r6, #1073741824	; 0x40000000
 80017d2:	3d08      	subhi	r5, #8
 80017d4:	f8d0 b000 	ldrls.w	fp, [r0]
 80017d8:	bf92      	itee	ls
 80017da:	00b5      	lslls	r5, r6, #2
 80017dc:	f8d0 b004 	ldrhi.w	fp, [r0, #4]
 80017e0:	00ad      	lslhi	r5, r5, #2
      MODIFY_REG((*configregister), ((GPIO_CRL_MODE0 | GPIO_CRL_CNF0) << registeroffset), (config << registeroffset));
 80017e2:	fa09 f805 	lsl.w	r8, r9, r5
 80017e6:	ea2b 0808 	bic.w	r8, fp, r8
 80017ea:	fa02 f505 	lsl.w	r5, r2, r5
      configregister = (iocurrent < GPIO_PIN_8) ? &GPIOx->CRL     : &GPIOx->CRH;
 80017ee:	bf88      	it	hi
 80017f0:	f100 0a04 	addhi.w	sl, r0, #4
      MODIFY_REG((*configregister), ((GPIO_CRL_MODE0 | GPIO_CRL_CNF0) << registeroffset), (config << registeroffset));
 80017f4:	ea48 0505 	orr.w	r5, r8, r5
 80017f8:	f8ca 5000 	str.w	r5, [sl]

      /*--------------------- EXTI Mode Configuration ------------------------*/
      /* Configure the External Interrupt or event for the current IO */
      if ((GPIO_Init->Mode & EXTI_MODE) == EXTI_MODE)
 80017fc:	f8d1 a004 	ldr.w	sl, [r1, #4]
 8001800:	f01a 5f80 	tst.w	sl, #268435456	; 0x10000000
 8001804:	d04e      	beq.n	80018a4 <HAL_GPIO_Init+0x124>
      {
        /* Enable AFIO Clock */
        __HAL_RCC_AFIO_CLK_ENABLE();
 8001806:	4d47      	ldr	r5, [pc, #284]	; (8001924 <HAL_GPIO_Init+0x1a4>)
 8001808:	4f46      	ldr	r7, [pc, #280]	; (8001924 <HAL_GPIO_Init+0x1a4>)
 800180a:	69ad      	ldr	r5, [r5, #24]
 800180c:	f026 0803 	bic.w	r8, r6, #3
 8001810:	f045 0501 	orr.w	r5, r5, #1
 8001814:	61bd      	str	r5, [r7, #24]
 8001816:	69bd      	ldr	r5, [r7, #24]
 8001818:	f108 4880 	add.w	r8, r8, #1073741824	; 0x40000000
 800181c:	f005 0501 	and.w	r5, r5, #1
 8001820:	9501      	str	r5, [sp, #4]
 8001822:	f508 3880 	add.w	r8, r8, #65536	; 0x10000
        temp = AFIO->EXTICR[position >> 2U];
        CLEAR_BIT(temp, (0x0FU) << (4U * (position & 0x03U)));
 8001826:	f006 0b03 	and.w	fp, r6, #3
        __HAL_RCC_AFIO_CLK_ENABLE();
 800182a:	9d01      	ldr	r5, [sp, #4]
        CLEAR_BIT(temp, (0x0FU) << (4U * (position & 0x03U)));
 800182c:	ea4f 0b8b 	mov.w	fp, fp, lsl #2
        temp = AFIO->EXTICR[position >> 2U];
 8001830:	f8d8 5008 	ldr.w	r5, [r8, #8]
        CLEAR_BIT(temp, (0x0FU) << (4U * (position & 0x03U)));
 8001834:	fa09 f90b 	lsl.w	r9, r9, fp
 8001838:	ea25 0909 	bic.w	r9, r5, r9
        SET_BIT(temp, (GPIO_GET_INDEX(GPIOx)) << (4U * (position & 0x03U)));
 800183c:	4d3a      	ldr	r5, [pc, #232]	; (8001928 <HAL_GPIO_Init+0x1a8>)
 800183e:	42a8      	cmp	r0, r5
 8001840:	d068      	beq.n	8001914 <HAL_GPIO_Init+0x194>
 8001842:	f505 6580 	add.w	r5, r5, #1024	; 0x400
 8001846:	42a8      	cmp	r0, r5
 8001848:	d066      	beq.n	8001918 <HAL_GPIO_Init+0x198>
 800184a:	f505 6580 	add.w	r5, r5, #1024	; 0x400
 800184e:	42a8      	cmp	r0, r5
 8001850:	d064      	beq.n	800191c <HAL_GPIO_Init+0x19c>
 8001852:	f505 6580 	add.w	r5, r5, #1024	; 0x400
 8001856:	42a8      	cmp	r0, r5
 8001858:	bf0c      	ite	eq
 800185a:	2503      	moveq	r5, #3
 800185c:	2504      	movne	r5, #4
 800185e:	fa05 f50b 	lsl.w	r5, r5, fp
 8001862:	ea45 0509 	orr.w	r5, r5, r9
        AFIO->EXTICR[position >> 2U] = temp;
 8001866:	f8c8 5008 	str.w	r5, [r8, #8]


        /* Configure the interrupt mask */
        if ((GPIO_Init->Mode & GPIO_MODE_IT) == GPIO_MODE_IT)
        {
          SET_BIT(EXTI->IMR, iocurrent);
 800186a:	681d      	ldr	r5, [r3, #0]
        if ((GPIO_Init->Mode & GPIO_MODE_IT) == GPIO_MODE_IT)
 800186c:	f41a 3f80 	tst.w	sl, #65536	; 0x10000
          SET_BIT(EXTI->IMR, iocurrent);
 8001870:	bf14      	ite	ne
 8001872:	4325      	orrne	r5, r4
        }
        else
        {
          CLEAR_BIT(EXTI->IMR, iocurrent);
 8001874:	43a5      	biceq	r5, r4
 8001876:	601d      	str	r5, [r3, #0]
        }

        /* Configure the event mask */
        if ((GPIO_Init->Mode & GPIO_MODE_EVT) == GPIO_MODE_EVT)
        {
          SET_BIT(EXTI->EMR, iocurrent);
 8001878:	685d      	ldr	r5, [r3, #4]
        if ((GPIO_Init->Mode & GPIO_MODE_EVT) == GPIO_MODE_EVT)
 800187a:	f41a 3f00 	tst.w	sl, #131072	; 0x20000
          SET_BIT(EXTI->EMR, iocurrent);
 800187e:	bf14      	ite	ne
 8001880:	4325      	orrne	r5, r4
        }
        else
        {
          CLEAR_BIT(EXTI->EMR, iocurrent);
 8001882:	43a5      	biceq	r5, r4
 8001884:	605d      	str	r5, [r3, #4]
        }

        /* Enable or disable the rising trigger */
        if ((GPIO_Init->Mode & RISING_EDGE) == RISING_EDGE)
        {
          SET_BIT(EXTI->RTSR, iocurrent);
 8001886:	689d      	ldr	r5, [r3, #8]
        if ((GPIO_Init->Mode & RISING_EDGE) == RISING_EDGE)
 8001888:	f41a 1f80 	tst.w	sl, #1048576	; 0x100000
          SET_BIT(EXTI->RTSR, iocurrent);
 800188c:	bf14      	ite	ne
 800188e:	4325      	orrne	r5, r4
        }
        else
        {
          CLEAR_BIT(EXTI->RTSR, iocurrent);
 8001890:	43a5      	biceq	r5, r4
 8001892:	609d      	str	r5, [r3, #8]
        }

        /* Enable or disable the falling trigger */
        if ((GPIO_Init->Mode & FALLING_EDGE) == FALLING_EDGE)
        {
          SET_BIT(EXTI->FTSR, iocurrent);
 8001894:	68dd      	ldr	r5, [r3, #12]
        if ((GPIO_Init->Mode & FALLING_EDGE) == FALLING_EDGE)
 8001896:	f41a 1f00 	tst.w	sl, #2097152	; 0x200000
          SET_BIT(EXTI->FTSR, iocurrent);
 800189a:	bf14      	ite	ne
 800189c:	432c      	orrne	r4, r5
        }
        else
        {
          CLEAR_BIT(EXTI->FTSR, iocurrent);
 800189e:	ea25 0404 	biceq.w	r4, r5, r4
 80018a2:	60dc      	str	r4, [r3, #12]
  for (position = 0U; position < GPIO_NUMBER; position++)
 80018a4:	3601      	adds	r6, #1
 80018a6:	2e10      	cmp	r6, #16
 80018a8:	f47f af73 	bne.w	8001792 <HAL_GPIO_Init+0x12>
        }
      }
    }
  }
}
 80018ac:	b003      	add	sp, #12
 80018ae:	e8bd 8ff0 	ldmia.w	sp!, {r4, r5, r6, r7, r8, r9, sl, fp, pc}
      switch (GPIO_Init->Mode)
 80018b2:	2d03      	cmp	r5, #3
 80018b4:	d022      	beq.n	80018fc <HAL_GPIO_Init+0x17c>
 80018b6:	2d11      	cmp	r5, #17
 80018b8:	d184      	bne.n	80017c4 <HAL_GPIO_Init+0x44>
          config = GPIO_Init->Speed + GPIO_CR_CNF_GP_OUTPUT_OD;
 80018ba:	68ca      	ldr	r2, [r1, #12]
 80018bc:	3204      	adds	r2, #4
          break;
 80018be:	e781      	b.n	80017c4 <HAL_GPIO_Init+0x44>
      switch (GPIO_Init->Mode)
 80018c0:	4f1a      	ldr	r7, [pc, #104]	; (800192c <HAL_GPIO_Init+0x1ac>)
 80018c2:	42bd      	cmp	r5, r7
 80018c4:	d009      	beq.n	80018da <HAL_GPIO_Init+0x15a>
 80018c6:	d812      	bhi.n	80018ee <HAL_GPIO_Init+0x16e>
 80018c8:	f8df 906c 	ldr.w	r9, [pc, #108]	; 8001938 <HAL_GPIO_Init+0x1b8>
 80018cc:	454d      	cmp	r5, r9
 80018ce:	d004      	beq.n	80018da <HAL_GPIO_Init+0x15a>
 80018d0:	f509 3980 	add.w	r9, r9, #65536	; 0x10000
 80018d4:	454d      	cmp	r5, r9
 80018d6:	f47f af75 	bne.w	80017c4 <HAL_GPIO_Init+0x44>
          if (GPIO_Init->Pull == GPIO_NOPULL)
 80018da:	688a      	ldr	r2, [r1, #8]
 80018dc:	b1c2      	cbz	r2, 8001910 <HAL_GPIO_Init+0x190>
          else if (GPIO_Init->Pull == GPIO_PULLUP)
 80018de:	2a01      	cmp	r2, #1
            GPIOx->BSRR = ioposition;
 80018e0:	bf0c      	ite	eq
 80018e2:	f8c0 8010 	streq.w	r8, [r0, #16]
            GPIOx->BRR = ioposition;
 80018e6:	f8c0 8014 	strne.w	r8, [r0, #20]
            config = GPIO_CR_MODE_INPUT + GPIO_CR_CNF_INPUT_PU_PD;
 80018ea:	2208      	movs	r2, #8
 80018ec:	e76a      	b.n	80017c4 <HAL_GPIO_Init+0x44>
      switch (GPIO_Init->Mode)
 80018ee:	4575      	cmp	r5, lr
 80018f0:	d0f3      	beq.n	80018da <HAL_GPIO_Init+0x15a>
 80018f2:	4565      	cmp	r5, ip
 80018f4:	d0f1      	beq.n	80018da <HAL_GPIO_Init+0x15a>
 80018f6:	f8df 9044 	ldr.w	r9, [pc, #68]	; 800193c <HAL_GPIO_Init+0x1bc>
 80018fa:	e7eb      	b.n	80018d4 <HAL_GPIO_Init+0x154>
          config = GPIO_CR_MODE_INPUT + GPIO_CR_CNF_ANALOG;
 80018fc:	2200      	movs	r2, #0
 80018fe:	e761      	b.n	80017c4 <HAL_GPIO_Init+0x44>
          config = GPIO_Init->Speed + GPIO_CR_CNF_GP_OUTPUT_PP;
 8001900:	68ca      	ldr	r2, [r1, #12]
          break;
 8001902:	e75f      	b.n	80017c4 <HAL_GPIO_Init+0x44>
          config = GPIO_Init->Speed + GPIO_CR_CNF_AF_OUTPUT_PP;
 8001904:	68ca      	ldr	r2, [r1, #12]
 8001906:	3208      	adds	r2, #8
          break;
 8001908:	e75c      	b.n	80017c4 <HAL_GPIO_Init+0x44>
          config = GPIO_Init->Speed + GPIO_CR_CNF_AF_OUTPUT_OD;
 800190a:	68ca      	ldr	r2, [r1, #12]
 800190c:	320c      	adds	r2, #12
          break;
 800190e:	e759      	b.n	80017c4 <HAL_GPIO_Init+0x44>
            config = GPIO_CR_MODE_INPUT + GPIO_CR_CNF_INPUT_FLOATING;
 8001910:	2204      	movs	r2, #4
 8001912:	e757      	b.n	80017c4 <HAL_GPIO_Init+0x44>
        SET_BIT(temp, (GPIO_GET_INDEX(GPIOx)) << (4U * (position & 0x03U)));
 8001914:	2500      	movs	r5, #0
 8001916:	e7a2      	b.n	800185e <HAL_GPIO_Init+0xde>
 8001918:	2501      	movs	r5, #1
 800191a:	e7a0      	b.n	800185e <HAL_GPIO_Init+0xde>
 800191c:	2502      	movs	r5, #2
 800191e:	e79e      	b.n	800185e <HAL_GPIO_Init+0xde>
 8001920:	40010400 	.word	0x40010400
 8001924:	40021000 	.word	0x40021000
 8001928:	40010800 	.word	0x40010800
 800192c:	10210000 	.word	0x10210000
 8001930:	10310000 	.word	0x10310000
 8001934:	10320000 	.word	0x10320000
 8001938:	10110000 	.word	0x10110000
 800193c:	10220000 	.word	0x10220000

08001940 <HAL_GPIO_WritePin>:
{
  /* Check the parameters */
  assert_param(IS_GPIO_PIN(GPIO_Pin));
  assert_param(IS_GPIO_PIN_ACTION(PinState));

  if (PinState != GPIO_PIN_RESET)
 8001940:	b10a      	cbz	r2, 8001946 <HAL_GPIO_WritePin+0x6>
  {
    GPIOx->BSRR = GPIO_Pin;
  }
  else
  {
    GPIOx->BSRR = (uint32_t)GPIO_Pin << 16U;
 8001942:	6101      	str	r1, [r0, #16]
 8001944:	4770      	bx	lr
 8001946:	0409      	lsls	r1, r1, #16
 8001948:	e7fb      	b.n	8001942 <HAL_GPIO_WritePin+0x2>

0800194a <HAL_GPIO_TogglePin>:
void HAL_GPIO_TogglePin(GPIO_TypeDef *GPIOx, uint16_t GPIO_Pin)
{
  /* Check the parameters */
  assert_param(IS_GPIO_PIN(GPIO_Pin));

  GPIOx->ODR ^= GPIO_Pin;
 800194a:	68c3      	ldr	r3, [r0, #12]
 800194c:	4059      	eors	r1, r3
 800194e:	60c1      	str	r1, [r0, #12]
 8001950:	4770      	bx	lr
	...

08001954 <HAL_I2C_Init>:
  * @param  hi2c: pointer to a I2C_HandleTypeDef structure that contains
  *         the configuration information for I2C module
  * @retval HAL status
  */
HAL_StatusTypeDef HAL_I2C_Init(I2C_HandleTypeDef *hi2c)
{
 8001954:	b538      	push	{r3, r4, r5, lr}
  uint32_t freqrange = 0U;
  uint32_t pclk1 = 0U;

  /* Check the I2C handle allocation */
  if(hi2c == NULL)
 8001956:	4604      	mov	r4, r0
 8001958:	b908      	cbnz	r0, 800195e <HAL_I2C_Init+0xa>
  {
    return HAL_ERROR;
 800195a:	2001      	movs	r0, #1
 800195c:	bd38      	pop	{r3, r4, r5, pc}
  assert_param(IS_I2C_DUAL_ADDRESS(hi2c->Init.DualAddressMode));
  assert_param(IS_I2C_OWN_ADDRESS2(hi2c->Init.OwnAddress2));
  assert_param(IS_I2C_GENERAL_CALL(hi2c->Init.GeneralCallMode));
  assert_param(IS_I2C_NO_STRETCH(hi2c->Init.NoStretchMode));

  if(hi2c->State == HAL_I2C_STATE_RESET)
 800195e:	f890 303d 	ldrb.w	r3, [r0, #61]	; 0x3d
 8001962:	f003 02ff 	and.w	r2, r3, #255	; 0xff
 8001966:	b91b      	cbnz	r3, 8001970 <HAL_I2C_Init+0x1c>
  {
    /* Allocate lock resource and initialize it */
    hi2c->Lock = HAL_UNLOCKED;
 8001968:	f880 203c 	strb.w	r2, [r0, #60]	; 0x3c
    /* Init the low level hardware : GPIO, CLOCK, NVIC */
    HAL_I2C_MspInit(hi2c);
 800196c:	f002 fb0e 	bl	8003f8c <HAL_I2C_MspInit>
  }

  hi2c->State = HAL_I2C_STATE_BUSY;
 8001970:	2324      	movs	r3, #36	; 0x24

  /* Disable the selected I2C peripheral */
  __HAL_I2C_DISABLE(hi2c);
 8001972:	6822      	ldr	r2, [r4, #0]
  hi2c->State = HAL_I2C_STATE_BUSY;
 8001974:	f884 303d 	strb.w	r3, [r4, #61]	; 0x3d
  __HAL_I2C_DISABLE(hi2c);
 8001978:	6813      	ldr	r3, [r2, #0]
 800197a:	f023 0301 	bic.w	r3, r3, #1
 800197e:	6013      	str	r3, [r2, #0]

  /* Get PCLK1 frequency */
  pclk1 = HAL_RCC_GetPCLK1Freq();
 8001980:	f000 fada 	bl	8001f38 <HAL_RCC_GetPCLK1Freq>

  /* Check the minimum allowed PCLK1 frequency */
  if (I2C_MIN_PCLK_FREQ(pclk1, hi2c->Init.ClockSpeed) == 1U)
 8001984:	6863      	ldr	r3, [r4, #4]
 8001986:	4a2f      	ldr	r2, [pc, #188]	; (8001a44 <HAL_I2C_Init+0xf0>)
 8001988:	4293      	cmp	r3, r2
 800198a:	d830      	bhi.n	80019ee <HAL_I2C_Init+0x9a>
 800198c:	4a2e      	ldr	r2, [pc, #184]	; (8001a48 <HAL_I2C_Init+0xf4>)
 800198e:	4290      	cmp	r0, r2
 8001990:	d9e3      	bls.n	800195a <HAL_I2C_Init+0x6>
  {
    return HAL_ERROR;
  }

  /* Calculate frequency range */
  freqrange = I2C_FREQRANGE(pclk1);
 8001992:	4a2e      	ldr	r2, [pc, #184]	; (8001a4c <HAL_I2C_Init+0xf8>)

  /*---------------------------- I2Cx CR2 Configuration ----------------------*/
  /* Configure I2Cx: Frequency range */
  hi2c->Instance->CR2 = freqrange;
 8001994:	6821      	ldr	r1, [r4, #0]
  freqrange = I2C_FREQRANGE(pclk1);
 8001996:	fbb0 f2f2 	udiv	r2, r0, r2
  hi2c->Instance->CR2 = freqrange;
 800199a:	604a      	str	r2, [r1, #4]

  /*---------------------------- I2Cx TRISE Configuration --------------------*/
  /* Configure I2Cx: Rise Time */
  hi2c->Instance->TRISE = I2C_RISE_TIME(freqrange, hi2c->Init.ClockSpeed);
 800199c:	3201      	adds	r2, #1
 800199e:	620a      	str	r2, [r1, #32]

  /*---------------------------- I2Cx CCR Configuration ----------------------*/
  /* Configure I2Cx: Speed */
  hi2c->Instance->CCR = I2C_SPEED(pclk1, hi2c->Init.ClockSpeed, hi2c->Init.DutyCycle);
 80019a0:	4a28      	ldr	r2, [pc, #160]	; (8001a44 <HAL_I2C_Init+0xf0>)
 80019a2:	3801      	subs	r0, #1
 80019a4:	4293      	cmp	r3, r2
 80019a6:	d832      	bhi.n	8001a0e <HAL_I2C_Init+0xba>
 80019a8:	005b      	lsls	r3, r3, #1
 80019aa:	fbb0 f0f3 	udiv	r0, r0, r3
 80019ae:	1c43      	adds	r3, r0, #1
 80019b0:	f3c3 030b 	ubfx	r3, r3, #0, #12
 80019b4:	2b04      	cmp	r3, #4
 80019b6:	bf38      	it	cc
 80019b8:	2304      	movcc	r3, #4
 80019ba:	61cb      	str	r3, [r1, #28]

  /*---------------------------- I2Cx CR1 Configuration ----------------------*/
  /* Configure I2Cx: Generalcall and NoStretch mode */
  hi2c->Instance->CR1 = (hi2c->Init.GeneralCallMode | hi2c->Init.NoStretchMode);
 80019bc:	6a22      	ldr	r2, [r4, #32]
 80019be:	69e3      	ldr	r3, [r4, #28]
  hi2c->Instance->OAR2 = (hi2c->Init.DualAddressMode | hi2c->Init.OwnAddress2);

  /* Enable the selected I2C peripheral */
  __HAL_I2C_ENABLE(hi2c);

  hi2c->ErrorCode = HAL_I2C_ERROR_NONE;
 80019c0:	2000      	movs	r0, #0
  hi2c->Instance->CR1 = (hi2c->Init.GeneralCallMode | hi2c->Init.NoStretchMode);
 80019c2:	4313      	orrs	r3, r2
 80019c4:	600b      	str	r3, [r1, #0]
  hi2c->Instance->OAR1 = (hi2c->Init.AddressingMode | hi2c->Init.OwnAddress1);
 80019c6:	68e2      	ldr	r2, [r4, #12]
 80019c8:	6923      	ldr	r3, [r4, #16]
 80019ca:	4313      	orrs	r3, r2
 80019cc:	608b      	str	r3, [r1, #8]
  hi2c->Instance->OAR2 = (hi2c->Init.DualAddressMode | hi2c->Init.OwnAddress2);
 80019ce:	69a2      	ldr	r2, [r4, #24]
 80019d0:	6963      	ldr	r3, [r4, #20]
 80019d2:	4313      	orrs	r3, r2
 80019d4:	60cb      	str	r3, [r1, #12]
  __HAL_I2C_ENABLE(hi2c);
 80019d6:	680b      	ldr	r3, [r1, #0]
 80019d8:	f043 0301 	orr.w	r3, r3, #1
 80019dc:	600b      	str	r3, [r1, #0]
  hi2c->State = HAL_I2C_STATE_READY;
 80019de:	2320      	movs	r3, #32
  hi2c->ErrorCode = HAL_I2C_ERROR_NONE;
 80019e0:	6420      	str	r0, [r4, #64]	; 0x40
  hi2c->State = HAL_I2C_STATE_READY;
 80019e2:	f884 303d 	strb.w	r3, [r4, #61]	; 0x3d
  hi2c->PreviousState = I2C_STATE_NONE;
 80019e6:	6320      	str	r0, [r4, #48]	; 0x30
  hi2c->Mode = HAL_I2C_MODE_NONE;
 80019e8:	f884 003e 	strb.w	r0, [r4, #62]	; 0x3e

  return HAL_OK;
 80019ec:	bd38      	pop	{r3, r4, r5, pc}
  if (I2C_MIN_PCLK_FREQ(pclk1, hi2c->Init.ClockSpeed) == 1U)
 80019ee:	4a18      	ldr	r2, [pc, #96]	; (8001a50 <HAL_I2C_Init+0xfc>)
 80019f0:	4290      	cmp	r0, r2
 80019f2:	d9b2      	bls.n	800195a <HAL_I2C_Init+0x6>
  freqrange = I2C_FREQRANGE(pclk1);
 80019f4:	4d15      	ldr	r5, [pc, #84]	; (8001a4c <HAL_I2C_Init+0xf8>)
  hi2c->Instance->TRISE = I2C_RISE_TIME(freqrange, hi2c->Init.ClockSpeed);
 80019f6:	f44f 7296 	mov.w	r2, #300	; 0x12c
  freqrange = I2C_FREQRANGE(pclk1);
 80019fa:	fbb0 f5f5 	udiv	r5, r0, r5
  hi2c->Instance->CR2 = freqrange;
 80019fe:	6821      	ldr	r1, [r4, #0]
  hi2c->Instance->TRISE = I2C_RISE_TIME(freqrange, hi2c->Init.ClockSpeed);
 8001a00:	436a      	muls	r2, r5
  hi2c->Instance->CR2 = freqrange;
 8001a02:	604d      	str	r5, [r1, #4]
  hi2c->Instance->TRISE = I2C_RISE_TIME(freqrange, hi2c->Init.ClockSpeed);
 8001a04:	f44f 757a 	mov.w	r5, #1000	; 0x3e8
 8001a08:	fbb2 f2f5 	udiv	r2, r2, r5
 8001a0c:	e7c6      	b.n	800199c <HAL_I2C_Init+0x48>
  hi2c->Instance->CCR = I2C_SPEED(pclk1, hi2c->Init.ClockSpeed, hi2c->Init.DutyCycle);
 8001a0e:	68a2      	ldr	r2, [r4, #8]
 8001a10:	b952      	cbnz	r2, 8001a28 <HAL_I2C_Init+0xd4>
 8001a12:	eb03 0343 	add.w	r3, r3, r3, lsl #1
 8001a16:	fbb0 f0f3 	udiv	r0, r0, r3
 8001a1a:	1c43      	adds	r3, r0, #1
 8001a1c:	f3c3 030b 	ubfx	r3, r3, #0, #12
 8001a20:	b16b      	cbz	r3, 8001a3e <HAL_I2C_Init+0xea>
 8001a22:	f443 4300 	orr.w	r3, r3, #32768	; 0x8000
 8001a26:	e7c8      	b.n	80019ba <HAL_I2C_Init+0x66>
 8001a28:	2219      	movs	r2, #25
 8001a2a:	4353      	muls	r3, r2
 8001a2c:	fbb0 f0f3 	udiv	r0, r0, r3
 8001a30:	1c43      	adds	r3, r0, #1
 8001a32:	f3c3 030b 	ubfx	r3, r3, #0, #12
 8001a36:	b113      	cbz	r3, 8001a3e <HAL_I2C_Init+0xea>
 8001a38:	f443 4340 	orr.w	r3, r3, #49152	; 0xc000
 8001a3c:	e7bd      	b.n	80019ba <HAL_I2C_Init+0x66>
 8001a3e:	2301      	movs	r3, #1
 8001a40:	e7bb      	b.n	80019ba <HAL_I2C_Init+0x66>
 8001a42:	bf00      	nop
 8001a44:	000186a0 	.word	0x000186a0
 8001a48:	001e847f 	.word	0x001e847f
 8001a4c:	000f4240 	.word	0x000f4240
 8001a50:	003d08ff 	.word	0x003d08ff

08001a54 <HAL_RCC_OscConfig>:
  /* Check the parameters */
  assert_param(RCC_OscInitStruct != NULL);
  assert_param(IS_RCC_OSCILLATORTYPE(RCC_OscInitStruct->OscillatorType));
  
  /*------------------------------- HSE Configuration ------------------------*/ 
  if(((RCC_OscInitStruct->OscillatorType) & RCC_OSCILLATORTYPE_HSE) == RCC_OSCILLATORTYPE_HSE)
 8001a54:	6803      	ldr	r3, [r0, #0]
{
 8001a56:	e92d 41f3 	stmdb	sp!, {r0, r1, r4, r5, r6, r7, r8, lr}
  if(((RCC_OscInitStruct->OscillatorType) & RCC_OSCILLATORTYPE_HSE) == RCC_OSCILLATORTYPE_HSE)
 8001a5a:	07db      	lsls	r3, r3, #31
{
 8001a5c:	4605      	mov	r5, r0
  if(((RCC_OscInitStruct->OscillatorType) & RCC_OSCILLATORTYPE_HSE) == RCC_OSCILLATORTYPE_HSE)
 8001a5e:	d410      	bmi.n	8001a82 <HAL_RCC_OscConfig+0x2e>
        }
      }
    }
  }
  /*----------------------------- HSI Configuration --------------------------*/ 
  if(((RCC_OscInitStruct->OscillatorType) & RCC_OSCILLATORTYPE_HSI) == RCC_OSCILLATORTYPE_HSI)
 8001a60:	682b      	ldr	r3, [r5, #0]
 8001a62:	079f      	lsls	r7, r3, #30
 8001a64:	d45e      	bmi.n	8001b24 <HAL_RCC_OscConfig+0xd0>
        }
      }
    }
  }
  /*------------------------------ LSI Configuration -------------------------*/ 
  if(((RCC_OscInitStruct->OscillatorType) & RCC_OSCILLATORTYPE_LSI) == RCC_OSCILLATORTYPE_LSI)
 8001a66:	682b      	ldr	r3, [r5, #0]
 8001a68:	0719      	lsls	r1, r3, #28
 8001a6a:	f100 8095 	bmi.w	8001b98 <HAL_RCC_OscConfig+0x144>
        }
      }
    }
  }
  /*------------------------------ LSE Configuration -------------------------*/ 
  if(((RCC_OscInitStruct->OscillatorType) & RCC_OSCILLATORTYPE_LSE) == RCC_OSCILLATORTYPE_LSE)
 8001a6e:	682b      	ldr	r3, [r5, #0]
 8001a70:	075a      	lsls	r2, r3, #29
 8001a72:	f100 80bf 	bmi.w	8001bf4 <HAL_RCC_OscConfig+0x1a0>

#endif /* RCC_CR_PLL2ON */
  /*-------------------------------- PLL Configuration -----------------------*/
  /* Check the parameters */
  assert_param(IS_RCC_PLL(RCC_OscInitStruct->PLL.PLLState));
  if ((RCC_OscInitStruct->PLL.PLLState) != RCC_PLL_NONE)
 8001a76:	69ea      	ldr	r2, [r5, #28]
 8001a78:	2a00      	cmp	r2, #0
 8001a7a:	f040 812d 	bne.w	8001cd8 <HAL_RCC_OscConfig+0x284>
    {
      return HAL_ERROR;
    }
  }
  
  return HAL_OK;
 8001a7e:	2000      	movs	r0, #0
 8001a80:	e014      	b.n	8001aac <HAL_RCC_OscConfig+0x58>
    if((__HAL_RCC_GET_SYSCLK_SOURCE() == RCC_SYSCLKSOURCE_STATUS_HSE) 
 8001a82:	4c90      	ldr	r4, [pc, #576]	; (8001cc4 <HAL_RCC_OscConfig+0x270>)
 8001a84:	6863      	ldr	r3, [r4, #4]
 8001a86:	f003 030c 	and.w	r3, r3, #12
 8001a8a:	2b04      	cmp	r3, #4
 8001a8c:	d007      	beq.n	8001a9e <HAL_RCC_OscConfig+0x4a>
       || ((__HAL_RCC_GET_SYSCLK_SOURCE() == RCC_SYSCLKSOURCE_STATUS_PLLCLK) && (__HAL_RCC_GET_PLL_OSCSOURCE() == RCC_PLLSOURCE_HSE)))
 8001a8e:	6863      	ldr	r3, [r4, #4]
 8001a90:	f003 030c 	and.w	r3, r3, #12
 8001a94:	2b08      	cmp	r3, #8
 8001a96:	d10c      	bne.n	8001ab2 <HAL_RCC_OscConfig+0x5e>
 8001a98:	6863      	ldr	r3, [r4, #4]
 8001a9a:	03de      	lsls	r6, r3, #15
 8001a9c:	d509      	bpl.n	8001ab2 <HAL_RCC_OscConfig+0x5e>
      if((__HAL_RCC_GET_FLAG(RCC_FLAG_HSERDY) != RESET) && (RCC_OscInitStruct->HSEState == RCC_HSE_OFF))
 8001a9e:	6823      	ldr	r3, [r4, #0]
 8001aa0:	039c      	lsls	r4, r3, #14
 8001aa2:	d5dd      	bpl.n	8001a60 <HAL_RCC_OscConfig+0xc>
 8001aa4:	686b      	ldr	r3, [r5, #4]
 8001aa6:	2b00      	cmp	r3, #0
 8001aa8:	d1da      	bne.n	8001a60 <HAL_RCC_OscConfig+0xc>
        return HAL_ERROR;
 8001aaa:	2001      	movs	r0, #1
}
 8001aac:	b002      	add	sp, #8
 8001aae:	e8bd 81f0 	ldmia.w	sp!, {r4, r5, r6, r7, r8, pc}
      __HAL_RCC_HSE_CONFIG(RCC_OscInitStruct->HSEState);
 8001ab2:	686b      	ldr	r3, [r5, #4]
 8001ab4:	f5b3 3f80 	cmp.w	r3, #65536	; 0x10000
 8001ab8:	d110      	bne.n	8001adc <HAL_RCC_OscConfig+0x88>
 8001aba:	6823      	ldr	r3, [r4, #0]
 8001abc:	f443 3380 	orr.w	r3, r3, #65536	; 0x10000
 8001ac0:	6023      	str	r3, [r4, #0]
        tickstart = HAL_GetTick();
 8001ac2:	f7ff fa2f 	bl	8000f24 <HAL_GetTick>
 8001ac6:	4606      	mov	r6, r0
        while(__HAL_RCC_GET_FLAG(RCC_FLAG_HSERDY) == RESET)
 8001ac8:	6823      	ldr	r3, [r4, #0]
 8001aca:	0398      	lsls	r0, r3, #14
 8001acc:	d4c8      	bmi.n	8001a60 <HAL_RCC_OscConfig+0xc>
          if((HAL_GetTick() - tickstart ) > HSE_TIMEOUT_VALUE)
 8001ace:	f7ff fa29 	bl	8000f24 <HAL_GetTick>
 8001ad2:	1b80      	subs	r0, r0, r6
 8001ad4:	2864      	cmp	r0, #100	; 0x64
 8001ad6:	d9f7      	bls.n	8001ac8 <HAL_RCC_OscConfig+0x74>
            return HAL_TIMEOUT;
 8001ad8:	2003      	movs	r0, #3
 8001ada:	e7e7      	b.n	8001aac <HAL_RCC_OscConfig+0x58>
      __HAL_RCC_HSE_CONFIG(RCC_OscInitStruct->HSEState);
 8001adc:	b99b      	cbnz	r3, 8001b06 <HAL_RCC_OscConfig+0xb2>
 8001ade:	6823      	ldr	r3, [r4, #0]
 8001ae0:	f423 3380 	bic.w	r3, r3, #65536	; 0x10000
 8001ae4:	6023      	str	r3, [r4, #0]
 8001ae6:	6823      	ldr	r3, [r4, #0]
 8001ae8:	f423 2380 	bic.w	r3, r3, #262144	; 0x40000
 8001aec:	6023      	str	r3, [r4, #0]
        tickstart = HAL_GetTick();
 8001aee:	f7ff fa19 	bl	8000f24 <HAL_GetTick>
 8001af2:	4606      	mov	r6, r0
        while(__HAL_RCC_GET_FLAG(RCC_FLAG_HSERDY) != RESET)
 8001af4:	6823      	ldr	r3, [r4, #0]
 8001af6:	0399      	lsls	r1, r3, #14
 8001af8:	d5b2      	bpl.n	8001a60 <HAL_RCC_OscConfig+0xc>
           if((HAL_GetTick() - tickstart ) > HSE_TIMEOUT_VALUE)
 8001afa:	f7ff fa13 	bl	8000f24 <HAL_GetTick>
 8001afe:	1b80      	subs	r0, r0, r6
 8001b00:	2864      	cmp	r0, #100	; 0x64
 8001b02:	d9f7      	bls.n	8001af4 <HAL_RCC_OscConfig+0xa0>
 8001b04:	e7e8      	b.n	8001ad8 <HAL_RCC_OscConfig+0x84>
      __HAL_RCC_HSE_CONFIG(RCC_OscInitStruct->HSEState);
 8001b06:	f5b3 2fa0 	cmp.w	r3, #327680	; 0x50000
 8001b0a:	6823      	ldr	r3, [r4, #0]
 8001b0c:	d103      	bne.n	8001b16 <HAL_RCC_OscConfig+0xc2>
 8001b0e:	f443 2380 	orr.w	r3, r3, #262144	; 0x40000
 8001b12:	6023      	str	r3, [r4, #0]
 8001b14:	e7d1      	b.n	8001aba <HAL_RCC_OscConfig+0x66>
 8001b16:	f423 3380 	bic.w	r3, r3, #65536	; 0x10000
 8001b1a:	6023      	str	r3, [r4, #0]
 8001b1c:	6823      	ldr	r3, [r4, #0]
 8001b1e:	f423 2380 	bic.w	r3, r3, #262144	; 0x40000
 8001b22:	e7cd      	b.n	8001ac0 <HAL_RCC_OscConfig+0x6c>
    if((__HAL_RCC_GET_SYSCLK_SOURCE() == RCC_SYSCLKSOURCE_STATUS_HSI) 
 8001b24:	4c67      	ldr	r4, [pc, #412]	; (8001cc4 <HAL_RCC_OscConfig+0x270>)
 8001b26:	6863      	ldr	r3, [r4, #4]
 8001b28:	f013 0f0c 	tst.w	r3, #12
 8001b2c:	d007      	beq.n	8001b3e <HAL_RCC_OscConfig+0xea>
       || ((__HAL_RCC_GET_SYSCLK_SOURCE() == RCC_SYSCLKSOURCE_STATUS_PLLCLK) && (__HAL_RCC_GET_PLL_OSCSOURCE() == RCC_PLLSOURCE_HSI_DIV2)))
 8001b2e:	6863      	ldr	r3, [r4, #4]
 8001b30:	f003 030c 	and.w	r3, r3, #12
 8001b34:	2b08      	cmp	r3, #8
 8001b36:	d110      	bne.n	8001b5a <HAL_RCC_OscConfig+0x106>
 8001b38:	6863      	ldr	r3, [r4, #4]
 8001b3a:	03da      	lsls	r2, r3, #15
 8001b3c:	d40d      	bmi.n	8001b5a <HAL_RCC_OscConfig+0x106>
      if((__HAL_RCC_GET_FLAG(RCC_FLAG_HSIRDY) != RESET) && (RCC_OscInitStruct->HSIState != RCC_HSI_ON))
 8001b3e:	6823      	ldr	r3, [r4, #0]
 8001b40:	079b      	lsls	r3, r3, #30
 8001b42:	d502      	bpl.n	8001b4a <HAL_RCC_OscConfig+0xf6>
 8001b44:	692b      	ldr	r3, [r5, #16]
 8001b46:	2b01      	cmp	r3, #1
 8001b48:	d1af      	bne.n	8001aaa <HAL_RCC_OscConfig+0x56>
        __HAL_RCC_HSI_CALIBRATIONVALUE_ADJUST(RCC_OscInitStruct->HSICalibrationValue);
 8001b4a:	6823      	ldr	r3, [r4, #0]
 8001b4c:	696a      	ldr	r2, [r5, #20]
 8001b4e:	f023 03f8 	bic.w	r3, r3, #248	; 0xf8
 8001b52:	ea43 03c2 	orr.w	r3, r3, r2, lsl #3
 8001b56:	6023      	str	r3, [r4, #0]
 8001b58:	e785      	b.n	8001a66 <HAL_RCC_OscConfig+0x12>
      if(RCC_OscInitStruct->HSIState != RCC_HSI_OFF)
 8001b5a:	692a      	ldr	r2, [r5, #16]
 8001b5c:	4b5a      	ldr	r3, [pc, #360]	; (8001cc8 <HAL_RCC_OscConfig+0x274>)
 8001b5e:	b16a      	cbz	r2, 8001b7c <HAL_RCC_OscConfig+0x128>
        __HAL_RCC_HSI_ENABLE();
 8001b60:	2201      	movs	r2, #1
 8001b62:	601a      	str	r2, [r3, #0]
        tickstart = HAL_GetTick();
 8001b64:	f7ff f9de 	bl	8000f24 <HAL_GetTick>
 8001b68:	4606      	mov	r6, r0
        while(__HAL_RCC_GET_FLAG(RCC_FLAG_HSIRDY) == RESET)
 8001b6a:	6823      	ldr	r3, [r4, #0]
 8001b6c:	079f      	lsls	r7, r3, #30
 8001b6e:	d4ec      	bmi.n	8001b4a <HAL_RCC_OscConfig+0xf6>
          if((HAL_GetTick() - tickstart ) > HSI_TIMEOUT_VALUE)
 8001b70:	f7ff f9d8 	bl	8000f24 <HAL_GetTick>
 8001b74:	1b80      	subs	r0, r0, r6
 8001b76:	2802      	cmp	r0, #2
 8001b78:	d9f7      	bls.n	8001b6a <HAL_RCC_OscConfig+0x116>
 8001b7a:	e7ad      	b.n	8001ad8 <HAL_RCC_OscConfig+0x84>
        __HAL_RCC_HSI_DISABLE();
 8001b7c:	601a      	str	r2, [r3, #0]
        tickstart = HAL_GetTick();
 8001b7e:	f7ff f9d1 	bl	8000f24 <HAL_GetTick>
 8001b82:	4606      	mov	r6, r0
        while(__HAL_RCC_GET_FLAG(RCC_FLAG_HSIRDY) != RESET)
 8001b84:	6823      	ldr	r3, [r4, #0]
 8001b86:	0798      	lsls	r0, r3, #30
 8001b88:	f57f af6d 	bpl.w	8001a66 <HAL_RCC_OscConfig+0x12>
          if((HAL_GetTick() - tickstart ) > HSI_TIMEOUT_VALUE)
 8001b8c:	f7ff f9ca 	bl	8000f24 <HAL_GetTick>
 8001b90:	1b80      	subs	r0, r0, r6
 8001b92:	2802      	cmp	r0, #2
 8001b94:	d9f6      	bls.n	8001b84 <HAL_RCC_OscConfig+0x130>
 8001b96:	e79f      	b.n	8001ad8 <HAL_RCC_OscConfig+0x84>
    if(RCC_OscInitStruct->LSIState != RCC_LSI_OFF)
 8001b98:	69aa      	ldr	r2, [r5, #24]
 8001b9a:	4c4a      	ldr	r4, [pc, #296]	; (8001cc4 <HAL_RCC_OscConfig+0x270>)
 8001b9c:	4b4b      	ldr	r3, [pc, #300]	; (8001ccc <HAL_RCC_OscConfig+0x278>)
 8001b9e:	b1da      	cbz	r2, 8001bd8 <HAL_RCC_OscConfig+0x184>
      __HAL_RCC_LSI_ENABLE();
 8001ba0:	2201      	movs	r2, #1
 8001ba2:	601a      	str	r2, [r3, #0]
      tickstart = HAL_GetTick();
 8001ba4:	f7ff f9be 	bl	8000f24 <HAL_GetTick>
 8001ba8:	4606      	mov	r6, r0
      while(__HAL_RCC_GET_FLAG(RCC_FLAG_LSIRDY) == RESET)
 8001baa:	6a63      	ldr	r3, [r4, #36]	; 0x24
 8001bac:	079b      	lsls	r3, r3, #30
 8001bae:	d50d      	bpl.n	8001bcc <HAL_RCC_OscConfig+0x178>
  * @param  mdelay: specifies the delay time length, in milliseconds.
  * @retval None
  */
static void RCC_Delay(uint32_t mdelay)
{
  __IO uint32_t Delay = mdelay * (SystemCoreClock / 8U / 1000U);
 8001bb0:	f44f 52fa 	mov.w	r2, #8000	; 0x1f40
 8001bb4:	4b46      	ldr	r3, [pc, #280]	; (8001cd0 <HAL_RCC_OscConfig+0x27c>)
 8001bb6:	681b      	ldr	r3, [r3, #0]
 8001bb8:	fbb3 f3f2 	udiv	r3, r3, r2
 8001bbc:	9301      	str	r3, [sp, #4]
  \brief   No Operation
  \details No Operation does nothing. This instruction can be used for code alignment purposes.
 */
__attribute__((always_inline)) __STATIC_INLINE void __NOP(void)
{
  __ASM volatile ("nop");
 8001bbe:	bf00      	nop
  do 
  {
    __NOP();
  } 
  while (Delay --);
 8001bc0:	9b01      	ldr	r3, [sp, #4]
 8001bc2:	1e5a      	subs	r2, r3, #1
 8001bc4:	9201      	str	r2, [sp, #4]
 8001bc6:	2b00      	cmp	r3, #0
 8001bc8:	d1f9      	bne.n	8001bbe <HAL_RCC_OscConfig+0x16a>
 8001bca:	e750      	b.n	8001a6e <HAL_RCC_OscConfig+0x1a>
        if((HAL_GetTick() - tickstart ) > LSI_TIMEOUT_VALUE)
 8001bcc:	f7ff f9aa 	bl	8000f24 <HAL_GetTick>
 8001bd0:	1b80      	subs	r0, r0, r6
 8001bd2:	2802      	cmp	r0, #2
 8001bd4:	d9e9      	bls.n	8001baa <HAL_RCC_OscConfig+0x156>
 8001bd6:	e77f      	b.n	8001ad8 <HAL_RCC_OscConfig+0x84>
      __HAL_RCC_LSI_DISABLE();
 8001bd8:	601a      	str	r2, [r3, #0]
      tickstart = HAL_GetTick();
 8001bda:	f7ff f9a3 	bl	8000f24 <HAL_GetTick>
 8001bde:	4606      	mov	r6, r0
      while(__HAL_RCC_GET_FLAG(RCC_FLAG_LSIRDY) != RESET)
 8001be0:	6a63      	ldr	r3, [r4, #36]	; 0x24
 8001be2:	079f      	lsls	r7, r3, #30
 8001be4:	f57f af43 	bpl.w	8001a6e <HAL_RCC_OscConfig+0x1a>
        if((HAL_GetTick() - tickstart ) > LSI_TIMEOUT_VALUE)
 8001be8:	f7ff f99c 	bl	8000f24 <HAL_GetTick>
 8001bec:	1b80      	subs	r0, r0, r6
 8001bee:	2802      	cmp	r0, #2
 8001bf0:	d9f6      	bls.n	8001be0 <HAL_RCC_OscConfig+0x18c>
 8001bf2:	e771      	b.n	8001ad8 <HAL_RCC_OscConfig+0x84>
    if(__HAL_RCC_PWR_IS_CLK_DISABLED())
 8001bf4:	4c33      	ldr	r4, [pc, #204]	; (8001cc4 <HAL_RCC_OscConfig+0x270>)
 8001bf6:	69e3      	ldr	r3, [r4, #28]
 8001bf8:	00d8      	lsls	r0, r3, #3
 8001bfa:	d424      	bmi.n	8001c46 <HAL_RCC_OscConfig+0x1f2>
      pwrclkchanged = SET;
 8001bfc:	2701      	movs	r7, #1
      __HAL_RCC_PWR_CLK_ENABLE();
 8001bfe:	69e3      	ldr	r3, [r4, #28]
 8001c00:	f043 5380 	orr.w	r3, r3, #268435456	; 0x10000000
 8001c04:	61e3      	str	r3, [r4, #28]
 8001c06:	69e3      	ldr	r3, [r4, #28]
 8001c08:	f003 5380 	and.w	r3, r3, #268435456	; 0x10000000
 8001c0c:	9300      	str	r3, [sp, #0]
 8001c0e:	9b00      	ldr	r3, [sp, #0]
    if(HAL_IS_BIT_CLR(PWR->CR, PWR_CR_DBP))
 8001c10:	4e30      	ldr	r6, [pc, #192]	; (8001cd4 <HAL_RCC_OscConfig+0x280>)
 8001c12:	6833      	ldr	r3, [r6, #0]
 8001c14:	05d9      	lsls	r1, r3, #23
 8001c16:	d518      	bpl.n	8001c4a <HAL_RCC_OscConfig+0x1f6>
    __HAL_RCC_LSE_CONFIG(RCC_OscInitStruct->LSEState);
 8001c18:	68eb      	ldr	r3, [r5, #12]
 8001c1a:	2b01      	cmp	r3, #1
 8001c1c:	d126      	bne.n	8001c6c <HAL_RCC_OscConfig+0x218>
 8001c1e:	6a23      	ldr	r3, [r4, #32]
 8001c20:	f043 0301 	orr.w	r3, r3, #1
 8001c24:	6223      	str	r3, [r4, #32]
      tickstart = HAL_GetTick();
 8001c26:	f7ff f97d 	bl	8000f24 <HAL_GetTick>
        if((HAL_GetTick() - tickstart ) > RCC_LSE_TIMEOUT_VALUE)
 8001c2a:	f241 3688 	movw	r6, #5000	; 0x1388
      tickstart = HAL_GetTick();
 8001c2e:	4680      	mov	r8, r0
      while(__HAL_RCC_GET_FLAG(RCC_FLAG_LSERDY) == RESET)
 8001c30:	6a23      	ldr	r3, [r4, #32]
 8001c32:	079b      	lsls	r3, r3, #30
 8001c34:	d53f      	bpl.n	8001cb6 <HAL_RCC_OscConfig+0x262>
    if(pwrclkchanged == SET)
 8001c36:	2f00      	cmp	r7, #0
 8001c38:	f43f af1d 	beq.w	8001a76 <HAL_RCC_OscConfig+0x22>
      __HAL_RCC_PWR_CLK_DISABLE();
 8001c3c:	69e3      	ldr	r3, [r4, #28]
 8001c3e:	f023 5380 	bic.w	r3, r3, #268435456	; 0x10000000
 8001c42:	61e3      	str	r3, [r4, #28]
 8001c44:	e717      	b.n	8001a76 <HAL_RCC_OscConfig+0x22>
    FlagStatus       pwrclkchanged = RESET;
 8001c46:	2700      	movs	r7, #0
 8001c48:	e7e2      	b.n	8001c10 <HAL_RCC_OscConfig+0x1bc>
      SET_BIT(PWR->CR, PWR_CR_DBP);
 8001c4a:	6833      	ldr	r3, [r6, #0]
 8001c4c:	f443 7380 	orr.w	r3, r3, #256	; 0x100
 8001c50:	6033      	str	r3, [r6, #0]
      tickstart = HAL_GetTick();
 8001c52:	f7ff f967 	bl	8000f24 <HAL_GetTick>
 8001c56:	4680      	mov	r8, r0
      while(HAL_IS_BIT_CLR(PWR->CR, PWR_CR_DBP))
 8001c58:	6833      	ldr	r3, [r6, #0]
 8001c5a:	05da      	lsls	r2, r3, #23
 8001c5c:	d4dc      	bmi.n	8001c18 <HAL_RCC_OscConfig+0x1c4>
        if((HAL_GetTick() - tickstart) > RCC_DBP_TIMEOUT_VALUE)
 8001c5e:	f7ff f961 	bl	8000f24 <HAL_GetTick>
 8001c62:	eba0 0008 	sub.w	r0, r0, r8
 8001c66:	2864      	cmp	r0, #100	; 0x64
 8001c68:	d9f6      	bls.n	8001c58 <HAL_RCC_OscConfig+0x204>
 8001c6a:	e735      	b.n	8001ad8 <HAL_RCC_OscConfig+0x84>
    __HAL_RCC_LSE_CONFIG(RCC_OscInitStruct->LSEState);
 8001c6c:	b9ab      	cbnz	r3, 8001c9a <HAL_RCC_OscConfig+0x246>
 8001c6e:	6a23      	ldr	r3, [r4, #32]
        if((HAL_GetTick() - tickstart ) > RCC_LSE_TIMEOUT_VALUE)
 8001c70:	f241 3888 	movw	r8, #5000	; 0x1388
    __HAL_RCC_LSE_CONFIG(RCC_OscInitStruct->LSEState);
 8001c74:	f023 0301 	bic.w	r3, r3, #1
 8001c78:	6223      	str	r3, [r4, #32]
 8001c7a:	6a23      	ldr	r3, [r4, #32]
 8001c7c:	f023 0304 	bic.w	r3, r3, #4
 8001c80:	6223      	str	r3, [r4, #32]
      tickstart = HAL_GetTick();
 8001c82:	f7ff f94f 	bl	8000f24 <HAL_GetTick>
 8001c86:	4606      	mov	r6, r0
      while(__HAL_RCC_GET_FLAG(RCC_FLAG_LSERDY) != RESET)
 8001c88:	6a23      	ldr	r3, [r4, #32]
 8001c8a:	0798      	lsls	r0, r3, #30
 8001c8c:	d5d3      	bpl.n	8001c36 <HAL_RCC_OscConfig+0x1e2>
        if((HAL_GetTick() - tickstart ) > RCC_LSE_TIMEOUT_VALUE)
 8001c8e:	f7ff f949 	bl	8000f24 <HAL_GetTick>
 8001c92:	1b80      	subs	r0, r0, r6
 8001c94:	4540      	cmp	r0, r8
 8001c96:	d9f7      	bls.n	8001c88 <HAL_RCC_OscConfig+0x234>
 8001c98:	e71e      	b.n	8001ad8 <HAL_RCC_OscConfig+0x84>
    __HAL_RCC_LSE_CONFIG(RCC_OscInitStruct->LSEState);
 8001c9a:	2b05      	cmp	r3, #5
 8001c9c:	6a23      	ldr	r3, [r4, #32]
 8001c9e:	d103      	bne.n	8001ca8 <HAL_RCC_OscConfig+0x254>
 8001ca0:	f043 0304 	orr.w	r3, r3, #4
 8001ca4:	6223      	str	r3, [r4, #32]
 8001ca6:	e7ba      	b.n	8001c1e <HAL_RCC_OscConfig+0x1ca>
 8001ca8:	f023 0301 	bic.w	r3, r3, #1
 8001cac:	6223      	str	r3, [r4, #32]
 8001cae:	6a23      	ldr	r3, [r4, #32]
 8001cb0:	f023 0304 	bic.w	r3, r3, #4
 8001cb4:	e7b6      	b.n	8001c24 <HAL_RCC_OscConfig+0x1d0>
        if((HAL_GetTick() - tickstart ) > RCC_LSE_TIMEOUT_VALUE)
 8001cb6:	f7ff f935 	bl	8000f24 <HAL_GetTick>
 8001cba:	eba0 0008 	sub.w	r0, r0, r8
 8001cbe:	42b0      	cmp	r0, r6
 8001cc0:	d9b6      	bls.n	8001c30 <HAL_RCC_OscConfig+0x1dc>
 8001cc2:	e709      	b.n	8001ad8 <HAL_RCC_OscConfig+0x84>
 8001cc4:	40021000 	.word	0x40021000
 8001cc8:	42420000 	.word	0x42420000
 8001ccc:	42420480 	.word	0x42420480
 8001cd0:	2000004c 	.word	0x2000004c
 8001cd4:	40007000 	.word	0x40007000
    if(__HAL_RCC_GET_SYSCLK_SOURCE() != RCC_SYSCLKSOURCE_STATUS_PLLCLK)
 8001cd8:	4c22      	ldr	r4, [pc, #136]	; (8001d64 <HAL_RCC_OscConfig+0x310>)
 8001cda:	6863      	ldr	r3, [r4, #4]
 8001cdc:	f003 030c 	and.w	r3, r3, #12
 8001ce0:	2b08      	cmp	r3, #8
 8001ce2:	f43f aee2 	beq.w	8001aaa <HAL_RCC_OscConfig+0x56>
 8001ce6:	2300      	movs	r3, #0
 8001ce8:	4e1f      	ldr	r6, [pc, #124]	; (8001d68 <HAL_RCC_OscConfig+0x314>)
      if((RCC_OscInitStruct->PLL.PLLState) == RCC_PLL_ON)
 8001cea:	2a02      	cmp	r2, #2
        __HAL_RCC_PLL_DISABLE();
 8001cec:	6033      	str	r3, [r6, #0]
      if((RCC_OscInitStruct->PLL.PLLState) == RCC_PLL_ON)
 8001cee:	d12b      	bne.n	8001d48 <HAL_RCC_OscConfig+0x2f4>
        tickstart = HAL_GetTick();
 8001cf0:	f7ff f918 	bl	8000f24 <HAL_GetTick>
 8001cf4:	4607      	mov	r7, r0
        while(__HAL_RCC_GET_FLAG(RCC_FLAG_PLLRDY)  != RESET)
 8001cf6:	6823      	ldr	r3, [r4, #0]
 8001cf8:	0199      	lsls	r1, r3, #6
 8001cfa:	d41f      	bmi.n	8001d3c <HAL_RCC_OscConfig+0x2e8>
        if(RCC_OscInitStruct->PLL.PLLSource == RCC_PLLSOURCE_HSE)
 8001cfc:	6a2b      	ldr	r3, [r5, #32]
 8001cfe:	f5b3 3f80 	cmp.w	r3, #65536	; 0x10000
 8001d02:	d105      	bne.n	8001d10 <HAL_RCC_OscConfig+0x2bc>
          __HAL_RCC_HSE_PREDIV_CONFIG(RCC_OscInitStruct->HSEPredivValue);
 8001d04:	6862      	ldr	r2, [r4, #4]
 8001d06:	68a9      	ldr	r1, [r5, #8]
 8001d08:	f422 3200 	bic.w	r2, r2, #131072	; 0x20000
 8001d0c:	430a      	orrs	r2, r1
 8001d0e:	6062      	str	r2, [r4, #4]
        __HAL_RCC_PLL_CONFIG(RCC_OscInitStruct->PLL.PLLSource,
 8001d10:	6a69      	ldr	r1, [r5, #36]	; 0x24
 8001d12:	6862      	ldr	r2, [r4, #4]
 8001d14:	430b      	orrs	r3, r1
 8001d16:	f422 1274 	bic.w	r2, r2, #3997696	; 0x3d0000
 8001d1a:	4313      	orrs	r3, r2
 8001d1c:	6063      	str	r3, [r4, #4]
        __HAL_RCC_PLL_ENABLE();
 8001d1e:	2301      	movs	r3, #1
 8001d20:	6033      	str	r3, [r6, #0]
        tickstart = HAL_GetTick();
 8001d22:	f7ff f8ff 	bl	8000f24 <HAL_GetTick>
 8001d26:	4605      	mov	r5, r0
        while(__HAL_RCC_GET_FLAG(RCC_FLAG_PLLRDY)  == RESET)
 8001d28:	6823      	ldr	r3, [r4, #0]
 8001d2a:	019a      	lsls	r2, r3, #6
 8001d2c:	f53f aea7 	bmi.w	8001a7e <HAL_RCC_OscConfig+0x2a>
          if((HAL_GetTick() - tickstart ) > PLL_TIMEOUT_VALUE)
 8001d30:	f7ff f8f8 	bl	8000f24 <HAL_GetTick>
 8001d34:	1b40      	subs	r0, r0, r5
 8001d36:	2802      	cmp	r0, #2
 8001d38:	d9f6      	bls.n	8001d28 <HAL_RCC_OscConfig+0x2d4>
 8001d3a:	e6cd      	b.n	8001ad8 <HAL_RCC_OscConfig+0x84>
          if((HAL_GetTick() - tickstart ) > PLL_TIMEOUT_VALUE)
 8001d3c:	f7ff f8f2 	bl	8000f24 <HAL_GetTick>
 8001d40:	1bc0      	subs	r0, r0, r7
 8001d42:	2802      	cmp	r0, #2
 8001d44:	d9d7      	bls.n	8001cf6 <HAL_RCC_OscConfig+0x2a2>
 8001d46:	e6c7      	b.n	8001ad8 <HAL_RCC_OscConfig+0x84>
        tickstart = HAL_GetTick();
 8001d48:	f7ff f8ec 	bl	8000f24 <HAL_GetTick>
 8001d4c:	4605      	mov	r5, r0
        while(__HAL_RCC_GET_FLAG(RCC_FLAG_PLLRDY)  != RESET)
 8001d4e:	6823      	ldr	r3, [r4, #0]
 8001d50:	019b      	lsls	r3, r3, #6
 8001d52:	f57f ae94 	bpl.w	8001a7e <HAL_RCC_OscConfig+0x2a>
          if((HAL_GetTick() - tickstart ) > PLL_TIMEOUT_VALUE)
 8001d56:	f7ff f8e5 	bl	8000f24 <HAL_GetTick>
 8001d5a:	1b40      	subs	r0, r0, r5
 8001d5c:	2802      	cmp	r0, #2
 8001d5e:	d9f6      	bls.n	8001d4e <HAL_RCC_OscConfig+0x2fa>
 8001d60:	e6ba      	b.n	8001ad8 <HAL_RCC_OscConfig+0x84>
 8001d62:	bf00      	nop
 8001d64:	40021000 	.word	0x40021000
 8001d68:	42420060 	.word	0x42420060

08001d6c <HAL_RCC_GetSysClockFreq>:
{
 8001d6c:	b530      	push	{r4, r5, lr}
  const uint8_t aPLLMULFactorTable[16] = {2, 3, 4, 5, 6, 7, 8, 9, 10, 11, 12, 13, 14, 15, 16, 16};
 8001d6e:	4b19      	ldr	r3, [pc, #100]	; (8001dd4 <HAL_RCC_GetSysClockFreq+0x68>)
{
 8001d70:	b087      	sub	sp, #28
  const uint8_t aPLLMULFactorTable[16] = {2, 3, 4, 5, 6, 7, 8, 9, 10, 11, 12, 13, 14, 15, 16, 16};
 8001d72:	ac02      	add	r4, sp, #8
 8001d74:	f103 0510 	add.w	r5, r3, #16
 8001d78:	4622      	mov	r2, r4
 8001d7a:	6818      	ldr	r0, [r3, #0]
 8001d7c:	6859      	ldr	r1, [r3, #4]
 8001d7e:	3308      	adds	r3, #8
 8001d80:	c203      	stmia	r2!, {r0, r1}
 8001d82:	42ab      	cmp	r3, r5
 8001d84:	4614      	mov	r4, r2
 8001d86:	d1f7      	bne.n	8001d78 <HAL_RCC_GetSysClockFreq+0xc>
  const uint8_t aPredivFactorTable[2] = {1, 2};
 8001d88:	2301      	movs	r3, #1
 8001d8a:	f88d 3004 	strb.w	r3, [sp, #4]
 8001d8e:	2302      	movs	r3, #2
  tmpreg = RCC->CFGR;
 8001d90:	4911      	ldr	r1, [pc, #68]	; (8001dd8 <HAL_RCC_GetSysClockFreq+0x6c>)
  const uint8_t aPredivFactorTable[2] = {1, 2};
 8001d92:	f88d 3005 	strb.w	r3, [sp, #5]
  tmpreg = RCC->CFGR;
 8001d96:	684b      	ldr	r3, [r1, #4]
  switch (tmpreg & RCC_CFGR_SWS)
 8001d98:	f003 020c 	and.w	r2, r3, #12
 8001d9c:	2a08      	cmp	r2, #8
 8001d9e:	d117      	bne.n	8001dd0 <HAL_RCC_GetSysClockFreq+0x64>
      pllmul = aPLLMULFactorTable[(uint32_t)(tmpreg & RCC_CFGR_PLLMULL) >> RCC_CFGR_PLLMULL_Pos];
 8001da0:	f3c3 4283 	ubfx	r2, r3, #18, #4
 8001da4:	a806      	add	r0, sp, #24
 8001da6:	4402      	add	r2, r0
      if ((tmpreg & RCC_CFGR_PLLSRC) != RCC_PLLSOURCE_HSI_DIV2)
 8001da8:	03db      	lsls	r3, r3, #15
      pllmul = aPLLMULFactorTable[(uint32_t)(tmpreg & RCC_CFGR_PLLMULL) >> RCC_CFGR_PLLMULL_Pos];
 8001daa:	f812 2c10 	ldrb.w	r2, [r2, #-16]
      if ((tmpreg & RCC_CFGR_PLLSRC) != RCC_PLLSOURCE_HSI_DIV2)
 8001dae:	d50c      	bpl.n	8001dca <HAL_RCC_GetSysClockFreq+0x5e>
        prediv = aPredivFactorTable[(uint32_t)(RCC->CFGR & RCC_CFGR_PLLXTPRE) >> RCC_CFGR_PLLXTPRE_Pos];
 8001db0:	684b      	ldr	r3, [r1, #4]
        pllclk = (uint32_t)((HSE_VALUE  * pllmul) / prediv);
 8001db2:	480a      	ldr	r0, [pc, #40]	; (8001ddc <HAL_RCC_GetSysClockFreq+0x70>)
        prediv = aPredivFactorTable[(uint32_t)(RCC->CFGR & RCC_CFGR_PLLXTPRE) >> RCC_CFGR_PLLXTPRE_Pos];
 8001db4:	f3c3 4340 	ubfx	r3, r3, #17, #1
        pllclk = (uint32_t)((HSE_VALUE  * pllmul) / prediv);
 8001db8:	4350      	muls	r0, r2
        prediv = aPredivFactorTable[(uint32_t)(RCC->CFGR & RCC_CFGR_PLLXTPRE) >> RCC_CFGR_PLLXTPRE_Pos];
 8001dba:	aa06      	add	r2, sp, #24
 8001dbc:	4413      	add	r3, r2
 8001dbe:	f813 3c14 	ldrb.w	r3, [r3, #-20]
        pllclk = (uint32_t)((HSE_VALUE  * pllmul) / prediv);
 8001dc2:	fbb0 f0f3 	udiv	r0, r0, r3
}
 8001dc6:	b007      	add	sp, #28
 8001dc8:	bd30      	pop	{r4, r5, pc}
        pllclk = (uint32_t)((HSI_VALUE >> 1) * pllmul);
 8001dca:	4805      	ldr	r0, [pc, #20]	; (8001de0 <HAL_RCC_GetSysClockFreq+0x74>)
 8001dcc:	4350      	muls	r0, r2
 8001dce:	e7fa      	b.n	8001dc6 <HAL_RCC_GetSysClockFreq+0x5a>
      sysclockfreq = HSE_VALUE;
 8001dd0:	4802      	ldr	r0, [pc, #8]	; (8001ddc <HAL_RCC_GetSysClockFreq+0x70>)
  return sysclockfreq;
 8001dd2:	e7f8      	b.n	8001dc6 <HAL_RCC_GetSysClockFreq+0x5a>
 8001dd4:	080046f4 	.word	0x080046f4
 8001dd8:	40021000 	.word	0x40021000
 8001ddc:	007a1200 	.word	0x007a1200
 8001de0:	003d0900 	.word	0x003d0900

08001de4 <HAL_RCC_ClockConfig>:
  if(FLatency > (FLASH->ACR & FLASH_ACR_LATENCY))
 8001de4:	4a4d      	ldr	r2, [pc, #308]	; (8001f1c <HAL_RCC_ClockConfig+0x138>)
{
 8001de6:	e92d 41f0 	stmdb	sp!, {r4, r5, r6, r7, r8, lr}
  if(FLatency > (FLASH->ACR & FLASH_ACR_LATENCY))
 8001dea:	6813      	ldr	r3, [r2, #0]
{
 8001dec:	4605      	mov	r5, r0
  if(FLatency > (FLASH->ACR & FLASH_ACR_LATENCY))
 8001dee:	f003 0307 	and.w	r3, r3, #7
 8001df2:	428b      	cmp	r3, r1
{
 8001df4:	460e      	mov	r6, r1
  if(FLatency > (FLASH->ACR & FLASH_ACR_LATENCY))
 8001df6:	d328      	bcc.n	8001e4a <HAL_RCC_ClockConfig+0x66>
  if(((RCC_ClkInitStruct->ClockType) & RCC_CLOCKTYPE_HCLK) == RCC_CLOCKTYPE_HCLK)
 8001df8:	682a      	ldr	r2, [r5, #0]
 8001dfa:	0791      	lsls	r1, r2, #30
 8001dfc:	d432      	bmi.n	8001e64 <HAL_RCC_ClockConfig+0x80>
  if(((RCC_ClkInitStruct->ClockType) & RCC_CLOCKTYPE_SYSCLK) == RCC_CLOCKTYPE_SYSCLK)
 8001dfe:	07d2      	lsls	r2, r2, #31
 8001e00:	d438      	bmi.n	8001e74 <HAL_RCC_ClockConfig+0x90>
  if(FLatency < (FLASH->ACR & FLASH_ACR_LATENCY))
 8001e02:	4a46      	ldr	r2, [pc, #280]	; (8001f1c <HAL_RCC_ClockConfig+0x138>)
 8001e04:	6813      	ldr	r3, [r2, #0]
 8001e06:	f003 0307 	and.w	r3, r3, #7
 8001e0a:	429e      	cmp	r6, r3
 8001e0c:	d373      	bcc.n	8001ef6 <HAL_RCC_ClockConfig+0x112>
  if(((RCC_ClkInitStruct->ClockType) & RCC_CLOCKTYPE_PCLK1) == RCC_CLOCKTYPE_PCLK1)
 8001e0e:	682a      	ldr	r2, [r5, #0]
 8001e10:	4c43      	ldr	r4, [pc, #268]	; (8001f20 <HAL_RCC_ClockConfig+0x13c>)
 8001e12:	f012 0f04 	tst.w	r2, #4
 8001e16:	d179      	bne.n	8001f0c <HAL_RCC_ClockConfig+0x128>
  if(((RCC_ClkInitStruct->ClockType) & RCC_CLOCKTYPE_PCLK2) == RCC_CLOCKTYPE_PCLK2)
 8001e18:	0713      	lsls	r3, r2, #28
 8001e1a:	d506      	bpl.n	8001e2a <HAL_RCC_ClockConfig+0x46>
    MODIFY_REG(RCC->CFGR, RCC_CFGR_PPRE2, ((RCC_ClkInitStruct->APB2CLKDivider) << 3));
 8001e1c:	6863      	ldr	r3, [r4, #4]
 8001e1e:	692a      	ldr	r2, [r5, #16]
 8001e20:	f423 5360 	bic.w	r3, r3, #14336	; 0x3800
 8001e24:	ea43 03c2 	orr.w	r3, r3, r2, lsl #3
 8001e28:	6063      	str	r3, [r4, #4]
  SystemCoreClock = HAL_RCC_GetSysClockFreq() >> AHBPrescTable[(RCC->CFGR & RCC_CFGR_HPRE)>> RCC_CFGR_HPRE_Pos];
 8001e2a:	f7ff ff9f 	bl	8001d6c <HAL_RCC_GetSysClockFreq>
 8001e2e:	6863      	ldr	r3, [r4, #4]
 8001e30:	4a3c      	ldr	r2, [pc, #240]	; (8001f24 <HAL_RCC_ClockConfig+0x140>)
 8001e32:	f3c3 1303 	ubfx	r3, r3, #4, #4
 8001e36:	5cd3      	ldrb	r3, [r2, r3]
 8001e38:	40d8      	lsrs	r0, r3
 8001e3a:	4b3b      	ldr	r3, [pc, #236]	; (8001f28 <HAL_RCC_ClockConfig+0x144>)
 8001e3c:	6018      	str	r0, [r3, #0]
  HAL_InitTick (TICK_INT_PRIORITY);
 8001e3e:	2000      	movs	r0, #0
 8001e40:	f7ff f82e 	bl	8000ea0 <HAL_InitTick>
  return HAL_OK;
 8001e44:	2000      	movs	r0, #0
}
 8001e46:	e8bd 81f0 	ldmia.w	sp!, {r4, r5, r6, r7, r8, pc}
    __HAL_FLASH_SET_LATENCY(FLatency);
 8001e4a:	6813      	ldr	r3, [r2, #0]
 8001e4c:	f023 0307 	bic.w	r3, r3, #7
 8001e50:	430b      	orrs	r3, r1
 8001e52:	6013      	str	r3, [r2, #0]
    if((FLASH->ACR & FLASH_ACR_LATENCY) != FLatency)
 8001e54:	6813      	ldr	r3, [r2, #0]
 8001e56:	f003 0307 	and.w	r3, r3, #7
 8001e5a:	4299      	cmp	r1, r3
 8001e5c:	d0cc      	beq.n	8001df8 <HAL_RCC_ClockConfig+0x14>
      return HAL_ERROR;
 8001e5e:	2001      	movs	r0, #1
 8001e60:	e8bd 81f0 	ldmia.w	sp!, {r4, r5, r6, r7, r8, pc}
    MODIFY_REG(RCC->CFGR, RCC_CFGR_HPRE, RCC_ClkInitStruct->AHBCLKDivider);
 8001e64:	492e      	ldr	r1, [pc, #184]	; (8001f20 <HAL_RCC_ClockConfig+0x13c>)
 8001e66:	68a8      	ldr	r0, [r5, #8]
 8001e68:	684b      	ldr	r3, [r1, #4]
 8001e6a:	f023 03f0 	bic.w	r3, r3, #240	; 0xf0
 8001e6e:	4303      	orrs	r3, r0
 8001e70:	604b      	str	r3, [r1, #4]
 8001e72:	e7c4      	b.n	8001dfe <HAL_RCC_ClockConfig+0x1a>
    if(RCC_ClkInitStruct->SYSCLKSource == RCC_SYSCLKSOURCE_HSE)
 8001e74:	686a      	ldr	r2, [r5, #4]
 8001e76:	4c2a      	ldr	r4, [pc, #168]	; (8001f20 <HAL_RCC_ClockConfig+0x13c>)
 8001e78:	2a01      	cmp	r2, #1
      if(__HAL_RCC_GET_FLAG(RCC_FLAG_HSERDY) == RESET)
 8001e7a:	6823      	ldr	r3, [r4, #0]
    if(RCC_ClkInitStruct->SYSCLKSource == RCC_SYSCLKSOURCE_HSE)
 8001e7c:	d11c      	bne.n	8001eb8 <HAL_RCC_ClockConfig+0xd4>
      if(__HAL_RCC_GET_FLAG(RCC_FLAG_HSERDY) == RESET)
 8001e7e:	f413 3f00 	tst.w	r3, #131072	; 0x20000
      if(__HAL_RCC_GET_FLAG(RCC_FLAG_HSIRDY) == RESET)
 8001e82:	d0ec      	beq.n	8001e5e <HAL_RCC_ClockConfig+0x7a>
    __HAL_RCC_SYSCLK_CONFIG(RCC_ClkInitStruct->SYSCLKSource);
 8001e84:	6863      	ldr	r3, [r4, #4]
        if((HAL_GetTick() - tickstart ) > CLOCKSWITCH_TIMEOUT_VALUE)
 8001e86:	f241 3888 	movw	r8, #5000	; 0x1388
    __HAL_RCC_SYSCLK_CONFIG(RCC_ClkInitStruct->SYSCLKSource);
 8001e8a:	f023 0303 	bic.w	r3, r3, #3
 8001e8e:	4313      	orrs	r3, r2
 8001e90:	6063      	str	r3, [r4, #4]
    tickstart = HAL_GetTick();
 8001e92:	f7ff f847 	bl	8000f24 <HAL_GetTick>
    if(RCC_ClkInitStruct->SYSCLKSource == RCC_SYSCLKSOURCE_HSE)
 8001e96:	686b      	ldr	r3, [r5, #4]
    tickstart = HAL_GetTick();
 8001e98:	4607      	mov	r7, r0
    if(RCC_ClkInitStruct->SYSCLKSource == RCC_SYSCLKSOURCE_HSE)
 8001e9a:	2b01      	cmp	r3, #1
 8001e9c:	d114      	bne.n	8001ec8 <HAL_RCC_ClockConfig+0xe4>
      while (__HAL_RCC_GET_SYSCLK_SOURCE() != RCC_SYSCLKSOURCE_STATUS_HSE)
 8001e9e:	6863      	ldr	r3, [r4, #4]
 8001ea0:	f003 030c 	and.w	r3, r3, #12
 8001ea4:	2b04      	cmp	r3, #4
 8001ea6:	d0ac      	beq.n	8001e02 <HAL_RCC_ClockConfig+0x1e>
        if((HAL_GetTick() - tickstart ) > CLOCKSWITCH_TIMEOUT_VALUE)
 8001ea8:	f7ff f83c 	bl	8000f24 <HAL_GetTick>
 8001eac:	1bc0      	subs	r0, r0, r7
 8001eae:	4540      	cmp	r0, r8
 8001eb0:	d9f5      	bls.n	8001e9e <HAL_RCC_ClockConfig+0xba>
          return HAL_TIMEOUT;
 8001eb2:	2003      	movs	r0, #3
 8001eb4:	e8bd 81f0 	ldmia.w	sp!, {r4, r5, r6, r7, r8, pc}
    else if(RCC_ClkInitStruct->SYSCLKSource == RCC_SYSCLKSOURCE_PLLCLK)
 8001eb8:	2a02      	cmp	r2, #2
 8001eba:	d102      	bne.n	8001ec2 <HAL_RCC_ClockConfig+0xde>
      if(__HAL_RCC_GET_FLAG(RCC_FLAG_PLLRDY) == RESET)
 8001ebc:	f013 7f00 	tst.w	r3, #33554432	; 0x2000000
 8001ec0:	e7df      	b.n	8001e82 <HAL_RCC_ClockConfig+0x9e>
      if(__HAL_RCC_GET_FLAG(RCC_FLAG_HSIRDY) == RESET)
 8001ec2:	f013 0f02 	tst.w	r3, #2
 8001ec6:	e7dc      	b.n	8001e82 <HAL_RCC_ClockConfig+0x9e>
    else if(RCC_ClkInitStruct->SYSCLKSource == RCC_SYSCLKSOURCE_PLLCLK)
 8001ec8:	2b02      	cmp	r3, #2
 8001eca:	d10f      	bne.n	8001eec <HAL_RCC_ClockConfig+0x108>
      while (__HAL_RCC_GET_SYSCLK_SOURCE() != RCC_SYSCLKSOURCE_STATUS_PLLCLK)
 8001ecc:	6863      	ldr	r3, [r4, #4]
 8001ece:	f003 030c 	and.w	r3, r3, #12
 8001ed2:	2b08      	cmp	r3, #8
 8001ed4:	d095      	beq.n	8001e02 <HAL_RCC_ClockConfig+0x1e>
        if((HAL_GetTick() - tickstart ) > CLOCKSWITCH_TIMEOUT_VALUE)
 8001ed6:	f7ff f825 	bl	8000f24 <HAL_GetTick>
 8001eda:	1bc0      	subs	r0, r0, r7
 8001edc:	4540      	cmp	r0, r8
 8001ede:	d9f5      	bls.n	8001ecc <HAL_RCC_ClockConfig+0xe8>
 8001ee0:	e7e7      	b.n	8001eb2 <HAL_RCC_ClockConfig+0xce>
        if((HAL_GetTick() - tickstart ) > CLOCKSWITCH_TIMEOUT_VALUE)
 8001ee2:	f7ff f81f 	bl	8000f24 <HAL_GetTick>
 8001ee6:	1bc0      	subs	r0, r0, r7
 8001ee8:	4540      	cmp	r0, r8
 8001eea:	d8e2      	bhi.n	8001eb2 <HAL_RCC_ClockConfig+0xce>
      while (__HAL_RCC_GET_SYSCLK_SOURCE() != RCC_SYSCLKSOURCE_STATUS_HSI)
 8001eec:	6863      	ldr	r3, [r4, #4]
 8001eee:	f013 0f0c 	tst.w	r3, #12
 8001ef2:	d1f6      	bne.n	8001ee2 <HAL_RCC_ClockConfig+0xfe>
 8001ef4:	e785      	b.n	8001e02 <HAL_RCC_ClockConfig+0x1e>
    __HAL_FLASH_SET_LATENCY(FLatency);
 8001ef6:	6813      	ldr	r3, [r2, #0]
 8001ef8:	f023 0307 	bic.w	r3, r3, #7
 8001efc:	4333      	orrs	r3, r6
 8001efe:	6013      	str	r3, [r2, #0]
    if((FLASH->ACR & FLASH_ACR_LATENCY) != FLatency)
 8001f00:	6813      	ldr	r3, [r2, #0]
 8001f02:	f003 0307 	and.w	r3, r3, #7
 8001f06:	429e      	cmp	r6, r3
 8001f08:	d1a9      	bne.n	8001e5e <HAL_RCC_ClockConfig+0x7a>
 8001f0a:	e780      	b.n	8001e0e <HAL_RCC_ClockConfig+0x2a>
    MODIFY_REG(RCC->CFGR, RCC_CFGR_PPRE1, RCC_ClkInitStruct->APB1CLKDivider);
 8001f0c:	6863      	ldr	r3, [r4, #4]
 8001f0e:	68e9      	ldr	r1, [r5, #12]
 8001f10:	f423 63e0 	bic.w	r3, r3, #1792	; 0x700
 8001f14:	430b      	orrs	r3, r1
 8001f16:	6063      	str	r3, [r4, #4]
 8001f18:	e77e      	b.n	8001e18 <HAL_RCC_ClockConfig+0x34>
 8001f1a:	bf00      	nop
 8001f1c:	40022000 	.word	0x40022000
 8001f20:	40021000 	.word	0x40021000
 8001f24:	0800477d 	.word	0x0800477d
 8001f28:	2000004c 	.word	0x2000004c

08001f2c <HAL_RCC_GetHCLKFreq>:
}
 8001f2c:	4b01      	ldr	r3, [pc, #4]	; (8001f34 <HAL_RCC_GetHCLKFreq+0x8>)
 8001f2e:	6818      	ldr	r0, [r3, #0]
 8001f30:	4770      	bx	lr
 8001f32:	bf00      	nop
 8001f34:	2000004c 	.word	0x2000004c

08001f38 <HAL_RCC_GetPCLK1Freq>:
  return (HAL_RCC_GetHCLKFreq() >> APBPrescTable[(RCC->CFGR & RCC_CFGR_PPRE1) >> RCC_CFGR_PPRE1_Pos]);
 8001f38:	4b04      	ldr	r3, [pc, #16]	; (8001f4c <HAL_RCC_GetPCLK1Freq+0x14>)
 8001f3a:	4a05      	ldr	r2, [pc, #20]	; (8001f50 <HAL_RCC_GetPCLK1Freq+0x18>)
 8001f3c:	685b      	ldr	r3, [r3, #4]
 8001f3e:	f3c3 2302 	ubfx	r3, r3, #8, #3
 8001f42:	5cd3      	ldrb	r3, [r2, r3]
 8001f44:	4a03      	ldr	r2, [pc, #12]	; (8001f54 <HAL_RCC_GetPCLK1Freq+0x1c>)
 8001f46:	6810      	ldr	r0, [r2, #0]
}    
 8001f48:	40d8      	lsrs	r0, r3
 8001f4a:	4770      	bx	lr
 8001f4c:	40021000 	.word	0x40021000
 8001f50:	0800478d 	.word	0x0800478d
 8001f54:	2000004c 	.word	0x2000004c

08001f58 <HAL_RCC_GetPCLK2Freq>:
  return (HAL_RCC_GetHCLKFreq()>> APBPrescTable[(RCC->CFGR & RCC_CFGR_PPRE2) >> RCC_CFGR_PPRE2_Pos]);
 8001f58:	4b04      	ldr	r3, [pc, #16]	; (8001f6c <HAL_RCC_GetPCLK2Freq+0x14>)
 8001f5a:	4a05      	ldr	r2, [pc, #20]	; (8001f70 <HAL_RCC_GetPCLK2Freq+0x18>)
 8001f5c:	685b      	ldr	r3, [r3, #4]
 8001f5e:	f3c3 23c2 	ubfx	r3, r3, #11, #3
 8001f62:	5cd3      	ldrb	r3, [r2, r3]
 8001f64:	4a03      	ldr	r2, [pc, #12]	; (8001f74 <HAL_RCC_GetPCLK2Freq+0x1c>)
 8001f66:	6810      	ldr	r0, [r2, #0]
} 
 8001f68:	40d8      	lsrs	r0, r3
 8001f6a:	4770      	bx	lr
 8001f6c:	40021000 	.word	0x40021000
 8001f70:	0800478d 	.word	0x0800478d
 8001f74:	2000004c 	.word	0x2000004c

08001f78 <HAL_RCCEx_PeriphCLKConfig>:

  /* Check the parameters */
  assert_param(IS_RCC_PERIPHCLOCK(PeriphClkInit->PeriphClockSelection));
  
  /*------------------------------- RTC/LCD Configuration ------------------------*/ 
  if ((((PeriphClkInit->PeriphClockSelection) & RCC_PERIPHCLK_RTC) == RCC_PERIPHCLK_RTC))
 8001f78:	6803      	ldr	r3, [r0, #0]
{
 8001f7a:	e92d 41f3 	stmdb	sp!, {r0, r1, r4, r5, r6, r7, r8, lr}
  if ((((PeriphClkInit->PeriphClockSelection) & RCC_PERIPHCLK_RTC) == RCC_PERIPHCLK_RTC))
 8001f7e:	07d9      	lsls	r1, r3, #31
{
 8001f80:	4605      	mov	r5, r0
  if ((((PeriphClkInit->PeriphClockSelection) & RCC_PERIPHCLK_RTC) == RCC_PERIPHCLK_RTC))
 8001f82:	d520      	bpl.n	8001fc6 <HAL_RCCEx_PeriphCLKConfig+0x4e>
    FlagStatus       pwrclkchanged = RESET;

    /* As soon as function is called to change RTC clock source, activation of the 
       power domain is done. */
    /* Requires to enable write access to Backup Domain of necessary */
    if(__HAL_RCC_PWR_IS_CLK_DISABLED())
 8001f84:	4c35      	ldr	r4, [pc, #212]	; (800205c <HAL_RCCEx_PeriphCLKConfig+0xe4>)
 8001f86:	69e3      	ldr	r3, [r4, #28]
 8001f88:	00da      	lsls	r2, r3, #3
 8001f8a:	d432      	bmi.n	8001ff2 <HAL_RCCEx_PeriphCLKConfig+0x7a>
    {
    __HAL_RCC_PWR_CLK_ENABLE();
      pwrclkchanged = SET;
 8001f8c:	2701      	movs	r7, #1
    __HAL_RCC_PWR_CLK_ENABLE();
 8001f8e:	69e3      	ldr	r3, [r4, #28]
 8001f90:	f043 5380 	orr.w	r3, r3, #268435456	; 0x10000000
 8001f94:	61e3      	str	r3, [r4, #28]
 8001f96:	69e3      	ldr	r3, [r4, #28]
 8001f98:	f003 5380 	and.w	r3, r3, #268435456	; 0x10000000
 8001f9c:	9301      	str	r3, [sp, #4]
 8001f9e:	9b01      	ldr	r3, [sp, #4]
    }
    
    if(HAL_IS_BIT_CLR(PWR->CR, PWR_CR_DBP))
 8001fa0:	4e2f      	ldr	r6, [pc, #188]	; (8002060 <HAL_RCCEx_PeriphCLKConfig+0xe8>)
 8001fa2:	6833      	ldr	r3, [r6, #0]
 8001fa4:	05db      	lsls	r3, r3, #23
 8001fa6:	d526      	bpl.n	8001ff6 <HAL_RCCEx_PeriphCLKConfig+0x7e>
        }
      }
    }
      
    /* Reset the Backup domain only if the RTC Clock source selection is modified from reset value */ 
    temp_reg = (RCC->BDCR & RCC_BDCR_RTCSEL);
 8001fa8:	6a23      	ldr	r3, [r4, #32]
    if((temp_reg != 0x00000000U) && (temp_reg != (PeriphClkInit->RTCClockSelection & RCC_BDCR_RTCSEL)))
 8001faa:	f413 7340 	ands.w	r3, r3, #768	; 0x300
 8001fae:	d136      	bne.n	800201e <HAL_RCCEx_PeriphCLKConfig+0xa6>
            return HAL_TIMEOUT;
          }      
        }  
      }
    }
    __HAL_RCC_RTC_CONFIG(PeriphClkInit->RTCClockSelection); 
 8001fb0:	6a23      	ldr	r3, [r4, #32]
 8001fb2:	686a      	ldr	r2, [r5, #4]
 8001fb4:	f423 7340 	bic.w	r3, r3, #768	; 0x300
 8001fb8:	4313      	orrs	r3, r2
 8001fba:	6223      	str	r3, [r4, #32]

    /* Require to disable power clock if necessary */
    if(pwrclkchanged == SET)
 8001fbc:	b11f      	cbz	r7, 8001fc6 <HAL_RCCEx_PeriphCLKConfig+0x4e>
    {
      __HAL_RCC_PWR_CLK_DISABLE();
 8001fbe:	69e3      	ldr	r3, [r4, #28]
 8001fc0:	f023 5380 	bic.w	r3, r3, #268435456	; 0x10000000
 8001fc4:	61e3      	str	r3, [r4, #28]
    }
  }

  /*------------------------------ ADC clock Configuration ------------------*/ 
  if(((PeriphClkInit->PeriphClockSelection) & RCC_PERIPHCLK_ADC) == RCC_PERIPHCLK_ADC)
 8001fc6:	6828      	ldr	r0, [r5, #0]
 8001fc8:	0783      	lsls	r3, r0, #30
 8001fca:	d506      	bpl.n	8001fda <HAL_RCCEx_PeriphCLKConfig+0x62>
  {
    /* Check the parameters */
    assert_param(IS_RCC_ADCPLLCLK_DIV(PeriphClkInit->AdcClockSelection));
    
    /* Configure the ADC clock source */
    __HAL_RCC_ADC_CONFIG(PeriphClkInit->AdcClockSelection);
 8001fcc:	4a23      	ldr	r2, [pc, #140]	; (800205c <HAL_RCCEx_PeriphCLKConfig+0xe4>)
 8001fce:	68a9      	ldr	r1, [r5, #8]
 8001fd0:	6853      	ldr	r3, [r2, #4]
 8001fd2:	f423 4340 	bic.w	r3, r3, #49152	; 0xc000
 8001fd6:	430b      	orrs	r3, r1
 8001fd8:	6053      	str	r3, [r2, #4]

#if defined(STM32F102x6) || defined(STM32F102xB) || defined(STM32F103x6)\
 || defined(STM32F103xB) || defined(STM32F103xE) || defined(STM32F103xG)\
 || defined(STM32F105xC) || defined(STM32F107xC)
  /*------------------------------ USB clock Configuration ------------------*/ 
  if(((PeriphClkInit->PeriphClockSelection) & RCC_PERIPHCLK_USB) == RCC_PERIPHCLK_USB)
 8001fda:	f010 0010 	ands.w	r0, r0, #16
 8001fde:	d01b      	beq.n	8002018 <HAL_RCCEx_PeriphCLKConfig+0xa0>
  {
    /* Check the parameters */
    assert_param(IS_RCC_USBPLLCLK_DIV(PeriphClkInit->UsbClockSelection));
    
    /* Configure the USB clock source */
    __HAL_RCC_USB_CONFIG(PeriphClkInit->UsbClockSelection);
 8001fe0:	4a1e      	ldr	r2, [pc, #120]	; (800205c <HAL_RCCEx_PeriphCLKConfig+0xe4>)
 8001fe2:	68e9      	ldr	r1, [r5, #12]
 8001fe4:	6853      	ldr	r3, [r2, #4]
  }
#endif /* STM32F102x6 || STM32F102xB || STM32F103x6 || STM32F103xB || STM32F103xE || STM32F103xG || STM32F105xC || STM32F107xC */

  return HAL_OK;
 8001fe6:	2000      	movs	r0, #0
    __HAL_RCC_USB_CONFIG(PeriphClkInit->UsbClockSelection);
 8001fe8:	f423 0380 	bic.w	r3, r3, #4194304	; 0x400000
 8001fec:	430b      	orrs	r3, r1
 8001fee:	6053      	str	r3, [r2, #4]
 8001ff0:	e012      	b.n	8002018 <HAL_RCCEx_PeriphCLKConfig+0xa0>
    FlagStatus       pwrclkchanged = RESET;
 8001ff2:	2700      	movs	r7, #0
 8001ff4:	e7d4      	b.n	8001fa0 <HAL_RCCEx_PeriphCLKConfig+0x28>
      SET_BIT(PWR->CR, PWR_CR_DBP);
 8001ff6:	6833      	ldr	r3, [r6, #0]
 8001ff8:	f443 7380 	orr.w	r3, r3, #256	; 0x100
 8001ffc:	6033      	str	r3, [r6, #0]
      tickstart = HAL_GetTick();
 8001ffe:	f7fe ff91 	bl	8000f24 <HAL_GetTick>
 8002002:	4680      	mov	r8, r0
      while(HAL_IS_BIT_CLR(PWR->CR, PWR_CR_DBP))
 8002004:	6833      	ldr	r3, [r6, #0]
 8002006:	05d8      	lsls	r0, r3, #23
 8002008:	d4ce      	bmi.n	8001fa8 <HAL_RCCEx_PeriphCLKConfig+0x30>
        if((HAL_GetTick() - tickstart) > RCC_DBP_TIMEOUT_VALUE)
 800200a:	f7fe ff8b 	bl	8000f24 <HAL_GetTick>
 800200e:	eba0 0008 	sub.w	r0, r0, r8
 8002012:	2864      	cmp	r0, #100	; 0x64
 8002014:	d9f6      	bls.n	8002004 <HAL_RCCEx_PeriphCLKConfig+0x8c>
          return HAL_TIMEOUT;
 8002016:	2003      	movs	r0, #3
}
 8002018:	b002      	add	sp, #8
 800201a:	e8bd 81f0 	ldmia.w	sp!, {r4, r5, r6, r7, r8, pc}
    if((temp_reg != 0x00000000U) && (temp_reg != (PeriphClkInit->RTCClockSelection & RCC_BDCR_RTCSEL)))
 800201e:	686a      	ldr	r2, [r5, #4]
 8002020:	f402 7240 	and.w	r2, r2, #768	; 0x300
 8002024:	4293      	cmp	r3, r2
 8002026:	d0c3      	beq.n	8001fb0 <HAL_RCCEx_PeriphCLKConfig+0x38>
      __HAL_RCC_BACKUPRESET_FORCE();
 8002028:	2001      	movs	r0, #1
 800202a:	4a0e      	ldr	r2, [pc, #56]	; (8002064 <HAL_RCCEx_PeriphCLKConfig+0xec>)
      temp_reg = (RCC->BDCR & ~(RCC_BDCR_RTCSEL));
 800202c:	6a23      	ldr	r3, [r4, #32]
      __HAL_RCC_BACKUPRESET_FORCE();
 800202e:	6010      	str	r0, [r2, #0]
      __HAL_RCC_BACKUPRESET_RELEASE();
 8002030:	2000      	movs	r0, #0
      temp_reg = (RCC->BDCR & ~(RCC_BDCR_RTCSEL));
 8002032:	f423 7140 	bic.w	r1, r3, #768	; 0x300
      __HAL_RCC_BACKUPRESET_RELEASE();
 8002036:	6010      	str	r0, [r2, #0]
      RCC->BDCR = temp_reg;
 8002038:	6221      	str	r1, [r4, #32]
      if (HAL_IS_BIT_SET(temp_reg, RCC_BDCR_LSEON))
 800203a:	07d9      	lsls	r1, r3, #31
 800203c:	d5b8      	bpl.n	8001fb0 <HAL_RCCEx_PeriphCLKConfig+0x38>
        tickstart = HAL_GetTick();
 800203e:	f7fe ff71 	bl	8000f24 <HAL_GetTick>
          if((HAL_GetTick() - tickstart) > RCC_LSE_TIMEOUT_VALUE)
 8002042:	f241 3888 	movw	r8, #5000	; 0x1388
        tickstart = HAL_GetTick();
 8002046:	4606      	mov	r6, r0
        while(__HAL_RCC_GET_FLAG(RCC_FLAG_LSERDY) == RESET)
 8002048:	6a23      	ldr	r3, [r4, #32]
 800204a:	079a      	lsls	r2, r3, #30
 800204c:	d4b0      	bmi.n	8001fb0 <HAL_RCCEx_PeriphCLKConfig+0x38>
          if((HAL_GetTick() - tickstart) > RCC_LSE_TIMEOUT_VALUE)
 800204e:	f7fe ff69 	bl	8000f24 <HAL_GetTick>
 8002052:	1b80      	subs	r0, r0, r6
 8002054:	4540      	cmp	r0, r8
 8002056:	d9f7      	bls.n	8002048 <HAL_RCCEx_PeriphCLKConfig+0xd0>
 8002058:	e7dd      	b.n	8002016 <HAL_RCCEx_PeriphCLKConfig+0x9e>
 800205a:	bf00      	nop
 800205c:	40021000 	.word	0x40021000
 8002060:	40007000 	.word	0x40007000
 8002064:	42420440 	.word	0x42420440

08002068 <HAL_SPI_ErrorCallback>:
 8002068:	4770      	bx	lr
	...

0800206c <HAL_SPI_IRQHandler>:
  *               the configuration information for the specified SPI module.
  * @retval None
  */
void HAL_SPI_IRQHandler(SPI_HandleTypeDef *hspi)
{
  uint32_t itsource = hspi->Instance->CR2;
 800206c:	6803      	ldr	r3, [r0, #0]
{
 800206e:	b530      	push	{r4, r5, lr}
  uint32_t itsource = hspi->Instance->CR2;
 8002070:	6859      	ldr	r1, [r3, #4]
  uint32_t itflag   = hspi->Instance->SR;
 8002072:	689a      	ldr	r2, [r3, #8]
{
 8002074:	b085      	sub	sp, #20

  /* SPI in mode Receiver ----------------------------------------------------*/
  if(((itflag & SPI_FLAG_OVR) == RESET) &&
 8002076:	f002 0541 	and.w	r5, r2, #65	; 0x41
 800207a:	2d01      	cmp	r5, #1
{
 800207c:	4604      	mov	r4, r0
  if(((itflag & SPI_FLAG_OVR) == RESET) &&
 800207e:	d105      	bne.n	800208c <HAL_SPI_IRQHandler+0x20>
     ((itflag & SPI_FLAG_RXNE) != RESET) && ((itsource & SPI_IT_RXNE) != RESET))
 8002080:	064d      	lsls	r5, r1, #25
 8002082:	d503      	bpl.n	800208c <HAL_SPI_IRQHandler+0x20>
  {
    hspi->RxISR(hspi);
 8002084:	6c03      	ldr	r3, [r0, #64]	; 0x40
  }

  /* SPI in mode Transmitter -------------------------------------------------*/
  if(((itflag & SPI_FLAG_TXE) != RESET) && ((itsource & SPI_IT_TXE) != RESET))
  {
    hspi->TxISR(hspi);
 8002086:	4798      	blx	r3
        HAL_SPI_ErrorCallback(hspi);
      }
    }
    return;
  }
}
 8002088:	b005      	add	sp, #20
 800208a:	bd30      	pop	{r4, r5, pc}
  if(((itflag & SPI_FLAG_TXE) != RESET) && ((itsource & SPI_IT_TXE) != RESET))
 800208c:	0790      	lsls	r0, r2, #30
 800208e:	d504      	bpl.n	800209a <HAL_SPI_IRQHandler+0x2e>
 8002090:	060d      	lsls	r5, r1, #24
 8002092:	d502      	bpl.n	800209a <HAL_SPI_IRQHandler+0x2e>
    hspi->TxISR(hspi);
 8002094:	6c63      	ldr	r3, [r4, #68]	; 0x44
 8002096:	4620      	mov	r0, r4
 8002098:	e7f5      	b.n	8002086 <HAL_SPI_IRQHandler+0x1a>
  if(((itflag & (SPI_FLAG_MODF | SPI_FLAG_OVR)) != RESET) && ((itsource & SPI_IT_ERR) != RESET))
 800209a:	f012 0f60 	tst.w	r2, #96	; 0x60
 800209e:	d0f3      	beq.n	8002088 <HAL_SPI_IRQHandler+0x1c>
 80020a0:	0688      	lsls	r0, r1, #26
 80020a2:	d5f1      	bpl.n	8002088 <HAL_SPI_IRQHandler+0x1c>
    if((itflag & SPI_FLAG_OVR) != RESET)
 80020a4:	0655      	lsls	r5, r2, #25
 80020a6:	d50e      	bpl.n	80020c6 <HAL_SPI_IRQHandler+0x5a>
      if(hspi->State != HAL_SPI_STATE_BUSY_TX)
 80020a8:	f894 0051 	ldrb.w	r0, [r4, #81]	; 0x51
 80020ac:	2500      	movs	r5, #0
 80020ae:	2803      	cmp	r0, #3
 80020b0:	d036      	beq.n	8002120 <HAL_SPI_IRQHandler+0xb4>
        SET_BIT(hspi->ErrorCode, HAL_SPI_ERROR_OVR);
 80020b2:	6d60      	ldr	r0, [r4, #84]	; 0x54
 80020b4:	f040 0004 	orr.w	r0, r0, #4
 80020b8:	6560      	str	r0, [r4, #84]	; 0x54
        __HAL_SPI_CLEAR_OVRFLAG(hspi);
 80020ba:	9501      	str	r5, [sp, #4]
 80020bc:	68d8      	ldr	r0, [r3, #12]
 80020be:	9001      	str	r0, [sp, #4]
 80020c0:	6898      	ldr	r0, [r3, #8]
 80020c2:	9001      	str	r0, [sp, #4]
 80020c4:	9801      	ldr	r0, [sp, #4]
    if((itflag & SPI_FLAG_MODF) != RESET)
 80020c6:	0690      	lsls	r0, r2, #26
 80020c8:	d50c      	bpl.n	80020e4 <HAL_SPI_IRQHandler+0x78>
      SET_BIT(hspi->ErrorCode, HAL_SPI_ERROR_MODF);
 80020ca:	6d62      	ldr	r2, [r4, #84]	; 0x54
 80020cc:	f042 0201 	orr.w	r2, r2, #1
 80020d0:	6562      	str	r2, [r4, #84]	; 0x54
      __HAL_SPI_CLEAR_MODFFLAG(hspi);
 80020d2:	2200      	movs	r2, #0
 80020d4:	9203      	str	r2, [sp, #12]
 80020d6:	689a      	ldr	r2, [r3, #8]
 80020d8:	9203      	str	r2, [sp, #12]
 80020da:	681a      	ldr	r2, [r3, #0]
 80020dc:	f022 0240 	bic.w	r2, r2, #64	; 0x40
 80020e0:	601a      	str	r2, [r3, #0]
 80020e2:	9a03      	ldr	r2, [sp, #12]
    if(hspi->ErrorCode != HAL_SPI_ERROR_NONE)
 80020e4:	6d62      	ldr	r2, [r4, #84]	; 0x54
 80020e6:	2a00      	cmp	r2, #0
 80020e8:	d0ce      	beq.n	8002088 <HAL_SPI_IRQHandler+0x1c>
      __HAL_SPI_DISABLE_IT(hspi, SPI_IT_RXNE | SPI_IT_TXE | SPI_IT_ERR);
 80020ea:	685a      	ldr	r2, [r3, #4]
 80020ec:	f022 02e0 	bic.w	r2, r2, #224	; 0xe0
 80020f0:	605a      	str	r2, [r3, #4]
      hspi->State = HAL_SPI_STATE_READY;
 80020f2:	2201      	movs	r2, #1
 80020f4:	f884 2051 	strb.w	r2, [r4, #81]	; 0x51
      if ((HAL_IS_BIT_SET(itsource, SPI_CR2_TXDMAEN))||(HAL_IS_BIT_SET(itsource, SPI_CR2_RXDMAEN)))
 80020f8:	078a      	lsls	r2, r1, #30
 80020fa:	d018      	beq.n	800212e <HAL_SPI_IRQHandler+0xc2>
        CLEAR_BIT(hspi->Instance->CR2, (SPI_CR2_TXDMAEN | SPI_CR2_RXDMAEN));
 80020fc:	685a      	ldr	r2, [r3, #4]
        if(hspi->hdmarx != NULL)
 80020fe:	6ce0      	ldr	r0, [r4, #76]	; 0x4c
        CLEAR_BIT(hspi->Instance->CR2, (SPI_CR2_TXDMAEN | SPI_CR2_RXDMAEN));
 8002100:	f022 0203 	bic.w	r2, r2, #3
 8002104:	605a      	str	r2, [r3, #4]
        if(hspi->hdmarx != NULL)
 8002106:	b118      	cbz	r0, 8002110 <HAL_SPI_IRQHandler+0xa4>
          hspi->hdmarx->XferAbortCallback = SPI_DMAAbortOnError;
 8002108:	4b0b      	ldr	r3, [pc, #44]	; (8002138 <HAL_SPI_IRQHandler+0xcc>)
 800210a:	6343      	str	r3, [r0, #52]	; 0x34
          HAL_DMA_Abort_IT(hspi->hdmarx);
 800210c:	f7ff fa5c 	bl	80015c8 <HAL_DMA_Abort_IT>
        if(hspi->hdmatx != NULL)
 8002110:	6ca0      	ldr	r0, [r4, #72]	; 0x48
 8002112:	2800      	cmp	r0, #0
 8002114:	d0b8      	beq.n	8002088 <HAL_SPI_IRQHandler+0x1c>
          hspi->hdmatx->XferAbortCallback = SPI_DMAAbortOnError;
 8002116:	4b08      	ldr	r3, [pc, #32]	; (8002138 <HAL_SPI_IRQHandler+0xcc>)
 8002118:	6343      	str	r3, [r0, #52]	; 0x34
          HAL_DMA_Abort_IT(hspi->hdmatx);
 800211a:	f7ff fa55 	bl	80015c8 <HAL_DMA_Abort_IT>
 800211e:	e7b3      	b.n	8002088 <HAL_SPI_IRQHandler+0x1c>
        __HAL_SPI_CLEAR_OVRFLAG(hspi);
 8002120:	9502      	str	r5, [sp, #8]
 8002122:	68da      	ldr	r2, [r3, #12]
 8002124:	9202      	str	r2, [sp, #8]
 8002126:	689b      	ldr	r3, [r3, #8]
 8002128:	9302      	str	r3, [sp, #8]
 800212a:	9b02      	ldr	r3, [sp, #8]
        return;
 800212c:	e7ac      	b.n	8002088 <HAL_SPI_IRQHandler+0x1c>
        HAL_SPI_ErrorCallback(hspi);
 800212e:	4620      	mov	r0, r4
 8002130:	f7ff ff9a 	bl	8002068 <HAL_SPI_ErrorCallback>
 8002134:	e7a8      	b.n	8002088 <HAL_SPI_IRQHandler+0x1c>
 8002136:	bf00      	nop
 8002138:	0800213d 	.word	0x0800213d

0800213c <SPI_DMAAbortOnError>:
  *         (To be called at end of DMA Abort procedure following error occurrence).
  * @param  hdma DMA handle.
  * @retval None
  */
static void SPI_DMAAbortOnError(DMA_HandleTypeDef *hdma)
{
 800213c:	b508      	push	{r3, lr}
  SPI_HandleTypeDef* hspi = ( SPI_HandleTypeDef* )((DMA_HandleTypeDef* )hdma)->Parent;
  hspi->RxXferCount = 0U;
 800213e:	2300      	movs	r3, #0
  SPI_HandleTypeDef* hspi = ( SPI_HandleTypeDef* )((DMA_HandleTypeDef* )hdma)->Parent;
 8002140:	6a40      	ldr	r0, [r0, #36]	; 0x24
  hspi->RxXferCount = 0U;
 8002142:	87c3      	strh	r3, [r0, #62]	; 0x3e
  hspi->TxXferCount = 0U;
 8002144:	86c3      	strh	r3, [r0, #54]	; 0x36

  HAL_SPI_ErrorCallback(hspi);
 8002146:	f7ff ff8f 	bl	8002068 <HAL_SPI_ErrorCallback>
 800214a:	bd08      	pop	{r3, pc}

0800214c <HAL_SPI_Init>:
  * @param  hspi: pointer to a SPI_HandleTypeDef structure that contains
  *                the configuration information for SPI module.
  * @retval HAL status
  */
HAL_StatusTypeDef HAL_SPI_Init(SPI_HandleTypeDef *hspi)
{
 800214c:	b510      	push	{r4, lr}
  /* Check the SPI handle allocation */
  if(hspi == NULL)
 800214e:	4604      	mov	r4, r0
 8002150:	2800      	cmp	r0, #0
 8002152:	d034      	beq.n	80021be <HAL_SPI_Init+0x72>
  if(hspi->Init.CRCCalculation == SPI_CRCCALCULATION_ENABLE)
  {
    assert_param(IS_SPI_CRC_POLYNOMIAL(hspi->Init.CRCPolynomial));
  }
#else
  hspi->Init.CRCCalculation = SPI_CRCCALCULATION_DISABLE;
 8002154:	2300      	movs	r3, #0
 8002156:	6283      	str	r3, [r0, #40]	; 0x28
#endif /* USE_SPI_CRC */

  if(hspi->State == HAL_SPI_STATE_RESET)
 8002158:	f890 3051 	ldrb.w	r3, [r0, #81]	; 0x51
 800215c:	b90b      	cbnz	r3, 8002162 <HAL_SPI_Init+0x16>
  {
    /* Init the low level hardware : GPIO, CLOCK, NVIC... */
    HAL_SPI_MspInit(hspi);
 800215e:	f001 ff37 	bl	8003fd0 <HAL_SPI_MspInit>
  }
  
  hspi->State = HAL_SPI_STATE_BUSY;
 8002162:	2302      	movs	r3, #2

  /* Disble the selected SPI peripheral */
  __HAL_SPI_DISABLE(hspi);
 8002164:	6821      	ldr	r1, [r4, #0]
  hspi->State = HAL_SPI_STATE_BUSY;
 8002166:	f884 3051 	strb.w	r3, [r4, #81]	; 0x51
  __HAL_SPI_DISABLE(hspi);
 800216a:	680b      	ldr	r3, [r1, #0]

  /*----------------------- SPIx CR1 & CR2 Configuration ---------------------*/
  /* Configure : SPI Mode, Communication Mode, Data size, Clock polarity and phase, NSS management,
  Communication speed, First bit and CRC calculation state */
  WRITE_REG(hspi->Instance->CR1, (hspi->Init.Mode | hspi->Init.Direction | hspi->Init.DataSize |
 800216c:	68a0      	ldr	r0, [r4, #8]
  __HAL_SPI_DISABLE(hspi);
 800216e:	f023 0340 	bic.w	r3, r3, #64	; 0x40
 8002172:	600b      	str	r3, [r1, #0]
  WRITE_REG(hspi->Instance->CR1, (hspi->Init.Mode | hspi->Init.Direction | hspi->Init.DataSize |
 8002174:	6863      	ldr	r3, [r4, #4]
 8002176:	69a2      	ldr	r2, [r4, #24]
 8002178:	4303      	orrs	r3, r0
 800217a:	68e0      	ldr	r0, [r4, #12]
 800217c:	4303      	orrs	r3, r0
 800217e:	6920      	ldr	r0, [r4, #16]
 8002180:	4303      	orrs	r3, r0
 8002182:	6960      	ldr	r0, [r4, #20]
 8002184:	4303      	orrs	r3, r0
 8002186:	69e0      	ldr	r0, [r4, #28]
 8002188:	4303      	orrs	r3, r0
 800218a:	6a20      	ldr	r0, [r4, #32]
 800218c:	4303      	orrs	r3, r0
 800218e:	6aa0      	ldr	r0, [r4, #40]	; 0x28
 8002190:	4303      	orrs	r3, r0
 8002192:	f402 7000 	and.w	r0, r2, #512	; 0x200
 8002196:	4303      	orrs	r3, r0
 8002198:	600b      	str	r3, [r1, #0]
                                  hspi->Init.CLKPolarity | hspi->Init.CLKPhase | (hspi->Init.NSS & SPI_CR1_SSM) |
                                  hspi->Init.BaudRatePrescaler | hspi->Init.FirstBit  | hspi->Init.CRCCalculation) );

  /* Configure : NSS management */
  WRITE_REG(hspi->Instance->CR2, (((hspi->Init.NSS >> 16U) & SPI_CR2_SSOE) | hspi->Init.TIMode));
 800219a:	0c12      	lsrs	r2, r2, #16
 800219c:	6a63      	ldr	r3, [r4, #36]	; 0x24
 800219e:	f002 0204 	and.w	r2, r2, #4
 80021a2:	431a      	orrs	r2, r3

  /*---------------------------- SPIx CRCPOLY Configuration ------------------*/
  /* Configure : CRC Polynomial */
  WRITE_REG(hspi->Instance->CRCPR, hspi->Init.CRCPolynomial);
 80021a4:	6ae3      	ldr	r3, [r4, #44]	; 0x2c
  WRITE_REG(hspi->Instance->CR2, (((hspi->Init.NSS >> 16U) & SPI_CR2_SSOE) | hspi->Init.TIMode));
 80021a6:	604a      	str	r2, [r1, #4]
  WRITE_REG(hspi->Instance->CRCPR, hspi->Init.CRCPolynomial);
 80021a8:	610b      	str	r3, [r1, #16]

#if defined(SPI_I2SCFGR_I2SMOD)
  /* Activate the SPI mode (Make sure that I2SMOD bit in I2SCFGR register is reset) */
  CLEAR_BIT(hspi->Instance->I2SCFGR, SPI_I2SCFGR_I2SMOD);
 80021aa:	69cb      	ldr	r3, [r1, #28]
#else
  uCRCErrorWorkaroundCheck = 0U;
#endif /* STM32F101xE || STM32F103xE */
#endif /* USE_SPI_CRC */

  hspi->ErrorCode = HAL_SPI_ERROR_NONE;
 80021ac:	2000      	movs	r0, #0
  CLEAR_BIT(hspi->Instance->I2SCFGR, SPI_I2SCFGR_I2SMOD);
 80021ae:	f423 6300 	bic.w	r3, r3, #2048	; 0x800
 80021b2:	61cb      	str	r3, [r1, #28]
  hspi->State = HAL_SPI_STATE_READY;
 80021b4:	2301      	movs	r3, #1
  hspi->ErrorCode = HAL_SPI_ERROR_NONE;
 80021b6:	6560      	str	r0, [r4, #84]	; 0x54
  hspi->State = HAL_SPI_STATE_READY;
 80021b8:	f884 3051 	strb.w	r3, [r4, #81]	; 0x51
  
  return HAL_OK;
 80021bc:	bd10      	pop	{r4, pc}
    return HAL_ERROR;
 80021be:	2001      	movs	r0, #1
}
 80021c0:	bd10      	pop	{r4, pc}

080021c2 <HAL_TIM_Base_Start>:
{
  /* Check the parameters */
  assert_param(IS_TIM_INSTANCE(htim->Instance));

  /* Set the TIM state */
  htim->State= HAL_TIM_STATE_BUSY;
 80021c2:	2302      	movs	r3, #2

  /* Enable the Peripheral */
  __HAL_TIM_ENABLE(htim);
 80021c4:	6802      	ldr	r2, [r0, #0]
  htim->State= HAL_TIM_STATE_BUSY;
 80021c6:	f880 303d 	strb.w	r3, [r0, #61]	; 0x3d
  __HAL_TIM_ENABLE(htim);
 80021ca:	6813      	ldr	r3, [r2, #0]
 80021cc:	f043 0301 	orr.w	r3, r3, #1
 80021d0:	6013      	str	r3, [r2, #0]

  /* Change the TIM state*/
  htim->State= HAL_TIM_STATE_READY;
 80021d2:	2301      	movs	r3, #1
 80021d4:	f880 303d 	strb.w	r3, [r0, #61]	; 0x3d

  /* Return function status */
  return HAL_OK;
}
 80021d8:	2000      	movs	r0, #0
 80021da:	4770      	bx	lr

080021dc <HAL_TIM_Base_Stop>:
{
  /* Check the parameters */
  assert_param(IS_TIM_INSTANCE(htim->Instance));

  /* Set the TIM state */
  htim->State= HAL_TIM_STATE_BUSY;
 80021dc:	2302      	movs	r3, #2

  /* Disable the Peripheral */
  __HAL_TIM_DISABLE(htim);
 80021de:	f241 1211 	movw	r2, #4369	; 0x1111
  htim->State= HAL_TIM_STATE_BUSY;
 80021e2:	f880 303d 	strb.w	r3, [r0, #61]	; 0x3d
  __HAL_TIM_DISABLE(htim);
 80021e6:	6803      	ldr	r3, [r0, #0]
 80021e8:	6a19      	ldr	r1, [r3, #32]
 80021ea:	4211      	tst	r1, r2
 80021ec:	d108      	bne.n	8002200 <HAL_TIM_Base_Stop+0x24>
 80021ee:	f240 4244 	movw	r2, #1092	; 0x444
 80021f2:	6a19      	ldr	r1, [r3, #32]
 80021f4:	4211      	tst	r1, r2
 80021f6:	bf02      	ittt	eq
 80021f8:	681a      	ldreq	r2, [r3, #0]
 80021fa:	f022 0201 	biceq.w	r2, r2, #1
 80021fe:	601a      	streq	r2, [r3, #0]

  /* Change the TIM state*/
  htim->State= HAL_TIM_STATE_READY;
 8002200:	2301      	movs	r3, #1
 8002202:	f880 303d 	strb.w	r3, [r0, #61]	; 0x3d

  /* Return function status */
  return HAL_OK;
}
 8002206:	2000      	movs	r0, #0
 8002208:	4770      	bx	lr

0800220a <HAL_TIM_IC_MspInit>:
 800220a:	4770      	bx	lr

0800220c <HAL_TIM_ConfigClockSource>:
HAL_StatusTypeDef HAL_TIM_ConfigClockSource(TIM_HandleTypeDef *htim, TIM_ClockConfigTypeDef * sClockSourceConfig)
{
  uint32_t tmpsmcr = 0U;

  /* Process Locked */
  __HAL_LOCK(htim);
 800220c:	f890 303c 	ldrb.w	r3, [r0, #60]	; 0x3c
{
 8002210:	b570      	push	{r4, r5, r6, lr}
  __HAL_LOCK(htim);
 8002212:	2b01      	cmp	r3, #1
 8002214:	f04f 0302 	mov.w	r3, #2
 8002218:	d01c      	beq.n	8002254 <HAL_TIM_ConfigClockSource+0x48>
 800221a:	2201      	movs	r2, #1

  htim->State = HAL_TIM_STATE_BUSY;
 800221c:	f880 303d 	strb.w	r3, [r0, #61]	; 0x3d

  /* Check the parameters */
  assert_param(IS_TIM_CLOCKSOURCE(sClockSourceConfig->ClockSource));

  /* Reset the SMS, TS, ECE, ETPS and ETRF bits */
  tmpsmcr = htim->Instance->SMCR;
 8002220:	6803      	ldr	r3, [r0, #0]
  __HAL_LOCK(htim);
 8002222:	f880 203c 	strb.w	r2, [r0, #60]	; 0x3c
  tmpsmcr = htim->Instance->SMCR;
 8002226:	689a      	ldr	r2, [r3, #8]
  tmpsmcr &= ~(TIM_SMCR_SMS | TIM_SMCR_TS);
  tmpsmcr &= ~(TIM_SMCR_ETF | TIM_SMCR_ETPS | TIM_SMCR_ECE | TIM_SMCR_ETP);
 8002228:	f422 427f 	bic.w	r2, r2, #65280	; 0xff00
 800222c:	f022 0277 	bic.w	r2, r2, #119	; 0x77
  htim->Instance->SMCR = tmpsmcr;
 8002230:	609a      	str	r2, [r3, #8]

  switch (sClockSourceConfig->ClockSource)
 8002232:	680a      	ldr	r2, [r1, #0]
 8002234:	2a40      	cmp	r2, #64	; 0x40
 8002236:	d079      	beq.n	800232c <HAL_TIM_ConfigClockSource+0x120>
 8002238:	d819      	bhi.n	800226e <HAL_TIM_ConfigClockSource+0x62>
 800223a:	2a10      	cmp	r2, #16
 800223c:	f000 8093 	beq.w	8002366 <HAL_TIM_ConfigClockSource+0x15a>
 8002240:	d80a      	bhi.n	8002258 <HAL_TIM_ConfigClockSource+0x4c>
 8002242:	2a00      	cmp	r2, #0
 8002244:	f000 8089 	beq.w	800235a <HAL_TIM_ConfigClockSource+0x14e>
    break;

  default:
    break;
  }
  htim->State = HAL_TIM_STATE_READY;
 8002248:	2301      	movs	r3, #1
 800224a:	f880 303d 	strb.w	r3, [r0, #61]	; 0x3d

  __HAL_UNLOCK(htim);
 800224e:	2300      	movs	r3, #0
 8002250:	f880 303c 	strb.w	r3, [r0, #60]	; 0x3c
  __HAL_LOCK(htim);
 8002254:	4618      	mov	r0, r3

  return HAL_OK;
}
 8002256:	bd70      	pop	{r4, r5, r6, pc}
  switch (sClockSourceConfig->ClockSource)
 8002258:	2a20      	cmp	r2, #32
 800225a:	f000 808a 	beq.w	8002372 <HAL_TIM_ConfigClockSource+0x166>
 800225e:	2a30      	cmp	r2, #48	; 0x30
 8002260:	d1f2      	bne.n	8002248 <HAL_TIM_ConfigClockSource+0x3c>
static void TIM_ITRx_SetConfig(TIM_TypeDef *TIMx, uint16_t InputTriggerSource)
{
  uint32_t tmpsmcr = 0U;

   /* Get the TIMx SMCR register value */
   tmpsmcr = TIMx->SMCR;
 8002262:	689a      	ldr	r2, [r3, #8]
   /* Reset the TS Bits */
   tmpsmcr &= ~TIM_SMCR_TS;
 8002264:	f022 0270 	bic.w	r2, r2, #112	; 0x70
   /* Set the Input Trigger source and the slave mode*/
   tmpsmcr |= InputTriggerSource | TIM_SLAVEMODE_EXTERNAL1;
 8002268:	f042 0237 	orr.w	r2, r2, #55	; 0x37
 800226c:	e036      	b.n	80022dc <HAL_TIM_ConfigClockSource+0xd0>
  switch (sClockSourceConfig->ClockSource)
 800226e:	2a70      	cmp	r2, #112	; 0x70
 8002270:	d036      	beq.n	80022e0 <HAL_TIM_ConfigClockSource+0xd4>
 8002272:	d81b      	bhi.n	80022ac <HAL_TIM_ConfigClockSource+0xa0>
 8002274:	2a50      	cmp	r2, #80	; 0x50
 8002276:	d042      	beq.n	80022fe <HAL_TIM_ConfigClockSource+0xf2>
 8002278:	2a60      	cmp	r2, #96	; 0x60
 800227a:	d1e5      	bne.n	8002248 <HAL_TIM_ConfigClockSource+0x3c>
  TIMx->CCER &= ~TIM_CCER_CC2E;
 800227c:	6a1c      	ldr	r4, [r3, #32]
      TIM_TI2_ConfigInputStage(htim->Instance,
 800227e:	684d      	ldr	r5, [r1, #4]
  TIMx->CCER &= ~TIM_CCER_CC2E;
 8002280:	f024 0410 	bic.w	r4, r4, #16
      TIM_TI2_ConfigInputStage(htim->Instance,
 8002284:	68ce      	ldr	r6, [r1, #12]
  TIMx->CCER &= ~TIM_CCER_CC2E;
 8002286:	621c      	str	r4, [r3, #32]
  tmpccmr1 = TIMx->CCMR1;
 8002288:	6999      	ldr	r1, [r3, #24]
  tmpccer = TIMx->CCER;
 800228a:	6a1a      	ldr	r2, [r3, #32]
  tmpccmr1 &= ~TIM_CCMR1_IC2F;
 800228c:	f421 4170 	bic.w	r1, r1, #61440	; 0xf000
  tmpccer &= ~(TIM_CCER_CC2P | TIM_CCER_CC2NP);
 8002290:	f022 02a0 	bic.w	r2, r2, #160	; 0xa0
  tmpccer |= (TIM_ICPolarity << 4U);
 8002294:	ea42 1205 	orr.w	r2, r2, r5, lsl #4
  tmpccmr1 |= (TIM_ICFilter << 12U);
 8002298:	ea41 3106 	orr.w	r1, r1, r6, lsl #12
  TIMx->CCMR1 = tmpccmr1 ;
 800229c:	6199      	str	r1, [r3, #24]
  TIMx->CCER = tmpccer;
 800229e:	621a      	str	r2, [r3, #32]
   tmpsmcr = TIMx->SMCR;
 80022a0:	689a      	ldr	r2, [r3, #8]
   tmpsmcr &= ~TIM_SMCR_TS;
 80022a2:	f022 0270 	bic.w	r2, r2, #112	; 0x70
   tmpsmcr |= InputTriggerSource | TIM_SLAVEMODE_EXTERNAL1;
 80022a6:	f042 0267 	orr.w	r2, r2, #103	; 0x67
 80022aa:	e017      	b.n	80022dc <HAL_TIM_ConfigClockSource+0xd0>
  switch (sClockSourceConfig->ClockSource)
 80022ac:	f5b2 5f80 	cmp.w	r2, #4096	; 0x1000
 80022b0:	d011      	beq.n	80022d6 <HAL_TIM_ConfigClockSource+0xca>
 80022b2:	f5b2 5f00 	cmp.w	r2, #8192	; 0x2000
 80022b6:	d1c7      	bne.n	8002248 <HAL_TIM_ConfigClockSource+0x3c>

  /* Reset the ETR Bits */
  tmpsmcr &= ~(TIM_SMCR_ETF | TIM_SMCR_ETPS | TIM_SMCR_ECE | TIM_SMCR_ETP);

  /* Set the Prescaler, the Filter value and the Polarity */
  tmpsmcr |= (uint32_t)(TIM_ExtTRGPrescaler | (TIM_ExtTRGPolarity | (ExtTRGFilter << 8U)));
 80022b8:	688a      	ldr	r2, [r1, #8]
 80022ba:	684d      	ldr	r5, [r1, #4]
  tmpsmcr = TIMx->SMCR;
 80022bc:	689c      	ldr	r4, [r3, #8]
  tmpsmcr |= (uint32_t)(TIM_ExtTRGPrescaler | (TIM_ExtTRGPolarity | (ExtTRGFilter << 8U)));
 80022be:	68c9      	ldr	r1, [r1, #12]
 80022c0:	432a      	orrs	r2, r5
  tmpsmcr &= ~(TIM_SMCR_ETF | TIM_SMCR_ETPS | TIM_SMCR_ECE | TIM_SMCR_ETP);
 80022c2:	f424 447f 	bic.w	r4, r4, #65280	; 0xff00
  tmpsmcr |= (uint32_t)(TIM_ExtTRGPrescaler | (TIM_ExtTRGPolarity | (ExtTRGFilter << 8U)));
 80022c6:	ea42 2201 	orr.w	r2, r2, r1, lsl #8
 80022ca:	4322      	orrs	r2, r4

  /* Write to TIMx SMCR */
  TIMx->SMCR = tmpsmcr;
 80022cc:	609a      	str	r2, [r3, #8]
      htim->Instance->SMCR |= TIM_SMCR_ECE;
 80022ce:	689a      	ldr	r2, [r3, #8]
 80022d0:	f442 4280 	orr.w	r2, r2, #16384	; 0x4000
 80022d4:	e002      	b.n	80022dc <HAL_TIM_ConfigClockSource+0xd0>
      htim->Instance->SMCR &= ~TIM_SMCR_SMS;
 80022d6:	689a      	ldr	r2, [r3, #8]
 80022d8:	f022 0207 	bic.w	r2, r2, #7
   TIMx->SMCR = tmpsmcr;
 80022dc:	609a      	str	r2, [r3, #8]
 80022de:	e7b3      	b.n	8002248 <HAL_TIM_ConfigClockSource+0x3c>
  tmpsmcr |= (uint32_t)(TIM_ExtTRGPrescaler | (TIM_ExtTRGPolarity | (ExtTRGFilter << 8U)));
 80022e0:	688a      	ldr	r2, [r1, #8]
 80022e2:	684d      	ldr	r5, [r1, #4]
  tmpsmcr = TIMx->SMCR;
 80022e4:	689c      	ldr	r4, [r3, #8]
  tmpsmcr |= (uint32_t)(TIM_ExtTRGPrescaler | (TIM_ExtTRGPolarity | (ExtTRGFilter << 8U)));
 80022e6:	68c9      	ldr	r1, [r1, #12]
 80022e8:	432a      	orrs	r2, r5
  tmpsmcr &= ~(TIM_SMCR_ETF | TIM_SMCR_ETPS | TIM_SMCR_ECE | TIM_SMCR_ETP);
 80022ea:	f424 447f 	bic.w	r4, r4, #65280	; 0xff00
  tmpsmcr |= (uint32_t)(TIM_ExtTRGPrescaler | (TIM_ExtTRGPolarity | (ExtTRGFilter << 8U)));
 80022ee:	ea42 2201 	orr.w	r2, r2, r1, lsl #8
 80022f2:	4322      	orrs	r2, r4
  TIMx->SMCR = tmpsmcr;
 80022f4:	609a      	str	r2, [r3, #8]
      tmpsmcr = htim->Instance->SMCR;
 80022f6:	689a      	ldr	r2, [r3, #8]
      tmpsmcr |= (TIM_SLAVEMODE_EXTERNAL1 | TIM_CLOCKSOURCE_ETRMODE1);
 80022f8:	f042 0277 	orr.w	r2, r2, #119	; 0x77
 80022fc:	e7ee      	b.n	80022dc <HAL_TIM_ConfigClockSource+0xd0>
      TIM_TI1_ConfigInputStage(htim->Instance,
 80022fe:	684c      	ldr	r4, [r1, #4]
 8002300:	68ce      	ldr	r6, [r1, #12]
  tmpccer = TIMx->CCER;
 8002302:	6a19      	ldr	r1, [r3, #32]
  TIMx->CCER &= ~TIM_CCER_CC1E;
 8002304:	6a1d      	ldr	r5, [r3, #32]
  tmpccer &= ~(TIM_CCER_CC1P | TIM_CCER_CC1NP);
 8002306:	f021 010a 	bic.w	r1, r1, #10
  TIMx->CCER &= ~TIM_CCER_CC1E;
 800230a:	f025 0501 	bic.w	r5, r5, #1
 800230e:	621d      	str	r5, [r3, #32]
  tmpccmr1 = TIMx->CCMR1;
 8002310:	699a      	ldr	r2, [r3, #24]
  tmpccer |= TIM_ICPolarity;
 8002312:	4321      	orrs	r1, r4
  tmpccmr1 &= ~TIM_CCMR1_IC1F;
 8002314:	f022 02f0 	bic.w	r2, r2, #240	; 0xf0
  tmpccmr1 |= (TIM_ICFilter << 4U);
 8002318:	ea42 1206 	orr.w	r2, r2, r6, lsl #4
  TIMx->CCMR1 = tmpccmr1;
 800231c:	619a      	str	r2, [r3, #24]
  TIMx->CCER = tmpccer;
 800231e:	6219      	str	r1, [r3, #32]
   tmpsmcr = TIMx->SMCR;
 8002320:	689a      	ldr	r2, [r3, #8]
   tmpsmcr &= ~TIM_SMCR_TS;
 8002322:	f022 0270 	bic.w	r2, r2, #112	; 0x70
   tmpsmcr |= InputTriggerSource | TIM_SLAVEMODE_EXTERNAL1;
 8002326:	f042 0257 	orr.w	r2, r2, #87	; 0x57
 800232a:	e7d7      	b.n	80022dc <HAL_TIM_ConfigClockSource+0xd0>
      TIM_TI1_ConfigInputStage(htim->Instance,
 800232c:	684c      	ldr	r4, [r1, #4]
 800232e:	68ce      	ldr	r6, [r1, #12]
  tmpccer = TIMx->CCER;
 8002330:	6a19      	ldr	r1, [r3, #32]
  TIMx->CCER &= ~TIM_CCER_CC1E;
 8002332:	6a1d      	ldr	r5, [r3, #32]
  tmpccer &= ~(TIM_CCER_CC1P | TIM_CCER_CC1NP);
 8002334:	f021 010a 	bic.w	r1, r1, #10
  TIMx->CCER &= ~TIM_CCER_CC1E;
 8002338:	f025 0501 	bic.w	r5, r5, #1
 800233c:	621d      	str	r5, [r3, #32]
  tmpccmr1 = TIMx->CCMR1;
 800233e:	699a      	ldr	r2, [r3, #24]
  tmpccer |= TIM_ICPolarity;
 8002340:	4321      	orrs	r1, r4
  tmpccmr1 &= ~TIM_CCMR1_IC1F;
 8002342:	f022 02f0 	bic.w	r2, r2, #240	; 0xf0
  tmpccmr1 |= (TIM_ICFilter << 4U);
 8002346:	ea42 1206 	orr.w	r2, r2, r6, lsl #4
  TIMx->CCMR1 = tmpccmr1;
 800234a:	619a      	str	r2, [r3, #24]
  TIMx->CCER = tmpccer;
 800234c:	6219      	str	r1, [r3, #32]
   tmpsmcr = TIMx->SMCR;
 800234e:	689a      	ldr	r2, [r3, #8]
   tmpsmcr &= ~TIM_SMCR_TS;
 8002350:	f022 0270 	bic.w	r2, r2, #112	; 0x70
   tmpsmcr |= InputTriggerSource | TIM_SLAVEMODE_EXTERNAL1;
 8002354:	f042 0247 	orr.w	r2, r2, #71	; 0x47
 8002358:	e7c0      	b.n	80022dc <HAL_TIM_ConfigClockSource+0xd0>
   tmpsmcr = TIMx->SMCR;
 800235a:	689a      	ldr	r2, [r3, #8]
   tmpsmcr &= ~TIM_SMCR_TS;
 800235c:	f022 0270 	bic.w	r2, r2, #112	; 0x70
   tmpsmcr |= InputTriggerSource | TIM_SLAVEMODE_EXTERNAL1;
 8002360:	f042 0207 	orr.w	r2, r2, #7
 8002364:	e7ba      	b.n	80022dc <HAL_TIM_ConfigClockSource+0xd0>
   tmpsmcr = TIMx->SMCR;
 8002366:	689a      	ldr	r2, [r3, #8]
   tmpsmcr &= ~TIM_SMCR_TS;
 8002368:	f022 0270 	bic.w	r2, r2, #112	; 0x70
   tmpsmcr |= InputTriggerSource | TIM_SLAVEMODE_EXTERNAL1;
 800236c:	f042 0217 	orr.w	r2, r2, #23
 8002370:	e7b4      	b.n	80022dc <HAL_TIM_ConfigClockSource+0xd0>
   tmpsmcr = TIMx->SMCR;
 8002372:	689a      	ldr	r2, [r3, #8]
   tmpsmcr &= ~TIM_SMCR_TS;
 8002374:	f022 0270 	bic.w	r2, r2, #112	; 0x70
   tmpsmcr |= InputTriggerSource | TIM_SLAVEMODE_EXTERNAL1;
 8002378:	f042 0227 	orr.w	r2, r2, #39	; 0x27
 800237c:	e7ae      	b.n	80022dc <HAL_TIM_ConfigClockSource+0xd0>

0800237e <HAL_TIM_ReadCapturedValue>:
  __HAL_LOCK(htim);
 800237e:	f890 303c 	ldrb.w	r3, [r0, #60]	; 0x3c
 8002382:	2b01      	cmp	r3, #1
 8002384:	d01c      	beq.n	80023c0 <HAL_TIM_ReadCapturedValue+0x42>
  switch (Channel)
 8002386:	290c      	cmp	r1, #12
 8002388:	d818      	bhi.n	80023bc <HAL_TIM_ReadCapturedValue+0x3e>
 800238a:	e8df f001 	tbb	[pc, r1]
 800238e:	1707      	.short	0x1707
 8002390:	170e1717 	.word	0x170e1717
 8002394:	17111717 	.word	0x17111717
 8002398:	1717      	.short	0x1717
 800239a:	14          	.byte	0x14
 800239b:	00          	.byte	0x00
      tmpreg =  htim->Instance->CCR1;
 800239c:	6803      	ldr	r3, [r0, #0]
 800239e:	6b5b      	ldr	r3, [r3, #52]	; 0x34
  __HAL_UNLOCK(htim);
 80023a0:	2200      	movs	r2, #0
 80023a2:	f880 203c 	strb.w	r2, [r0, #60]	; 0x3c
}
 80023a6:	4618      	mov	r0, r3
 80023a8:	4770      	bx	lr
      tmpreg =   htim->Instance->CCR2;
 80023aa:	6803      	ldr	r3, [r0, #0]
 80023ac:	6b9b      	ldr	r3, [r3, #56]	; 0x38
      break;
 80023ae:	e7f7      	b.n	80023a0 <HAL_TIM_ReadCapturedValue+0x22>
      tmpreg =   htim->Instance->CCR3;
 80023b0:	6803      	ldr	r3, [r0, #0]
 80023b2:	6bdb      	ldr	r3, [r3, #60]	; 0x3c
      break;
 80023b4:	e7f4      	b.n	80023a0 <HAL_TIM_ReadCapturedValue+0x22>
      tmpreg =   htim->Instance->CCR4;
 80023b6:	6803      	ldr	r3, [r0, #0]
 80023b8:	6c1b      	ldr	r3, [r3, #64]	; 0x40
      break;
 80023ba:	e7f1      	b.n	80023a0 <HAL_TIM_ReadCapturedValue+0x22>
  uint32_t tmpreg = 0U;
 80023bc:	2300      	movs	r3, #0
 80023be:	e7ef      	b.n	80023a0 <HAL_TIM_ReadCapturedValue+0x22>
  __HAL_LOCK(htim);
 80023c0:	2302      	movs	r3, #2
 80023c2:	e7f0      	b.n	80023a6 <HAL_TIM_ReadCapturedValue+0x28>

080023c4 <HAL_TIM_OC_DelayElapsedCallback>:
 80023c4:	4770      	bx	lr

080023c6 <HAL_TIM_PWM_PulseFinishedCallback>:
 80023c6:	4770      	bx	lr

080023c8 <HAL_TIM_TriggerCallback>:
 80023c8:	4770      	bx	lr

080023ca <HAL_TIM_IRQHandler>:
  if(__HAL_TIM_GET_FLAG(htim, TIM_FLAG_CC1) != RESET)
 80023ca:	6803      	ldr	r3, [r0, #0]
{
 80023cc:	b510      	push	{r4, lr}
  if(__HAL_TIM_GET_FLAG(htim, TIM_FLAG_CC1) != RESET)
 80023ce:	691a      	ldr	r2, [r3, #16]
{
 80023d0:	4604      	mov	r4, r0
  if(__HAL_TIM_GET_FLAG(htim, TIM_FLAG_CC1) != RESET)
 80023d2:	0791      	lsls	r1, r2, #30
 80023d4:	d50e      	bpl.n	80023f4 <HAL_TIM_IRQHandler+0x2a>
    if(__HAL_TIM_GET_IT_SOURCE(htim, TIM_IT_CC1) !=RESET)
 80023d6:	68da      	ldr	r2, [r3, #12]
 80023d8:	0792      	lsls	r2, r2, #30
 80023da:	d50b      	bpl.n	80023f4 <HAL_TIM_IRQHandler+0x2a>
        __HAL_TIM_CLEAR_IT(htim, TIM_IT_CC1);
 80023dc:	f06f 0202 	mvn.w	r2, #2
 80023e0:	611a      	str	r2, [r3, #16]
        htim->Channel = HAL_TIM_ACTIVE_CHANNEL_1;
 80023e2:	2201      	movs	r2, #1
        if((htim->Instance->CCMR1 & TIM_CCMR1_CC1S) != 0x00U)
 80023e4:	699b      	ldr	r3, [r3, #24]
        htim->Channel = HAL_TIM_ACTIVE_CHANNEL_1;
 80023e6:	7702      	strb	r2, [r0, #28]
        if((htim->Instance->CCMR1 & TIM_CCMR1_CC1S) != 0x00U)
 80023e8:	079b      	lsls	r3, r3, #30
 80023ea:	d077      	beq.n	80024dc <HAL_TIM_IRQHandler+0x112>
          HAL_TIM_IC_CaptureCallback(htim);
 80023ec:	f001 faaa 	bl	8003944 <HAL_TIM_IC_CaptureCallback>
        htim->Channel = HAL_TIM_ACTIVE_CHANNEL_CLEARED;
 80023f0:	2300      	movs	r3, #0
 80023f2:	7723      	strb	r3, [r4, #28]
  if(__HAL_TIM_GET_FLAG(htim, TIM_FLAG_CC2) != RESET)
 80023f4:	6823      	ldr	r3, [r4, #0]
 80023f6:	691a      	ldr	r2, [r3, #16]
 80023f8:	0750      	lsls	r0, r2, #29
 80023fa:	d510      	bpl.n	800241e <HAL_TIM_IRQHandler+0x54>
    if(__HAL_TIM_GET_IT_SOURCE(htim, TIM_IT_CC2) !=RESET)
 80023fc:	68da      	ldr	r2, [r3, #12]
 80023fe:	0751      	lsls	r1, r2, #29
 8002400:	d50d      	bpl.n	800241e <HAL_TIM_IRQHandler+0x54>
      __HAL_TIM_CLEAR_IT(htim, TIM_IT_CC2);
 8002402:	f06f 0204 	mvn.w	r2, #4
 8002406:	611a      	str	r2, [r3, #16]
      htim->Channel = HAL_TIM_ACTIVE_CHANNEL_2;
 8002408:	2202      	movs	r2, #2
      if((htim->Instance->CCMR1 & TIM_CCMR1_CC2S) != 0x00U)
 800240a:	699b      	ldr	r3, [r3, #24]
      htim->Channel = HAL_TIM_ACTIVE_CHANNEL_2;
 800240c:	7722      	strb	r2, [r4, #28]
      if((htim->Instance->CCMR1 & TIM_CCMR1_CC2S) != 0x00U)
 800240e:	f413 7f40 	tst.w	r3, #768	; 0x300
        HAL_TIM_IC_CaptureCallback(htim);
 8002412:	4620      	mov	r0, r4
      if((htim->Instance->CCMR1 & TIM_CCMR1_CC2S) != 0x00U)
 8002414:	d068      	beq.n	80024e8 <HAL_TIM_IRQHandler+0x11e>
        HAL_TIM_IC_CaptureCallback(htim);
 8002416:	f001 fa95 	bl	8003944 <HAL_TIM_IC_CaptureCallback>
      htim->Channel = HAL_TIM_ACTIVE_CHANNEL_CLEARED;
 800241a:	2300      	movs	r3, #0
 800241c:	7723      	strb	r3, [r4, #28]
  if(__HAL_TIM_GET_FLAG(htim, TIM_FLAG_CC3) != RESET)
 800241e:	6823      	ldr	r3, [r4, #0]
 8002420:	691a      	ldr	r2, [r3, #16]
 8002422:	0712      	lsls	r2, r2, #28
 8002424:	d50f      	bpl.n	8002446 <HAL_TIM_IRQHandler+0x7c>
    if(__HAL_TIM_GET_IT_SOURCE(htim, TIM_IT_CC3) !=RESET)
 8002426:	68da      	ldr	r2, [r3, #12]
 8002428:	0710      	lsls	r0, r2, #28
 800242a:	d50c      	bpl.n	8002446 <HAL_TIM_IRQHandler+0x7c>
      __HAL_TIM_CLEAR_IT(htim, TIM_IT_CC3);
 800242c:	f06f 0208 	mvn.w	r2, #8
 8002430:	611a      	str	r2, [r3, #16]
      htim->Channel = HAL_TIM_ACTIVE_CHANNEL_3;
 8002432:	2204      	movs	r2, #4
      if((htim->Instance->CCMR2 & TIM_CCMR2_CC3S) != 0x00U)
 8002434:	69db      	ldr	r3, [r3, #28]
      htim->Channel = HAL_TIM_ACTIVE_CHANNEL_3;
 8002436:	7722      	strb	r2, [r4, #28]
      if((htim->Instance->CCMR2 & TIM_CCMR2_CC3S) != 0x00U)
 8002438:	0799      	lsls	r1, r3, #30
        HAL_TIM_IC_CaptureCallback(htim);
 800243a:	4620      	mov	r0, r4
      if((htim->Instance->CCMR2 & TIM_CCMR2_CC3S) != 0x00U)
 800243c:	d05a      	beq.n	80024f4 <HAL_TIM_IRQHandler+0x12a>
        HAL_TIM_IC_CaptureCallback(htim);
 800243e:	f001 fa81 	bl	8003944 <HAL_TIM_IC_CaptureCallback>
      htim->Channel = HAL_TIM_ACTIVE_CHANNEL_CLEARED;
 8002442:	2300      	movs	r3, #0
 8002444:	7723      	strb	r3, [r4, #28]
  if(__HAL_TIM_GET_FLAG(htim, TIM_FLAG_CC4) != RESET)
 8002446:	6823      	ldr	r3, [r4, #0]
 8002448:	691a      	ldr	r2, [r3, #16]
 800244a:	06d2      	lsls	r2, r2, #27
 800244c:	d510      	bpl.n	8002470 <HAL_TIM_IRQHandler+0xa6>
    if(__HAL_TIM_GET_IT_SOURCE(htim, TIM_IT_CC4) !=RESET)
 800244e:	68da      	ldr	r2, [r3, #12]
 8002450:	06d0      	lsls	r0, r2, #27
 8002452:	d50d      	bpl.n	8002470 <HAL_TIM_IRQHandler+0xa6>
      __HAL_TIM_CLEAR_IT(htim, TIM_IT_CC4);
 8002454:	f06f 0210 	mvn.w	r2, #16
 8002458:	611a      	str	r2, [r3, #16]
      htim->Channel = HAL_TIM_ACTIVE_CHANNEL_4;
 800245a:	2208      	movs	r2, #8
      if((htim->Instance->CCMR2 & TIM_CCMR2_CC4S) != 0x00U)
 800245c:	69db      	ldr	r3, [r3, #28]
      htim->Channel = HAL_TIM_ACTIVE_CHANNEL_4;
 800245e:	7722      	strb	r2, [r4, #28]
      if((htim->Instance->CCMR2 & TIM_CCMR2_CC4S) != 0x00U)
 8002460:	f413 7f40 	tst.w	r3, #768	; 0x300
        HAL_TIM_IC_CaptureCallback(htim);
 8002464:	4620      	mov	r0, r4
      if((htim->Instance->CCMR2 & TIM_CCMR2_CC4S) != 0x00U)
 8002466:	d04b      	beq.n	8002500 <HAL_TIM_IRQHandler+0x136>
        HAL_TIM_IC_CaptureCallback(htim);
 8002468:	f001 fa6c 	bl	8003944 <HAL_TIM_IC_CaptureCallback>
      htim->Channel = HAL_TIM_ACTIVE_CHANNEL_CLEARED;
 800246c:	2300      	movs	r3, #0
 800246e:	7723      	strb	r3, [r4, #28]
  if(__HAL_TIM_GET_FLAG(htim, TIM_FLAG_UPDATE) != RESET)
 8002470:	6823      	ldr	r3, [r4, #0]
 8002472:	691a      	ldr	r2, [r3, #16]
 8002474:	07d1      	lsls	r1, r2, #31
 8002476:	d508      	bpl.n	800248a <HAL_TIM_IRQHandler+0xc0>
    if(__HAL_TIM_GET_IT_SOURCE(htim, TIM_IT_UPDATE) !=RESET)
 8002478:	68da      	ldr	r2, [r3, #12]
 800247a:	07d2      	lsls	r2, r2, #31
 800247c:	d505      	bpl.n	800248a <HAL_TIM_IRQHandler+0xc0>
      __HAL_TIM_CLEAR_IT(htim, TIM_IT_UPDATE);
 800247e:	f06f 0201 	mvn.w	r2, #1
      HAL_TIM_PeriodElapsedCallback(htim);
 8002482:	4620      	mov	r0, r4
      __HAL_TIM_CLEAR_IT(htim, TIM_IT_UPDATE);
 8002484:	611a      	str	r2, [r3, #16]
      HAL_TIM_PeriodElapsedCallback(htim);
 8002486:	f001 fa47 	bl	8003918 <HAL_TIM_PeriodElapsedCallback>
  if(__HAL_TIM_GET_FLAG(htim, TIM_FLAG_BREAK) != RESET)
 800248a:	6823      	ldr	r3, [r4, #0]
 800248c:	691a      	ldr	r2, [r3, #16]
 800248e:	0610      	lsls	r0, r2, #24
 8002490:	d508      	bpl.n	80024a4 <HAL_TIM_IRQHandler+0xda>
    if(__HAL_TIM_GET_IT_SOURCE(htim, TIM_IT_BREAK) !=RESET)
 8002492:	68da      	ldr	r2, [r3, #12]
 8002494:	0611      	lsls	r1, r2, #24
 8002496:	d505      	bpl.n	80024a4 <HAL_TIM_IRQHandler+0xda>
      __HAL_TIM_CLEAR_IT(htim, TIM_IT_BREAK);
 8002498:	f06f 0280 	mvn.w	r2, #128	; 0x80
      HAL_TIMEx_BreakCallback(htim);
 800249c:	4620      	mov	r0, r4
      __HAL_TIM_CLEAR_IT(htim, TIM_IT_BREAK);
 800249e:	611a      	str	r2, [r3, #16]
      HAL_TIMEx_BreakCallback(htim);
 80024a0:	f000 f9e5 	bl	800286e <HAL_TIMEx_BreakCallback>
  if(__HAL_TIM_GET_FLAG(htim, TIM_FLAG_TRIGGER) != RESET)
 80024a4:	6823      	ldr	r3, [r4, #0]
 80024a6:	691a      	ldr	r2, [r3, #16]
 80024a8:	0652      	lsls	r2, r2, #25
 80024aa:	d508      	bpl.n	80024be <HAL_TIM_IRQHandler+0xf4>
    if(__HAL_TIM_GET_IT_SOURCE(htim, TIM_IT_TRIGGER) !=RESET)
 80024ac:	68da      	ldr	r2, [r3, #12]
 80024ae:	0650      	lsls	r0, r2, #25
 80024b0:	d505      	bpl.n	80024be <HAL_TIM_IRQHandler+0xf4>
      __HAL_TIM_CLEAR_IT(htim, TIM_IT_TRIGGER);
 80024b2:	f06f 0240 	mvn.w	r2, #64	; 0x40
      HAL_TIM_TriggerCallback(htim);
 80024b6:	4620      	mov	r0, r4
      __HAL_TIM_CLEAR_IT(htim, TIM_IT_TRIGGER);
 80024b8:	611a      	str	r2, [r3, #16]
      HAL_TIM_TriggerCallback(htim);
 80024ba:	f7ff ff85 	bl	80023c8 <HAL_TIM_TriggerCallback>
  if(__HAL_TIM_GET_FLAG(htim, TIM_FLAG_COM) != RESET)
 80024be:	6823      	ldr	r3, [r4, #0]
 80024c0:	691a      	ldr	r2, [r3, #16]
 80024c2:	0691      	lsls	r1, r2, #26
 80024c4:	d522      	bpl.n	800250c <HAL_TIM_IRQHandler+0x142>
    if(__HAL_TIM_GET_IT_SOURCE(htim, TIM_IT_COM) !=RESET)
 80024c6:	68da      	ldr	r2, [r3, #12]
 80024c8:	0692      	lsls	r2, r2, #26
 80024ca:	d51f      	bpl.n	800250c <HAL_TIM_IRQHandler+0x142>
      __HAL_TIM_CLEAR_IT(htim, TIM_FLAG_COM);
 80024cc:	f06f 0220 	mvn.w	r2, #32
      HAL_TIMEx_CommutationCallback(htim);
 80024d0:	4620      	mov	r0, r4
}
 80024d2:	e8bd 4010 	ldmia.w	sp!, {r4, lr}
      __HAL_TIM_CLEAR_IT(htim, TIM_FLAG_COM);
 80024d6:	611a      	str	r2, [r3, #16]
      HAL_TIMEx_CommutationCallback(htim);
 80024d8:	f000 b9c8 	b.w	800286c <HAL_TIMEx_CommutationCallback>
          HAL_TIM_OC_DelayElapsedCallback(htim);
 80024dc:	f7ff ff72 	bl	80023c4 <HAL_TIM_OC_DelayElapsedCallback>
          HAL_TIM_PWM_PulseFinishedCallback(htim);
 80024e0:	4620      	mov	r0, r4
 80024e2:	f7ff ff70 	bl	80023c6 <HAL_TIM_PWM_PulseFinishedCallback>
 80024e6:	e783      	b.n	80023f0 <HAL_TIM_IRQHandler+0x26>
        HAL_TIM_OC_DelayElapsedCallback(htim);
 80024e8:	f7ff ff6c 	bl	80023c4 <HAL_TIM_OC_DelayElapsedCallback>
        HAL_TIM_PWM_PulseFinishedCallback(htim);
 80024ec:	4620      	mov	r0, r4
 80024ee:	f7ff ff6a 	bl	80023c6 <HAL_TIM_PWM_PulseFinishedCallback>
 80024f2:	e792      	b.n	800241a <HAL_TIM_IRQHandler+0x50>
        HAL_TIM_OC_DelayElapsedCallback(htim);
 80024f4:	f7ff ff66 	bl	80023c4 <HAL_TIM_OC_DelayElapsedCallback>
        HAL_TIM_PWM_PulseFinishedCallback(htim);
 80024f8:	4620      	mov	r0, r4
 80024fa:	f7ff ff64 	bl	80023c6 <HAL_TIM_PWM_PulseFinishedCallback>
 80024fe:	e7a0      	b.n	8002442 <HAL_TIM_IRQHandler+0x78>
        HAL_TIM_OC_DelayElapsedCallback(htim);
 8002500:	f7ff ff60 	bl	80023c4 <HAL_TIM_OC_DelayElapsedCallback>
        HAL_TIM_PWM_PulseFinishedCallback(htim);
 8002504:	4620      	mov	r0, r4
 8002506:	f7ff ff5e 	bl	80023c6 <HAL_TIM_PWM_PulseFinishedCallback>
 800250a:	e7af      	b.n	800246c <HAL_TIM_IRQHandler+0xa2>
 800250c:	bd10      	pop	{r4, pc}
	...

08002510 <TIM_Base_SetConfig>:
  if (IS_TIM_COUNTER_MODE_SELECT_INSTANCE(TIMx))
 8002510:	4a1a      	ldr	r2, [pc, #104]	; (800257c <TIM_Base_SetConfig+0x6c>)
  tmpcr1 = TIMx->CR1;
 8002512:	6803      	ldr	r3, [r0, #0]
  if (IS_TIM_COUNTER_MODE_SELECT_INSTANCE(TIMx))
 8002514:	4290      	cmp	r0, r2
 8002516:	d00a      	beq.n	800252e <TIM_Base_SetConfig+0x1e>
 8002518:	f1b0 4f80 	cmp.w	r0, #1073741824	; 0x40000000
 800251c:	d007      	beq.n	800252e <TIM_Base_SetConfig+0x1e>
 800251e:	f5a2 3294 	sub.w	r2, r2, #75776	; 0x12800
 8002522:	4290      	cmp	r0, r2
 8002524:	d003      	beq.n	800252e <TIM_Base_SetConfig+0x1e>
 8002526:	f502 6280 	add.w	r2, r2, #1024	; 0x400
 800252a:	4290      	cmp	r0, r2
 800252c:	d115      	bne.n	800255a <TIM_Base_SetConfig+0x4a>
    tmpcr1 |= Structure->CounterMode;
 800252e:	684a      	ldr	r2, [r1, #4]
    tmpcr1 &= ~(TIM_CR1_DIR | TIM_CR1_CMS);
 8002530:	f023 0370 	bic.w	r3, r3, #112	; 0x70
    tmpcr1 |= Structure->CounterMode;
 8002534:	4313      	orrs	r3, r2
  if(IS_TIM_CLOCK_DIVISION_INSTANCE(TIMx))
 8002536:	4a11      	ldr	r2, [pc, #68]	; (800257c <TIM_Base_SetConfig+0x6c>)
 8002538:	4290      	cmp	r0, r2
 800253a:	d00a      	beq.n	8002552 <TIM_Base_SetConfig+0x42>
 800253c:	f1b0 4f80 	cmp.w	r0, #1073741824	; 0x40000000
 8002540:	d007      	beq.n	8002552 <TIM_Base_SetConfig+0x42>
 8002542:	f5a2 3294 	sub.w	r2, r2, #75776	; 0x12800
 8002546:	4290      	cmp	r0, r2
 8002548:	d003      	beq.n	8002552 <TIM_Base_SetConfig+0x42>
 800254a:	f502 6280 	add.w	r2, r2, #1024	; 0x400
 800254e:	4290      	cmp	r0, r2
 8002550:	d103      	bne.n	800255a <TIM_Base_SetConfig+0x4a>
    tmpcr1 |= (uint32_t)Structure->ClockDivision;
 8002552:	68ca      	ldr	r2, [r1, #12]
    tmpcr1 &= ~TIM_CR1_CKD;
 8002554:	f423 7340 	bic.w	r3, r3, #768	; 0x300
    tmpcr1 |= (uint32_t)Structure->ClockDivision;
 8002558:	4313      	orrs	r3, r2
  tmpcr1 |= (uint32_t)Structure->AutoReloadPreload;
 800255a:	694a      	ldr	r2, [r1, #20]
  tmpcr1 &= ~TIM_CR1_ARPE;
 800255c:	f023 0380 	bic.w	r3, r3, #128	; 0x80
  tmpcr1 |= (uint32_t)Structure->AutoReloadPreload;
 8002560:	4313      	orrs	r3, r2
  TIMx->CR1 = tmpcr1;
 8002562:	6003      	str	r3, [r0, #0]
  TIMx->ARR = (uint32_t)Structure->Period ;
 8002564:	688b      	ldr	r3, [r1, #8]
 8002566:	62c3      	str	r3, [r0, #44]	; 0x2c
  TIMx->PSC = (uint32_t)Structure->Prescaler;
 8002568:	680b      	ldr	r3, [r1, #0]
 800256a:	6283      	str	r3, [r0, #40]	; 0x28
  if (IS_TIM_REPETITION_COUNTER_INSTANCE(TIMx))
 800256c:	4b03      	ldr	r3, [pc, #12]	; (800257c <TIM_Base_SetConfig+0x6c>)
 800256e:	4298      	cmp	r0, r3
    TIMx->RCR = Structure->RepetitionCounter;
 8002570:	bf04      	itt	eq
 8002572:	690b      	ldreq	r3, [r1, #16]
 8002574:	6303      	streq	r3, [r0, #48]	; 0x30
  TIMx->EGR = TIM_EGR_UG;
 8002576:	2301      	movs	r3, #1
 8002578:	6143      	str	r3, [r0, #20]
 800257a:	4770      	bx	lr
 800257c:	40012c00 	.word	0x40012c00

08002580 <HAL_TIM_Base_Init>:
{
 8002580:	b510      	push	{r4, lr}
  if(htim == NULL)
 8002582:	4604      	mov	r4, r0
 8002584:	b1a0      	cbz	r0, 80025b0 <HAL_TIM_Base_Init+0x30>
  if(htim->State == HAL_TIM_STATE_RESET)
 8002586:	f890 303d 	ldrb.w	r3, [r0, #61]	; 0x3d
 800258a:	f003 02ff 	and.w	r2, r3, #255	; 0xff
 800258e:	b91b      	cbnz	r3, 8002598 <HAL_TIM_Base_Init+0x18>
    htim->Lock = HAL_UNLOCKED;
 8002590:	f880 203c 	strb.w	r2, [r0, #60]	; 0x3c
    HAL_TIM_Base_MspInit(htim);
 8002594:	f001 fd84 	bl	80040a0 <HAL_TIM_Base_MspInit>
  htim->State= HAL_TIM_STATE_BUSY;
 8002598:	2302      	movs	r3, #2
  TIM_Base_SetConfig(htim->Instance, &htim->Init);
 800259a:	6820      	ldr	r0, [r4, #0]
  htim->State= HAL_TIM_STATE_BUSY;
 800259c:	f884 303d 	strb.w	r3, [r4, #61]	; 0x3d
  TIM_Base_SetConfig(htim->Instance, &htim->Init);
 80025a0:	1d21      	adds	r1, r4, #4
 80025a2:	f7ff ffb5 	bl	8002510 <TIM_Base_SetConfig>
  htim->State= HAL_TIM_STATE_READY;
 80025a6:	2301      	movs	r3, #1
  return HAL_OK;
 80025a8:	2000      	movs	r0, #0
  htim->State= HAL_TIM_STATE_READY;
 80025aa:	f884 303d 	strb.w	r3, [r4, #61]	; 0x3d
  return HAL_OK;
 80025ae:	bd10      	pop	{r4, pc}
    return HAL_ERROR;
 80025b0:	2001      	movs	r0, #1
}
 80025b2:	bd10      	pop	{r4, pc}

080025b4 <HAL_TIM_IC_Init>:
{
 80025b4:	b510      	push	{r4, lr}
  if(htim == NULL)
 80025b6:	4604      	mov	r4, r0
 80025b8:	b1a0      	cbz	r0, 80025e4 <HAL_TIM_IC_Init+0x30>
  if(htim->State == HAL_TIM_STATE_RESET)
 80025ba:	f890 303d 	ldrb.w	r3, [r0, #61]	; 0x3d
 80025be:	f003 02ff 	and.w	r2, r3, #255	; 0xff
 80025c2:	b91b      	cbnz	r3, 80025cc <HAL_TIM_IC_Init+0x18>
    htim->Lock = HAL_UNLOCKED;
 80025c4:	f880 203c 	strb.w	r2, [r0, #60]	; 0x3c
    HAL_TIM_IC_MspInit(htim);
 80025c8:	f7ff fe1f 	bl	800220a <HAL_TIM_IC_MspInit>
  htim->State= HAL_TIM_STATE_BUSY;
 80025cc:	2302      	movs	r3, #2
  TIM_Base_SetConfig(htim->Instance, &htim->Init);
 80025ce:	6820      	ldr	r0, [r4, #0]
  htim->State= HAL_TIM_STATE_BUSY;
 80025d0:	f884 303d 	strb.w	r3, [r4, #61]	; 0x3d
  TIM_Base_SetConfig(htim->Instance, &htim->Init);
 80025d4:	1d21      	adds	r1, r4, #4
 80025d6:	f7ff ff9b 	bl	8002510 <TIM_Base_SetConfig>
  htim->State= HAL_TIM_STATE_READY;
 80025da:	2301      	movs	r3, #1
  return HAL_OK;
 80025dc:	2000      	movs	r0, #0
  htim->State= HAL_TIM_STATE_READY;
 80025de:	f884 303d 	strb.w	r3, [r4, #61]	; 0x3d
  return HAL_OK;
 80025e2:	bd10      	pop	{r4, pc}
    return HAL_ERROR;
 80025e4:	2001      	movs	r0, #1
}
 80025e6:	bd10      	pop	{r4, pc}

080025e8 <TIM_TI1_SetConfig>:
{
 80025e8:	b570      	push	{r4, r5, r6, lr}
  TIMx->CCER &= ~TIM_CCER_CC1E;
 80025ea:	6a04      	ldr	r4, [r0, #32]
  if(IS_TIM_CC2_INSTANCE(TIMx) != RESET)
 80025ec:	4e12      	ldr	r6, [pc, #72]	; (8002638 <TIM_TI1_SetConfig+0x50>)
  TIMx->CCER &= ~TIM_CCER_CC1E;
 80025ee:	f024 0401 	bic.w	r4, r4, #1
 80025f2:	6204      	str	r4, [r0, #32]
  if(IS_TIM_CC2_INSTANCE(TIMx) != RESET)
 80025f4:	42b0      	cmp	r0, r6
  tmpccmr1 = TIMx->CCMR1;
 80025f6:	6984      	ldr	r4, [r0, #24]
  tmpccer = TIMx->CCER;
 80025f8:	6a05      	ldr	r5, [r0, #32]
  if(IS_TIM_CC2_INSTANCE(TIMx) != RESET)
 80025fa:	d00a      	beq.n	8002612 <TIM_TI1_SetConfig+0x2a>
 80025fc:	f1b0 4f80 	cmp.w	r0, #1073741824	; 0x40000000
 8002600:	d007      	beq.n	8002612 <TIM_TI1_SetConfig+0x2a>
 8002602:	f5a6 3694 	sub.w	r6, r6, #75776	; 0x12800
 8002606:	42b0      	cmp	r0, r6
 8002608:	d003      	beq.n	8002612 <TIM_TI1_SetConfig+0x2a>
 800260a:	f506 6680 	add.w	r6, r6, #1024	; 0x400
 800260e:	42b0      	cmp	r0, r6
 8002610:	d10f      	bne.n	8002632 <TIM_TI1_SetConfig+0x4a>
    tmpccmr1 &= ~TIM_CCMR1_CC1S;
 8002612:	f024 0403 	bic.w	r4, r4, #3
    tmpccmr1 |= TIM_ICSelection;
 8002616:	4322      	orrs	r2, r4
  tmpccmr1 |= ((TIM_ICFilter << 4U) & TIM_CCMR1_IC1F);
 8002618:	011b      	lsls	r3, r3, #4
  tmpccmr1 &= ~TIM_CCMR1_IC1F;
 800261a:	f022 02f0 	bic.w	r2, r2, #240	; 0xf0
  tmpccmr1 |= ((TIM_ICFilter << 4U) & TIM_CCMR1_IC1F);
 800261e:	b2db      	uxtb	r3, r3
  tmpccer &= ~(TIM_CCER_CC1P | TIM_CCER_CC1NP);
 8002620:	f025 050a 	bic.w	r5, r5, #10
  tmpccer |= (TIM_ICPolarity & (TIM_CCER_CC1P | TIM_CCER_CC1NP));
 8002624:	f001 010a 	and.w	r1, r1, #10
  tmpccmr1 |= ((TIM_ICFilter << 4U) & TIM_CCMR1_IC1F);
 8002628:	431a      	orrs	r2, r3
  tmpccer |= (TIM_ICPolarity & (TIM_CCER_CC1P | TIM_CCER_CC1NP));
 800262a:	4329      	orrs	r1, r5
  TIMx->CCMR1 = tmpccmr1;
 800262c:	6182      	str	r2, [r0, #24]
  TIMx->CCER = tmpccer;
 800262e:	6201      	str	r1, [r0, #32]
}
 8002630:	bd70      	pop	{r4, r5, r6, pc}
    tmpccmr1 |= TIM_CCMR1_CC1S_0;
 8002632:	f044 0201 	orr.w	r2, r4, #1
 8002636:	e7ef      	b.n	8002618 <TIM_TI1_SetConfig+0x30>
 8002638:	40012c00 	.word	0x40012c00

0800263c <HAL_TIM_IC_ConfigChannel>:
{
 800263c:	b5f8      	push	{r3, r4, r5, r6, r7, lr}
  __HAL_LOCK(htim);
 800263e:	f890 303c 	ldrb.w	r3, [r0, #60]	; 0x3c
{
 8002642:	4604      	mov	r4, r0
  __HAL_LOCK(htim);
 8002644:	2b01      	cmp	r3, #1
{
 8002646:	460d      	mov	r5, r1
 8002648:	f04f 0002 	mov.w	r0, #2
  __HAL_LOCK(htim);
 800264c:	d019      	beq.n	8002682 <HAL_TIM_IC_ConfigChannel+0x46>
 800264e:	2301      	movs	r3, #1
  htim->State = HAL_TIM_STATE_BUSY;
 8002650:	f884 003d 	strb.w	r0, [r4, #61]	; 0x3d
  __HAL_LOCK(htim);
 8002654:	f884 303c 	strb.w	r3, [r4, #60]	; 0x3c
  if (Channel == TIM_CHANNEL_1)
 8002658:	b9a2      	cbnz	r2, 8002684 <HAL_TIM_IC_ConfigChannel+0x48>
    TIM_TI1_SetConfig(htim->Instance,
 800265a:	68cb      	ldr	r3, [r1, #12]
 800265c:	6820      	ldr	r0, [r4, #0]
 800265e:	c906      	ldmia	r1, {r1, r2}
 8002660:	f7ff ffc2 	bl	80025e8 <TIM_TI1_SetConfig>
    htim->Instance->CCMR1 &= ~TIM_CCMR1_IC1PSC;
 8002664:	6823      	ldr	r3, [r4, #0]
    htim->Instance->CCMR1 |= sConfig->ICPrescaler;
 8002666:	68a9      	ldr	r1, [r5, #8]
    htim->Instance->CCMR1 &= ~TIM_CCMR1_IC1PSC;
 8002668:	699a      	ldr	r2, [r3, #24]
 800266a:	f022 020c 	bic.w	r2, r2, #12
 800266e:	619a      	str	r2, [r3, #24]
    htim->Instance->CCMR1 |= sConfig->ICPrescaler;
 8002670:	699a      	ldr	r2, [r3, #24]
 8002672:	430a      	orrs	r2, r1
 8002674:	619a      	str	r2, [r3, #24]
  htim->State = HAL_TIM_STATE_READY;
 8002676:	2301      	movs	r3, #1
  __HAL_UNLOCK(htim);
 8002678:	2000      	movs	r0, #0
  htim->State = HAL_TIM_STATE_READY;
 800267a:	f884 303d 	strb.w	r3, [r4, #61]	; 0x3d
  __HAL_UNLOCK(htim);
 800267e:	f884 003c 	strb.w	r0, [r4, #60]	; 0x3c
}
 8002682:	bdf8      	pop	{r3, r4, r5, r6, r7, pc}
  else if (Channel == TIM_CHANNEL_2)
 8002684:	2a04      	cmp	r2, #4
 8002686:	688e      	ldr	r6, [r1, #8]
 8002688:	6823      	ldr	r3, [r4, #0]
 800268a:	c982      	ldmia	r1, {r1, r7}
 800268c:	68e8      	ldr	r0, [r5, #12]
 800268e:	d11f      	bne.n	80026d0 <HAL_TIM_IC_ConfigChannel+0x94>
  TIMx->CCER &= ~TIM_CCER_CC2E;
 8002690:	6a1a      	ldr	r2, [r3, #32]
  tmpccmr1 |= ((TIM_ICFilter << 12U) & TIM_CCMR1_IC2F);
 8002692:	0300      	lsls	r0, r0, #12
  TIMx->CCER &= ~TIM_CCER_CC2E;
 8002694:	f022 0210 	bic.w	r2, r2, #16
 8002698:	621a      	str	r2, [r3, #32]
  tmpccmr1 = TIMx->CCMR1;
 800269a:	699a      	ldr	r2, [r3, #24]
  tmpccer = TIMx->CCER;
 800269c:	6a1d      	ldr	r5, [r3, #32]
  tmpccmr1 &= ~TIM_CCMR1_CC2S;
 800269e:	f422 7240 	bic.w	r2, r2, #768	; 0x300
  tmpccmr1 |= (TIM_ICSelection << 8U);
 80026a2:	ea42 2207 	orr.w	r2, r2, r7, lsl #8
  tmpccmr1 |= ((TIM_ICFilter << 12U) & TIM_CCMR1_IC2F);
 80026a6:	b280      	uxth	r0, r0
  tmpccmr1 &= ~TIM_CCMR1_IC2F;
 80026a8:	f422 4270 	bic.w	r2, r2, #61440	; 0xf000
  tmpccer |= ((TIM_ICPolarity << 4U) & (TIM_CCER_CC2P | TIM_CCER_CC2NP));
 80026ac:	0109      	lsls	r1, r1, #4
  tmpccmr1 |= ((TIM_ICFilter << 12U) & TIM_CCMR1_IC2F);
 80026ae:	4302      	orrs	r2, r0
  tmpccer |= ((TIM_ICPolarity << 4U) & (TIM_CCER_CC2P | TIM_CCER_CC2NP));
 80026b0:	f001 01a0 	and.w	r1, r1, #160	; 0xa0
  tmpccer &= ~(TIM_CCER_CC2P | TIM_CCER_CC2NP);
 80026b4:	f025 00a0 	bic.w	r0, r5, #160	; 0xa0
  tmpccer |= ((TIM_ICPolarity << 4U) & (TIM_CCER_CC2P | TIM_CCER_CC2NP));
 80026b8:	4301      	orrs	r1, r0
  TIMx->CCMR1 = tmpccmr1 ;
 80026ba:	619a      	str	r2, [r3, #24]
  TIMx->CCER = tmpccer;
 80026bc:	6219      	str	r1, [r3, #32]
    htim->Instance->CCMR1 &= ~TIM_CCMR1_IC2PSC;
 80026be:	699a      	ldr	r2, [r3, #24]
 80026c0:	f422 6240 	bic.w	r2, r2, #3072	; 0xc00
 80026c4:	619a      	str	r2, [r3, #24]
    htim->Instance->CCMR1 |= (sConfig->ICPrescaler << 8U);
 80026c6:	699a      	ldr	r2, [r3, #24]
 80026c8:	ea42 2606 	orr.w	r6, r2, r6, lsl #8
 80026cc:	619e      	str	r6, [r3, #24]
 80026ce:	e7d2      	b.n	8002676 <HAL_TIM_IC_ConfigChannel+0x3a>
  else if (Channel == TIM_CHANNEL_3)
 80026d0:	2a08      	cmp	r2, #8
  TIMx->CCER &= ~TIM_CCER_CC3E;
 80026d2:	6a1a      	ldr	r2, [r3, #32]
  else if (Channel == TIM_CHANNEL_3)
 80026d4:	d11c      	bne.n	8002710 <HAL_TIM_IC_ConfigChannel+0xd4>
  TIMx->CCER &= ~TIM_CCER_CC3E;
 80026d6:	f422 7280 	bic.w	r2, r2, #256	; 0x100
 80026da:	621a      	str	r2, [r3, #32]
  tmpccmr2 = TIMx->CCMR2;
 80026dc:	69da      	ldr	r2, [r3, #28]
  tmpccmr2 |= ((TIM_ICFilter << 4U) & TIM_CCMR2_IC3F);
 80026de:	0100      	lsls	r0, r0, #4
  tmpccmr2 &= ~TIM_CCMR2_CC3S;
 80026e0:	f022 0203 	bic.w	r2, r2, #3
  tmpccer = TIMx->CCER;
 80026e4:	6a1d      	ldr	r5, [r3, #32]
  tmpccmr2 |= TIM_ICSelection;
 80026e6:	433a      	orrs	r2, r7
  tmpccmr2 |= ((TIM_ICFilter << 4U) & TIM_CCMR2_IC3F);
 80026e8:	b2c0      	uxtb	r0, r0
  tmpccmr2 &= ~TIM_CCMR2_IC3F;
 80026ea:	f022 02f0 	bic.w	r2, r2, #240	; 0xf0
  tmpccer |= ((TIM_ICPolarity << 8U) & (TIM_CCER_CC3P | TIM_CCER_CC3NP));
 80026ee:	0209      	lsls	r1, r1, #8
  tmpccmr2 |= ((TIM_ICFilter << 4U) & TIM_CCMR2_IC3F);
 80026f0:	4302      	orrs	r2, r0
  tmpccer |= ((TIM_ICPolarity << 8U) & (TIM_CCER_CC3P | TIM_CCER_CC3NP));
 80026f2:	f401 6120 	and.w	r1, r1, #2560	; 0xa00
  tmpccer &= ~(TIM_CCER_CC3P | TIM_CCER_CC3NP);
 80026f6:	f425 6020 	bic.w	r0, r5, #2560	; 0xa00
  tmpccer |= ((TIM_ICPolarity << 8U) & (TIM_CCER_CC3P | TIM_CCER_CC3NP));
 80026fa:	4301      	orrs	r1, r0
  TIMx->CCMR2 = tmpccmr2;
 80026fc:	61da      	str	r2, [r3, #28]
  TIMx->CCER = tmpccer;
 80026fe:	6219      	str	r1, [r3, #32]
    htim->Instance->CCMR2 &= ~TIM_CCMR2_IC3PSC;
 8002700:	69da      	ldr	r2, [r3, #28]
 8002702:	f022 020c 	bic.w	r2, r2, #12
 8002706:	61da      	str	r2, [r3, #28]
    htim->Instance->CCMR2 |= sConfig->ICPrescaler;
 8002708:	69da      	ldr	r2, [r3, #28]
 800270a:	4316      	orrs	r6, r2
    htim->Instance->CCMR2 |= (sConfig->ICPrescaler << 8U);
 800270c:	61de      	str	r6, [r3, #28]
 800270e:	e7b2      	b.n	8002676 <HAL_TIM_IC_ConfigChannel+0x3a>
  TIMx->CCER &= ~TIM_CCER_CC4E;
 8002710:	f422 5280 	bic.w	r2, r2, #4096	; 0x1000
 8002714:	621a      	str	r2, [r3, #32]
  tmpccmr2 = TIMx->CCMR2;
 8002716:	69da      	ldr	r2, [r3, #28]
  tmpccmr2 |= ((TIM_ICFilter << 12U) & TIM_CCMR2_IC4F);
 8002718:	0300      	lsls	r0, r0, #12
  tmpccmr2 &= ~TIM_CCMR2_CC4S;
 800271a:	f422 7240 	bic.w	r2, r2, #768	; 0x300
  tmpccer = TIMx->CCER;
 800271e:	6a1d      	ldr	r5, [r3, #32]
  tmpccmr2 |= (TIM_ICSelection << 8U);
 8002720:	ea42 2207 	orr.w	r2, r2, r7, lsl #8
  tmpccmr2 &= ~TIM_CCMR2_IC4F;
 8002724:	f422 4270 	bic.w	r2, r2, #61440	; 0xf000
  tmpccmr2 |= ((TIM_ICFilter << 12U) & TIM_CCMR2_IC4F);
 8002728:	b280      	uxth	r0, r0
  tmpccer |= ((TIM_ICPolarity << 12U) & TIM_CCER_CC4P);
 800272a:	0309      	lsls	r1, r1, #12
  tmpccmr2 |= ((TIM_ICFilter << 12U) & TIM_CCMR2_IC4F);
 800272c:	4310      	orrs	r0, r2
  tmpccer |= ((TIM_ICPolarity << 12U) & TIM_CCER_CC4P);
 800272e:	f401 5100 	and.w	r1, r1, #8192	; 0x2000
  tmpccer &= ~TIM_CCER_CC4P;
 8002732:	f425 5200 	bic.w	r2, r5, #8192	; 0x2000
  tmpccer |= ((TIM_ICPolarity << 12U) & TIM_CCER_CC4P);
 8002736:	4311      	orrs	r1, r2
  TIMx->CCMR2 = tmpccmr2;
 8002738:	61d8      	str	r0, [r3, #28]
  TIMx->CCER = tmpccer ;
 800273a:	6219      	str	r1, [r3, #32]
    htim->Instance->CCMR2 &= ~TIM_CCMR2_IC4PSC;
 800273c:	69da      	ldr	r2, [r3, #28]
 800273e:	f422 6240 	bic.w	r2, r2, #3072	; 0xc00
 8002742:	61da      	str	r2, [r3, #28]
    htim->Instance->CCMR2 |= (sConfig->ICPrescaler << 8U);
 8002744:	69da      	ldr	r2, [r3, #28]
 8002746:	ea42 2606 	orr.w	r6, r2, r6, lsl #8
 800274a:	e7df      	b.n	800270c <HAL_TIM_IC_ConfigChannel+0xd0>

0800274c <TIM_CCxChannelCmd>:
  * @param  ChannelState : specifies the TIM Channel CCxE bit new state.
  *          This parameter can be: TIM_CCx_ENABLE or TIM_CCx_Disable.
  * @retval None
  */
void TIM_CCxChannelCmd(TIM_TypeDef* TIMx, uint32_t Channel, uint32_t ChannelState)
{
 800274c:	b510      	push	{r4, lr}

  /* Check the parameters */
  assert_param(IS_TIM_CC1_INSTANCE(TIMx));
  assert_param(IS_TIM_CHANNELS(Channel));

  tmp = TIM_CCER_CC1E << Channel;
 800274e:	2401      	movs	r4, #1

  /* Reset the CCxE Bit */
  TIMx->CCER &= ~tmp;
 8002750:	6a03      	ldr	r3, [r0, #32]
  tmp = TIM_CCER_CC1E << Channel;
 8002752:	408c      	lsls	r4, r1
  TIMx->CCER &= ~tmp;
 8002754:	ea23 0304 	bic.w	r3, r3, r4
 8002758:	6203      	str	r3, [r0, #32]

  /* Set or reset the CCxE Bit */
  TIMx->CCER |=  (uint32_t)(ChannelState << Channel);
 800275a:	6a03      	ldr	r3, [r0, #32]
 800275c:	408a      	lsls	r2, r1
 800275e:	431a      	orrs	r2, r3
 8002760:	6202      	str	r2, [r0, #32]
 8002762:	bd10      	pop	{r4, pc}

08002764 <HAL_TIM_IC_Start_IT>:
{
 8002764:	b510      	push	{r4, lr}
 8002766:	4604      	mov	r4, r0
  switch (Channel)
 8002768:	290c      	cmp	r1, #12
 800276a:	d80d      	bhi.n	8002788 <HAL_TIM_IC_Start_IT+0x24>
 800276c:	e8df f001 	tbb	[pc, r1]
 8002770:	0c0c0c07 	.word	0x0c0c0c07
 8002774:	0c0c0c17 	.word	0x0c0c0c17
 8002778:	0c0c0c1c 	.word	0x0c0c0c1c
 800277c:	21          	.byte	0x21
 800277d:	00          	.byte	0x00
      __HAL_TIM_ENABLE_IT(htim, TIM_IT_CC1);
 800277e:	6802      	ldr	r2, [r0, #0]
 8002780:	68d3      	ldr	r3, [r2, #12]
 8002782:	f043 0302 	orr.w	r3, r3, #2
      __HAL_TIM_ENABLE_IT(htim, TIM_IT_CC4);
 8002786:	60d3      	str	r3, [r2, #12]
  TIM_CCxChannelCmd(htim->Instance, Channel, TIM_CCx_ENABLE);
 8002788:	6820      	ldr	r0, [r4, #0]
 800278a:	2201      	movs	r2, #1
 800278c:	f7ff ffde 	bl	800274c <TIM_CCxChannelCmd>
  __HAL_TIM_ENABLE(htim);
 8002790:	6822      	ldr	r2, [r4, #0]
}
 8002792:	2000      	movs	r0, #0
  __HAL_TIM_ENABLE(htim);
 8002794:	6813      	ldr	r3, [r2, #0]
 8002796:	f043 0301 	orr.w	r3, r3, #1
 800279a:	6013      	str	r3, [r2, #0]
}
 800279c:	bd10      	pop	{r4, pc}
      __HAL_TIM_ENABLE_IT(htim, TIM_IT_CC2);
 800279e:	6802      	ldr	r2, [r0, #0]
 80027a0:	68d3      	ldr	r3, [r2, #12]
 80027a2:	f043 0304 	orr.w	r3, r3, #4
 80027a6:	e7ee      	b.n	8002786 <HAL_TIM_IC_Start_IT+0x22>
      __HAL_TIM_ENABLE_IT(htim, TIM_IT_CC3);
 80027a8:	6802      	ldr	r2, [r0, #0]
 80027aa:	68d3      	ldr	r3, [r2, #12]
 80027ac:	f043 0308 	orr.w	r3, r3, #8
 80027b0:	e7e9      	b.n	8002786 <HAL_TIM_IC_Start_IT+0x22>
      __HAL_TIM_ENABLE_IT(htim, TIM_IT_CC4);
 80027b2:	6802      	ldr	r2, [r0, #0]
 80027b4:	68d3      	ldr	r3, [r2, #12]
 80027b6:	f043 0310 	orr.w	r3, r3, #16
 80027ba:	e7e4      	b.n	8002786 <HAL_TIM_IC_Start_IT+0x22>

080027bc <HAL_TIM_IC_Stop_IT>:
{
 80027bc:	b510      	push	{r4, lr}
 80027be:	4604      	mov	r4, r0
  switch (Channel)
 80027c0:	290c      	cmp	r1, #12
 80027c2:	d80d      	bhi.n	80027e0 <HAL_TIM_IC_Stop_IT+0x24>
 80027c4:	e8df f001 	tbb	[pc, r1]
 80027c8:	0c0c0c07 	.word	0x0c0c0c07
 80027cc:	0c0c0c21 	.word	0x0c0c0c21
 80027d0:	0c0c0c26 	.word	0x0c0c0c26
 80027d4:	2b          	.byte	0x2b
 80027d5:	00          	.byte	0x00
      __HAL_TIM_DISABLE_IT(htim, TIM_IT_CC1);
 80027d6:	6802      	ldr	r2, [r0, #0]
 80027d8:	68d3      	ldr	r3, [r2, #12]
 80027da:	f023 0302 	bic.w	r3, r3, #2
      __HAL_TIM_DISABLE_IT(htim, TIM_IT_CC4);
 80027de:	60d3      	str	r3, [r2, #12]
  TIM_CCxChannelCmd(htim->Instance, Channel, TIM_CCx_DISABLE);
 80027e0:	2200      	movs	r2, #0
 80027e2:	6820      	ldr	r0, [r4, #0]
 80027e4:	f7ff ffb2 	bl	800274c <TIM_CCxChannelCmd>
  __HAL_TIM_DISABLE(htim);
 80027e8:	f241 1211 	movw	r2, #4369	; 0x1111
 80027ec:	6823      	ldr	r3, [r4, #0]
 80027ee:	6a19      	ldr	r1, [r3, #32]
 80027f0:	4211      	tst	r1, r2
 80027f2:	d108      	bne.n	8002806 <HAL_TIM_IC_Stop_IT+0x4a>
 80027f4:	f240 4244 	movw	r2, #1092	; 0x444
 80027f8:	6a19      	ldr	r1, [r3, #32]
 80027fa:	4211      	tst	r1, r2
 80027fc:	bf02      	ittt	eq
 80027fe:	681a      	ldreq	r2, [r3, #0]
 8002800:	f022 0201 	biceq.w	r2, r2, #1
 8002804:	601a      	streq	r2, [r3, #0]
}
 8002806:	2000      	movs	r0, #0
 8002808:	bd10      	pop	{r4, pc}
      __HAL_TIM_DISABLE_IT(htim, TIM_IT_CC2);
 800280a:	6802      	ldr	r2, [r0, #0]
 800280c:	68d3      	ldr	r3, [r2, #12]
 800280e:	f023 0304 	bic.w	r3, r3, #4
 8002812:	e7e4      	b.n	80027de <HAL_TIM_IC_Stop_IT+0x22>
      __HAL_TIM_DISABLE_IT(htim, TIM_IT_CC3);
 8002814:	6802      	ldr	r2, [r0, #0]
 8002816:	68d3      	ldr	r3, [r2, #12]
 8002818:	f023 0308 	bic.w	r3, r3, #8
 800281c:	e7df      	b.n	80027de <HAL_TIM_IC_Stop_IT+0x22>
      __HAL_TIM_DISABLE_IT(htim, TIM_IT_CC4);
 800281e:	6802      	ldr	r2, [r0, #0]
 8002820:	68d3      	ldr	r3, [r2, #12]
 8002822:	f023 0310 	bic.w	r3, r3, #16
 8002826:	e7da      	b.n	80027de <HAL_TIM_IC_Stop_IT+0x22>

08002828 <HAL_TIMEx_MasterConfigSynchronization>:
  /* Check the parameters */
  assert_param(IS_TIM_MASTER_INSTANCE(htim->Instance));
  assert_param(IS_TIM_TRGO_SOURCE(sMasterConfig->MasterOutputTrigger));
  assert_param(IS_TIM_MSM_STATE(sMasterConfig->MasterSlaveMode));

  __HAL_LOCK(htim);
 8002828:	f890 303c 	ldrb.w	r3, [r0, #60]	; 0x3c
{
 800282c:	b510      	push	{r4, lr}
  __HAL_LOCK(htim);
 800282e:	2b01      	cmp	r3, #1
 8002830:	f04f 0302 	mov.w	r3, #2
 8002834:	d018      	beq.n	8002868 <HAL_TIMEx_MasterConfigSynchronization+0x40>

  htim->State = HAL_TIM_STATE_BUSY;
 8002836:	f880 303d 	strb.w	r3, [r0, #61]	; 0x3d

  /* Reset the MMS Bits */
  htim->Instance->CR2 &= ~TIM_CR2_MMS;
 800283a:	6803      	ldr	r3, [r0, #0]
  /* Select the TRGO source */
  htim->Instance->CR2 |=  sMasterConfig->MasterOutputTrigger;
 800283c:	680c      	ldr	r4, [r1, #0]
  htim->Instance->CR2 &= ~TIM_CR2_MMS;
 800283e:	685a      	ldr	r2, [r3, #4]

  /* Reset the MSM Bit */
  htim->Instance->SMCR &= ~TIM_SMCR_MSM;
  /* Set or Reset the MSM Bit */
  htim->Instance->SMCR |= sMasterConfig->MasterSlaveMode;
 8002840:	6849      	ldr	r1, [r1, #4]
  htim->Instance->CR2 &= ~TIM_CR2_MMS;
 8002842:	f022 0270 	bic.w	r2, r2, #112	; 0x70
 8002846:	605a      	str	r2, [r3, #4]
  htim->Instance->CR2 |=  sMasterConfig->MasterOutputTrigger;
 8002848:	685a      	ldr	r2, [r3, #4]
 800284a:	4322      	orrs	r2, r4
 800284c:	605a      	str	r2, [r3, #4]
  htim->Instance->SMCR &= ~TIM_SMCR_MSM;
 800284e:	689a      	ldr	r2, [r3, #8]
 8002850:	f022 0280 	bic.w	r2, r2, #128	; 0x80
 8002854:	609a      	str	r2, [r3, #8]
  htim->Instance->SMCR |= sMasterConfig->MasterSlaveMode;
 8002856:	689a      	ldr	r2, [r3, #8]
 8002858:	430a      	orrs	r2, r1
 800285a:	609a      	str	r2, [r3, #8]

  htim->State = HAL_TIM_STATE_READY;
 800285c:	2301      	movs	r3, #1
 800285e:	f880 303d 	strb.w	r3, [r0, #61]	; 0x3d

  __HAL_UNLOCK(htim);
 8002862:	2300      	movs	r3, #0
 8002864:	f880 303c 	strb.w	r3, [r0, #60]	; 0x3c
  __HAL_LOCK(htim);
 8002868:	4618      	mov	r0, r3

  return HAL_OK;
}
 800286a:	bd10      	pop	{r4, pc}

0800286c <HAL_TIMEx_CommutationCallback>:
 800286c:	4770      	bx	lr

0800286e <HAL_TIMEx_BreakCallback>:
  * @brief  Hall Break detection callback in non blocking mode
  * @param  htim : TIM handle
  * @retval None
  */
__weak void HAL_TIMEx_BreakCallback(TIM_HandleTypeDef *htim)
{
 800286e:	4770      	bx	lr

08002870 <UART_EndRxTransfer>:
  * @retval None
  */
static void UART_EndRxTransfer(UART_HandleTypeDef *huart)
{
  /* Disable RXNE, PE and ERR (Frame error, noise error, overrun error) interrupts */
  CLEAR_BIT(huart->Instance->CR1, (USART_CR1_RXNEIE | USART_CR1_PEIE));
 8002870:	6803      	ldr	r3, [r0, #0]
 8002872:	68da      	ldr	r2, [r3, #12]
 8002874:	f422 7290 	bic.w	r2, r2, #288	; 0x120
 8002878:	60da      	str	r2, [r3, #12]
  CLEAR_BIT(huart->Instance->CR3, USART_CR3_EIE);
 800287a:	695a      	ldr	r2, [r3, #20]
 800287c:	f022 0201 	bic.w	r2, r2, #1
 8002880:	615a      	str	r2, [r3, #20]

  /* At end of Rx process, restore huart->RxState to Ready */
  huart->RxState = HAL_UART_STATE_READY;
 8002882:	2320      	movs	r3, #32
 8002884:	f880 303a 	strb.w	r3, [r0, #58]	; 0x3a
 8002888:	4770      	bx	lr
	...

0800288c <UART_SetConfig>:
  * @param  huart: pointer to a UART_HandleTypeDef structure that contains
  *                the configuration information for the specified UART module.
  * @retval None
  */
static void UART_SetConfig(UART_HandleTypeDef *huart)
{
 800288c:	e92d 47f0 	stmdb	sp!, {r4, r5, r6, r7, r8, r9, sl, lr}
  assert_param(IS_UART_MODE(huart->Init.Mode));

  /*------- UART-associated USART registers setting : CR2 Configuration ------*/
  /* Configure the UART Stop Bits: Set STOP[13:12] bits according 
   * to huart->Init.StopBits value */
  MODIFY_REG(huart->Instance->CR2, USART_CR2_STOP, huart->Init.StopBits);
 8002890:	6805      	ldr	r5, [r0, #0]
 8002892:	68c2      	ldr	r2, [r0, #12]
 8002894:	692b      	ldr	r3, [r5, #16]
  tmpreg |= (uint32_t)huart->Init.WordLength | huart->Init.Parity | huart->Init.Mode | huart->Init.OverSampling;
  MODIFY_REG(huart->Instance->CR1, 
             (uint32_t)(USART_CR1_M | USART_CR1_PCE | USART_CR1_PS | USART_CR1_TE | USART_CR1_RE | USART_CR1_OVER8), 
             tmpreg);
#else
  tmpreg |= (uint32_t)huart->Init.WordLength | huart->Init.Parity | huart->Init.Mode;
 8002896:	6901      	ldr	r1, [r0, #16]
  MODIFY_REG(huart->Instance->CR2, USART_CR2_STOP, huart->Init.StopBits);
 8002898:	f423 5340 	bic.w	r3, r3, #12288	; 0x3000
 800289c:	4313      	orrs	r3, r2
 800289e:	612b      	str	r3, [r5, #16]
  tmpreg |= (uint32_t)huart->Init.WordLength | huart->Init.Parity | huart->Init.Mode;
 80028a0:	6883      	ldr	r3, [r0, #8]
  MODIFY_REG(huart->Instance->CR1, 
 80028a2:	68ea      	ldr	r2, [r5, #12]
  tmpreg |= (uint32_t)huart->Init.WordLength | huart->Init.Parity | huart->Init.Mode;
 80028a4:	430b      	orrs	r3, r1
 80028a6:	6941      	ldr	r1, [r0, #20]
  MODIFY_REG(huart->Instance->CR1, 
 80028a8:	f422 52b0 	bic.w	r2, r2, #5632	; 0x1600
 80028ac:	f022 020c 	bic.w	r2, r2, #12
  tmpreg |= (uint32_t)huart->Init.WordLength | huart->Init.Parity | huart->Init.Mode;
 80028b0:	430b      	orrs	r3, r1
  MODIFY_REG(huart->Instance->CR1, 
 80028b2:	4313      	orrs	r3, r2
 80028b4:	60eb      	str	r3, [r5, #12]
             tmpreg);
#endif /* USART_CR1_OVER8 */

  /*------- UART-associated USART registers setting : CR3 Configuration ------*/
  /* Configure the UART HFC: Set CTSE and RTSE bits according to huart->Init.HwFlowCtl value */
  MODIFY_REG(huart->Instance->CR3, (USART_CR3_RTSE | USART_CR3_CTSE), huart->Init.HwFlowCtl);
 80028b6:	696b      	ldr	r3, [r5, #20]
 80028b8:	6982      	ldr	r2, [r0, #24]
 80028ba:	f423 7340 	bic.w	r3, r3, #768	; 0x300
 80028be:	4313      	orrs	r3, r2
 80028c0:	616b      	str	r3, [r5, #20]
      huart->Instance->BRR = UART_BRR_SAMPLING16(HAL_RCC_GetPCLK1Freq(), huart->Init.BaudRate);
    }
  }
#else
  /*-------------------------- USART BRR Configuration ---------------------*/
  if(huart->Instance == USART1)
 80028c2:	4b40      	ldr	r3, [pc, #256]	; (80029c4 <UART_SetConfig+0x138>)
{
 80028c4:	4681      	mov	r9, r0
  if(huart->Instance == USART1)
 80028c6:	429d      	cmp	r5, r3
 80028c8:	f04f 0419 	mov.w	r4, #25
 80028cc:	d146      	bne.n	800295c <UART_SetConfig+0xd0>
  {
    huart->Instance->BRR = UART_BRR_SAMPLING16(HAL_RCC_GetPCLK2Freq(), huart->Init.BaudRate);
 80028ce:	f7ff fb43 	bl	8001f58 <HAL_RCC_GetPCLK2Freq>
 80028d2:	fb04 f300 	mul.w	r3, r4, r0
 80028d6:	f8d9 6004 	ldr.w	r6, [r9, #4]
 80028da:	f04f 0864 	mov.w	r8, #100	; 0x64
 80028de:	00b6      	lsls	r6, r6, #2
 80028e0:	fbb3 f3f6 	udiv	r3, r3, r6
 80028e4:	fbb3 f3f8 	udiv	r3, r3, r8
 80028e8:	011e      	lsls	r6, r3, #4
 80028ea:	f7ff fb35 	bl	8001f58 <HAL_RCC_GetPCLK2Freq>
 80028ee:	4360      	muls	r0, r4
 80028f0:	f8d9 3004 	ldr.w	r3, [r9, #4]
 80028f4:	009b      	lsls	r3, r3, #2
 80028f6:	fbb0 f7f3 	udiv	r7, r0, r3
 80028fa:	f7ff fb2d 	bl	8001f58 <HAL_RCC_GetPCLK2Freq>
 80028fe:	4360      	muls	r0, r4
 8002900:	f8d9 3004 	ldr.w	r3, [r9, #4]
 8002904:	009b      	lsls	r3, r3, #2
 8002906:	fbb0 f3f3 	udiv	r3, r0, r3
 800290a:	fbb3 f3f8 	udiv	r3, r3, r8
 800290e:	fb08 7313 	mls	r3, r8, r3, r7
 8002912:	011b      	lsls	r3, r3, #4
 8002914:	3332      	adds	r3, #50	; 0x32
 8002916:	fbb3 f3f8 	udiv	r3, r3, r8
 800291a:	f003 07f0 	and.w	r7, r3, #240	; 0xf0
 800291e:	f7ff fb1b 	bl	8001f58 <HAL_RCC_GetPCLK2Freq>
 8002922:	4360      	muls	r0, r4
 8002924:	f8d9 2004 	ldr.w	r2, [r9, #4]
 8002928:	0092      	lsls	r2, r2, #2
 800292a:	fbb0 faf2 	udiv	sl, r0, r2
 800292e:	f7ff fb13 	bl	8001f58 <HAL_RCC_GetPCLK2Freq>
  }
  else
  {
    huart->Instance->BRR = UART_BRR_SAMPLING16(HAL_RCC_GetPCLK1Freq(), huart->Init.BaudRate);
 8002932:	4360      	muls	r0, r4
 8002934:	f8d9 3004 	ldr.w	r3, [r9, #4]
 8002938:	009b      	lsls	r3, r3, #2
 800293a:	fbb0 f3f3 	udiv	r3, r0, r3
 800293e:	fbb3 f3f8 	udiv	r3, r3, r8
 8002942:	fb08 a313 	mls	r3, r8, r3, sl
 8002946:	011b      	lsls	r3, r3, #4
 8002948:	3332      	adds	r3, #50	; 0x32
 800294a:	fbb3 f3f8 	udiv	r3, r3, r8
 800294e:	f003 030f 	and.w	r3, r3, #15
 8002952:	433b      	orrs	r3, r7
 8002954:	4433      	add	r3, r6
 8002956:	60ab      	str	r3, [r5, #8]
 8002958:	e8bd 87f0 	ldmia.w	sp!, {r4, r5, r6, r7, r8, r9, sl, pc}
 800295c:	f7ff faec 	bl	8001f38 <HAL_RCC_GetPCLK1Freq>
 8002960:	fb04 f300 	mul.w	r3, r4, r0
 8002964:	f8d9 6004 	ldr.w	r6, [r9, #4]
 8002968:	f04f 0864 	mov.w	r8, #100	; 0x64
 800296c:	00b6      	lsls	r6, r6, #2
 800296e:	fbb3 f3f6 	udiv	r3, r3, r6
 8002972:	fbb3 f3f8 	udiv	r3, r3, r8
 8002976:	011e      	lsls	r6, r3, #4
 8002978:	f7ff fade 	bl	8001f38 <HAL_RCC_GetPCLK1Freq>
 800297c:	4360      	muls	r0, r4
 800297e:	f8d9 3004 	ldr.w	r3, [r9, #4]
 8002982:	009b      	lsls	r3, r3, #2
 8002984:	fbb0 f7f3 	udiv	r7, r0, r3
 8002988:	f7ff fad6 	bl	8001f38 <HAL_RCC_GetPCLK1Freq>
 800298c:	4360      	muls	r0, r4
 800298e:	f8d9 3004 	ldr.w	r3, [r9, #4]
 8002992:	009b      	lsls	r3, r3, #2
 8002994:	fbb0 f3f3 	udiv	r3, r0, r3
 8002998:	fbb3 f3f8 	udiv	r3, r3, r8
 800299c:	fb08 7313 	mls	r3, r8, r3, r7
 80029a0:	011b      	lsls	r3, r3, #4
 80029a2:	3332      	adds	r3, #50	; 0x32
 80029a4:	fbb3 f3f8 	udiv	r3, r3, r8
 80029a8:	f003 07f0 	and.w	r7, r3, #240	; 0xf0
 80029ac:	f7ff fac4 	bl	8001f38 <HAL_RCC_GetPCLK1Freq>
 80029b0:	4360      	muls	r0, r4
 80029b2:	f8d9 2004 	ldr.w	r2, [r9, #4]
 80029b6:	0092      	lsls	r2, r2, #2
 80029b8:	fbb0 faf2 	udiv	sl, r0, r2
 80029bc:	f7ff fabc 	bl	8001f38 <HAL_RCC_GetPCLK1Freq>
 80029c0:	e7b7      	b.n	8002932 <UART_SetConfig+0xa6>
 80029c2:	bf00      	nop
 80029c4:	40013800 	.word	0x40013800

080029c8 <UART_WaitOnFlagUntilTimeout.constprop.3>:
static HAL_StatusTypeDef UART_WaitOnFlagUntilTimeout(UART_HandleTypeDef *huart, uint32_t Flag, FlagStatus Status, uint32_t Tickstart, uint32_t Timeout)
 80029c8:	b5f8      	push	{r3, r4, r5, r6, r7, lr}
 80029ca:	4604      	mov	r4, r0
 80029cc:	460e      	mov	r6, r1
 80029ce:	4617      	mov	r7, r2
 80029d0:	461d      	mov	r5, r3
  while((__HAL_UART_GET_FLAG(huart, Flag) ? SET : RESET) == Status) 
 80029d2:	6821      	ldr	r1, [r4, #0]
 80029d4:	680b      	ldr	r3, [r1, #0]
 80029d6:	ea36 0303 	bics.w	r3, r6, r3
 80029da:	d101      	bne.n	80029e0 <UART_WaitOnFlagUntilTimeout.constprop.3+0x18>
  return HAL_OK;
 80029dc:	2000      	movs	r0, #0
}
 80029de:	bdf8      	pop	{r3, r4, r5, r6, r7, pc}
    if(Timeout != HAL_MAX_DELAY)
 80029e0:	1c6b      	adds	r3, r5, #1
 80029e2:	d0f7      	beq.n	80029d4 <UART_WaitOnFlagUntilTimeout.constprop.3+0xc>
      if((Timeout == 0U)||((HAL_GetTick() - Tickstart ) > Timeout))
 80029e4:	b995      	cbnz	r5, 8002a0c <UART_WaitOnFlagUntilTimeout.constprop.3+0x44>
        CLEAR_BIT(huart->Instance->CR1, (USART_CR1_RXNEIE | USART_CR1_PEIE | USART_CR1_TXEIE));
 80029e6:	6823      	ldr	r3, [r4, #0]
        __HAL_UNLOCK(huart);
 80029e8:	2003      	movs	r0, #3
        CLEAR_BIT(huart->Instance->CR1, (USART_CR1_RXNEIE | USART_CR1_PEIE | USART_CR1_TXEIE));
 80029ea:	68da      	ldr	r2, [r3, #12]
 80029ec:	f422 72d0 	bic.w	r2, r2, #416	; 0x1a0
 80029f0:	60da      	str	r2, [r3, #12]
        CLEAR_BIT(huart->Instance->CR3, USART_CR3_EIE);
 80029f2:	695a      	ldr	r2, [r3, #20]
 80029f4:	f022 0201 	bic.w	r2, r2, #1
 80029f8:	615a      	str	r2, [r3, #20]
        huart->gState  = HAL_UART_STATE_READY;
 80029fa:	2320      	movs	r3, #32
 80029fc:	f884 3039 	strb.w	r3, [r4, #57]	; 0x39
        huart->RxState = HAL_UART_STATE_READY;
 8002a00:	f884 303a 	strb.w	r3, [r4, #58]	; 0x3a
        __HAL_UNLOCK(huart);
 8002a04:	2300      	movs	r3, #0
 8002a06:	f884 3038 	strb.w	r3, [r4, #56]	; 0x38
 8002a0a:	bdf8      	pop	{r3, r4, r5, r6, r7, pc}
      if((Timeout == 0U)||((HAL_GetTick() - Tickstart ) > Timeout))
 8002a0c:	f7fe fa8a 	bl	8000f24 <HAL_GetTick>
 8002a10:	1bc0      	subs	r0, r0, r7
 8002a12:	4285      	cmp	r5, r0
 8002a14:	d2dd      	bcs.n	80029d2 <UART_WaitOnFlagUntilTimeout.constprop.3+0xa>
 8002a16:	e7e6      	b.n	80029e6 <UART_WaitOnFlagUntilTimeout.constprop.3+0x1e>

08002a18 <HAL_UART_Init>:
{
 8002a18:	b510      	push	{r4, lr}
  if(huart == NULL)
 8002a1a:	4604      	mov	r4, r0
 8002a1c:	b340      	cbz	r0, 8002a70 <HAL_UART_Init+0x58>
  if(huart->gState == HAL_UART_STATE_RESET)
 8002a1e:	f890 3039 	ldrb.w	r3, [r0, #57]	; 0x39
 8002a22:	f003 02ff 	and.w	r2, r3, #255	; 0xff
 8002a26:	b91b      	cbnz	r3, 8002a30 <HAL_UART_Init+0x18>
    huart->Lock = HAL_UNLOCKED;
 8002a28:	f880 2038 	strb.w	r2, [r0, #56]	; 0x38
    HAL_UART_MspInit(huart);
 8002a2c:	f001 fb7c 	bl	8004128 <HAL_UART_MspInit>
  huart->gState = HAL_UART_STATE_BUSY;
 8002a30:	2324      	movs	r3, #36	; 0x24
  __HAL_UART_DISABLE(huart);
 8002a32:	6822      	ldr	r2, [r4, #0]
  huart->gState = HAL_UART_STATE_BUSY;
 8002a34:	f884 3039 	strb.w	r3, [r4, #57]	; 0x39
  __HAL_UART_DISABLE(huart);
 8002a38:	68d3      	ldr	r3, [r2, #12]
  UART_SetConfig(huart);
 8002a3a:	4620      	mov	r0, r4
  __HAL_UART_DISABLE(huart);
 8002a3c:	f423 5300 	bic.w	r3, r3, #8192	; 0x2000
 8002a40:	60d3      	str	r3, [r2, #12]
  UART_SetConfig(huart);
 8002a42:	f7ff ff23 	bl	800288c <UART_SetConfig>
  CLEAR_BIT(huart->Instance->CR2, (USART_CR2_LINEN | USART_CR2_CLKEN));
 8002a46:	6823      	ldr	r3, [r4, #0]
  huart->ErrorCode = HAL_UART_ERROR_NONE;
 8002a48:	2000      	movs	r0, #0
  CLEAR_BIT(huart->Instance->CR2, (USART_CR2_LINEN | USART_CR2_CLKEN));
 8002a4a:	691a      	ldr	r2, [r3, #16]
 8002a4c:	f422 4290 	bic.w	r2, r2, #18432	; 0x4800
 8002a50:	611a      	str	r2, [r3, #16]
  CLEAR_BIT(huart->Instance->CR3, (USART_CR3_SCEN | USART_CR3_HDSEL | USART_CR3_IREN));
 8002a52:	695a      	ldr	r2, [r3, #20]
 8002a54:	f022 022a 	bic.w	r2, r2, #42	; 0x2a
 8002a58:	615a      	str	r2, [r3, #20]
  __HAL_UART_ENABLE(huart);
 8002a5a:	68da      	ldr	r2, [r3, #12]
 8002a5c:	f442 5200 	orr.w	r2, r2, #8192	; 0x2000
 8002a60:	60da      	str	r2, [r3, #12]
  huart->gState= HAL_UART_STATE_READY;
 8002a62:	2320      	movs	r3, #32
  huart->ErrorCode = HAL_UART_ERROR_NONE;
 8002a64:	63e0      	str	r0, [r4, #60]	; 0x3c
  huart->gState= HAL_UART_STATE_READY;
 8002a66:	f884 3039 	strb.w	r3, [r4, #57]	; 0x39
  huart->RxState= HAL_UART_STATE_READY;
 8002a6a:	f884 303a 	strb.w	r3, [r4, #58]	; 0x3a
  return HAL_OK;
 8002a6e:	bd10      	pop	{r4, pc}
    return HAL_ERROR;
 8002a70:	2001      	movs	r0, #1
}
 8002a72:	bd10      	pop	{r4, pc}

08002a74 <HAL_UART_Transmit>:
{
 8002a74:	e92d 41f0 	stmdb	sp!, {r4, r5, r6, r7, r8, lr}
 8002a78:	461f      	mov	r7, r3
  if(huart->gState == HAL_UART_STATE_READY)
 8002a7a:	f890 3039 	ldrb.w	r3, [r0, #57]	; 0x39
{
 8002a7e:	4604      	mov	r4, r0
  if(huart->gState == HAL_UART_STATE_READY)
 8002a80:	2b20      	cmp	r3, #32
{
 8002a82:	460d      	mov	r5, r1
 8002a84:	4690      	mov	r8, r2
  if(huart->gState == HAL_UART_STATE_READY)
 8002a86:	d14e      	bne.n	8002b26 <HAL_UART_Transmit+0xb2>
    if((pData == NULL) || (Size == 0U))
 8002a88:	2900      	cmp	r1, #0
 8002a8a:	d049      	beq.n	8002b20 <HAL_UART_Transmit+0xac>
 8002a8c:	2a00      	cmp	r2, #0
 8002a8e:	d047      	beq.n	8002b20 <HAL_UART_Transmit+0xac>
    __HAL_LOCK(huart);
 8002a90:	f890 3038 	ldrb.w	r3, [r0, #56]	; 0x38
 8002a94:	2b01      	cmp	r3, #1
 8002a96:	d046      	beq.n	8002b26 <HAL_UART_Transmit+0xb2>
 8002a98:	2301      	movs	r3, #1
 8002a9a:	f880 3038 	strb.w	r3, [r0, #56]	; 0x38
    huart->ErrorCode = HAL_UART_ERROR_NONE;
 8002a9e:	2300      	movs	r3, #0
 8002aa0:	63c3      	str	r3, [r0, #60]	; 0x3c
    huart->gState = HAL_UART_STATE_BUSY_TX;
 8002aa2:	2321      	movs	r3, #33	; 0x21
 8002aa4:	f880 3039 	strb.w	r3, [r0, #57]	; 0x39
    tickstart = HAL_GetTick();
 8002aa8:	f7fe fa3c 	bl	8000f24 <HAL_GetTick>
 8002aac:	4606      	mov	r6, r0
    huart->TxXferSize = Size;
 8002aae:	f8a4 8024 	strh.w	r8, [r4, #36]	; 0x24
    huart->TxXferCount = Size;
 8002ab2:	f8a4 8026 	strh.w	r8, [r4, #38]	; 0x26
    while(huart->TxXferCount > 0U)
 8002ab6:	8ce3      	ldrh	r3, [r4, #38]	; 0x26
 8002ab8:	b29b      	uxth	r3, r3
 8002aba:	b96b      	cbnz	r3, 8002ad8 <HAL_UART_Transmit+0x64>
    if(UART_WaitOnFlagUntilTimeout(huart, UART_FLAG_TC, RESET, tickstart, Timeout) != HAL_OK)
 8002abc:	463b      	mov	r3, r7
 8002abe:	4632      	mov	r2, r6
 8002ac0:	2140      	movs	r1, #64	; 0x40
 8002ac2:	4620      	mov	r0, r4
 8002ac4:	f7ff ff80 	bl	80029c8 <UART_WaitOnFlagUntilTimeout.constprop.3>
 8002ac8:	b9a8      	cbnz	r0, 8002af6 <HAL_UART_Transmit+0x82>
    huart->gState = HAL_UART_STATE_READY;
 8002aca:	2320      	movs	r3, #32
    __HAL_UNLOCK(huart);
 8002acc:	f884 0038 	strb.w	r0, [r4, #56]	; 0x38
    huart->gState = HAL_UART_STATE_READY;
 8002ad0:	f884 3039 	strb.w	r3, [r4, #57]	; 0x39
    return HAL_OK;
 8002ad4:	e8bd 81f0 	ldmia.w	sp!, {r4, r5, r6, r7, r8, pc}
      huart->TxXferCount--;
 8002ad8:	8ce3      	ldrh	r3, [r4, #38]	; 0x26
        if(UART_WaitOnFlagUntilTimeout(huart, UART_FLAG_TXE, RESET, tickstart, Timeout) != HAL_OK)
 8002ada:	4632      	mov	r2, r6
      huart->TxXferCount--;
 8002adc:	3b01      	subs	r3, #1
 8002ade:	b29b      	uxth	r3, r3
 8002ae0:	84e3      	strh	r3, [r4, #38]	; 0x26
      if(huart->Init.WordLength == UART_WORDLENGTH_9B)
 8002ae2:	68a3      	ldr	r3, [r4, #8]
        if(UART_WaitOnFlagUntilTimeout(huart, UART_FLAG_TXE, RESET, tickstart, Timeout) != HAL_OK)
 8002ae4:	2180      	movs	r1, #128	; 0x80
      if(huart->Init.WordLength == UART_WORDLENGTH_9B)
 8002ae6:	f5b3 5f80 	cmp.w	r3, #4096	; 0x1000
        if(UART_WaitOnFlagUntilTimeout(huart, UART_FLAG_TXE, RESET, tickstart, Timeout) != HAL_OK)
 8002aea:	4620      	mov	r0, r4
 8002aec:	463b      	mov	r3, r7
      if(huart->Init.WordLength == UART_WORDLENGTH_9B)
 8002aee:	d10e      	bne.n	8002b0e <HAL_UART_Transmit+0x9a>
        if(UART_WaitOnFlagUntilTimeout(huart, UART_FLAG_TXE, RESET, tickstart, Timeout) != HAL_OK)
 8002af0:	f7ff ff6a 	bl	80029c8 <UART_WaitOnFlagUntilTimeout.constprop.3>
 8002af4:	b110      	cbz	r0, 8002afc <HAL_UART_Transmit+0x88>
          return HAL_TIMEOUT;
 8002af6:	2003      	movs	r0, #3
 8002af8:	e8bd 81f0 	ldmia.w	sp!, {r4, r5, r6, r7, r8, pc}
        huart->Instance->DR = (*tmp & (uint16_t)0x01FF);
 8002afc:	882b      	ldrh	r3, [r5, #0]
 8002afe:	6822      	ldr	r2, [r4, #0]
 8002b00:	f3c3 0308 	ubfx	r3, r3, #0, #9
 8002b04:	6053      	str	r3, [r2, #4]
        if(huart->Init.Parity == UART_PARITY_NONE)
 8002b06:	6923      	ldr	r3, [r4, #16]
 8002b08:	b943      	cbnz	r3, 8002b1c <HAL_UART_Transmit+0xa8>
          pData +=2U;
 8002b0a:	3502      	adds	r5, #2
 8002b0c:	e7d3      	b.n	8002ab6 <HAL_UART_Transmit+0x42>
        if(UART_WaitOnFlagUntilTimeout(huart, UART_FLAG_TXE, RESET, tickstart, Timeout) != HAL_OK)
 8002b0e:	f7ff ff5b 	bl	80029c8 <UART_WaitOnFlagUntilTimeout.constprop.3>
 8002b12:	2800      	cmp	r0, #0
 8002b14:	d1ef      	bne.n	8002af6 <HAL_UART_Transmit+0x82>
        huart->Instance->DR = (*pData++ & (uint8_t)0xFF);
 8002b16:	6823      	ldr	r3, [r4, #0]
 8002b18:	782a      	ldrb	r2, [r5, #0]
 8002b1a:	605a      	str	r2, [r3, #4]
 8002b1c:	3501      	adds	r5, #1
 8002b1e:	e7ca      	b.n	8002ab6 <HAL_UART_Transmit+0x42>
      return  HAL_ERROR;
 8002b20:	2001      	movs	r0, #1
 8002b22:	e8bd 81f0 	ldmia.w	sp!, {r4, r5, r6, r7, r8, pc}
    return HAL_BUSY;
 8002b26:	2002      	movs	r0, #2
}
 8002b28:	e8bd 81f0 	ldmia.w	sp!, {r4, r5, r6, r7, r8, pc}

08002b2c <HAL_UART_Receive_IT>:
  if(huart->RxState == HAL_UART_STATE_READY)
 8002b2c:	f890 303a 	ldrb.w	r3, [r0, #58]	; 0x3a
 8002b30:	2b20      	cmp	r3, #32
 8002b32:	d120      	bne.n	8002b76 <HAL_UART_Receive_IT+0x4a>
    if((pData == NULL) || (Size == 0U))
 8002b34:	b1e9      	cbz	r1, 8002b72 <HAL_UART_Receive_IT+0x46>
 8002b36:	b1e2      	cbz	r2, 8002b72 <HAL_UART_Receive_IT+0x46>
    __HAL_LOCK(huart);
 8002b38:	f890 3038 	ldrb.w	r3, [r0, #56]	; 0x38
 8002b3c:	2b01      	cmp	r3, #1
 8002b3e:	d01a      	beq.n	8002b76 <HAL_UART_Receive_IT+0x4a>
    huart->RxXferCount = Size;
 8002b40:	85c2      	strh	r2, [r0, #46]	; 0x2e
    huart->RxXferSize = Size;
 8002b42:	8582      	strh	r2, [r0, #44]	; 0x2c
    huart->ErrorCode = HAL_UART_ERROR_NONE;
 8002b44:	2300      	movs	r3, #0
    huart->RxState = HAL_UART_STATE_BUSY_RX;
 8002b46:	2222      	movs	r2, #34	; 0x22
    huart->ErrorCode = HAL_UART_ERROR_NONE;
 8002b48:	63c3      	str	r3, [r0, #60]	; 0x3c
    huart->RxState = HAL_UART_STATE_BUSY_RX;
 8002b4a:	f880 203a 	strb.w	r2, [r0, #58]	; 0x3a
    __HAL_UART_ENABLE_IT(huart, UART_IT_PE);
 8002b4e:	6802      	ldr	r2, [r0, #0]
    huart->pRxBuffPtr = pData;
 8002b50:	6281      	str	r1, [r0, #40]	; 0x28
    __HAL_UART_ENABLE_IT(huart, UART_IT_PE);
 8002b52:	68d1      	ldr	r1, [r2, #12]
    __HAL_UNLOCK(huart);
 8002b54:	f880 3038 	strb.w	r3, [r0, #56]	; 0x38
    __HAL_UART_ENABLE_IT(huart, UART_IT_PE);
 8002b58:	f441 7180 	orr.w	r1, r1, #256	; 0x100
 8002b5c:	60d1      	str	r1, [r2, #12]
    __HAL_UART_ENABLE_IT(huart, UART_IT_ERR);
 8002b5e:	6951      	ldr	r1, [r2, #20]
    return HAL_OK;
 8002b60:	4618      	mov	r0, r3
    __HAL_UART_ENABLE_IT(huart, UART_IT_ERR);
 8002b62:	f041 0101 	orr.w	r1, r1, #1
 8002b66:	6151      	str	r1, [r2, #20]
    __HAL_UART_ENABLE_IT(huart, UART_IT_RXNE);
 8002b68:	68d1      	ldr	r1, [r2, #12]
 8002b6a:	f041 0120 	orr.w	r1, r1, #32
 8002b6e:	60d1      	str	r1, [r2, #12]
    return HAL_OK;
 8002b70:	4770      	bx	lr
      return HAL_ERROR;
 8002b72:	2001      	movs	r0, #1
 8002b74:	4770      	bx	lr
    return HAL_BUSY;
 8002b76:	2002      	movs	r0, #2
}
 8002b78:	4770      	bx	lr
	...

08002b7c <HAL_UART_Transmit_DMA>:
{
 8002b7c:	b538      	push	{r3, r4, r5, lr}
 8002b7e:	4604      	mov	r4, r0
 8002b80:	4613      	mov	r3, r2
  if(huart->gState == HAL_UART_STATE_READY)
 8002b82:	f894 2039 	ldrb.w	r2, [r4, #57]	; 0x39
 8002b86:	2a20      	cmp	r2, #32
 8002b88:	d12a      	bne.n	8002be0 <HAL_UART_Transmit_DMA+0x64>
    if((pData == NULL) || (Size == 0U))
 8002b8a:	b339      	cbz	r1, 8002bdc <HAL_UART_Transmit_DMA+0x60>
 8002b8c:	b333      	cbz	r3, 8002bdc <HAL_UART_Transmit_DMA+0x60>
    __HAL_LOCK(huart);
 8002b8e:	f894 2038 	ldrb.w	r2, [r4, #56]	; 0x38
 8002b92:	2a01      	cmp	r2, #1
 8002b94:	d024      	beq.n	8002be0 <HAL_UART_Transmit_DMA+0x64>
 8002b96:	2201      	movs	r2, #1
    huart->ErrorCode = HAL_UART_ERROR_NONE;
 8002b98:	2500      	movs	r5, #0
    __HAL_LOCK(huart);
 8002b9a:	f884 2038 	strb.w	r2, [r4, #56]	; 0x38
    huart->gState = HAL_UART_STATE_BUSY_TX;
 8002b9e:	2221      	movs	r2, #33	; 0x21
    huart->TxXferCount = Size;
 8002ba0:	84e3      	strh	r3, [r4, #38]	; 0x26
    huart->hdmatx->XferCpltCallback = UART_DMATransmitCplt;
 8002ba2:	6b20      	ldr	r0, [r4, #48]	; 0x30
    huart->ErrorCode = HAL_UART_ERROR_NONE;
 8002ba4:	63e5      	str	r5, [r4, #60]	; 0x3c
    huart->gState = HAL_UART_STATE_BUSY_TX;
 8002ba6:	f884 2039 	strb.w	r2, [r4, #57]	; 0x39
    huart->hdmatx->XferCpltCallback = UART_DMATransmitCplt;
 8002baa:	4a0e      	ldr	r2, [pc, #56]	; (8002be4 <HAL_UART_Transmit_DMA+0x68>)
    huart->TxXferSize = Size;
 8002bac:	84a3      	strh	r3, [r4, #36]	; 0x24
    huart->pTxBuffPtr = pData;
 8002bae:	6221      	str	r1, [r4, #32]
    huart->hdmatx->XferCpltCallback = UART_DMATransmitCplt;
 8002bb0:	6282      	str	r2, [r0, #40]	; 0x28
    huart->hdmatx->XferHalfCpltCallback = UART_DMATxHalfCplt;
 8002bb2:	4a0d      	ldr	r2, [pc, #52]	; (8002be8 <HAL_UART_Transmit_DMA+0x6c>)
    huart->hdmatx->XferAbortCallback = NULL;
 8002bb4:	6345      	str	r5, [r0, #52]	; 0x34
    huart->hdmatx->XferHalfCpltCallback = UART_DMATxHalfCplt;
 8002bb6:	62c2      	str	r2, [r0, #44]	; 0x2c
    huart->hdmatx->XferErrorCallback = UART_DMAError;
 8002bb8:	4a0c      	ldr	r2, [pc, #48]	; (8002bec <HAL_UART_Transmit_DMA+0x70>)
 8002bba:	6302      	str	r2, [r0, #48]	; 0x30
    HAL_DMA_Start_IT(huart->hdmatx, *(uint32_t*)tmp, (uint32_t)&huart->Instance->DR, Size);
 8002bbc:	6822      	ldr	r2, [r4, #0]
 8002bbe:	3204      	adds	r2, #4
 8002bc0:	f7fe fcc4 	bl	800154c <HAL_DMA_Start_IT>
    __HAL_UART_CLEAR_FLAG(huart, UART_FLAG_TC);
 8002bc4:	f06f 0240 	mvn.w	r2, #64	; 0x40
 8002bc8:	6823      	ldr	r3, [r4, #0]
    return HAL_OK;
 8002bca:	4628      	mov	r0, r5
    __HAL_UART_CLEAR_FLAG(huart, UART_FLAG_TC);
 8002bcc:	601a      	str	r2, [r3, #0]
    SET_BIT(huart->Instance->CR3, USART_CR3_DMAT);
 8002bce:	695a      	ldr	r2, [r3, #20]
    __HAL_UNLOCK(huart);
 8002bd0:	f884 5038 	strb.w	r5, [r4, #56]	; 0x38
    SET_BIT(huart->Instance->CR3, USART_CR3_DMAT);
 8002bd4:	f042 0280 	orr.w	r2, r2, #128	; 0x80
 8002bd8:	615a      	str	r2, [r3, #20]
    return HAL_OK;
 8002bda:	bd38      	pop	{r3, r4, r5, pc}
      return HAL_ERROR;
 8002bdc:	2001      	movs	r0, #1
 8002bde:	bd38      	pop	{r3, r4, r5, pc}
    return HAL_BUSY;
 8002be0:	2002      	movs	r0, #2
}
 8002be2:	bd38      	pop	{r3, r4, r5, pc}
 8002be4:	08002c83 	.word	0x08002c83
 8002be8:	08002cb1 	.word	0x08002cb1
 8002bec:	08002d7d 	.word	0x08002d7d

08002bf0 <HAL_UART_Receive_DMA>:
{
 8002bf0:	4613      	mov	r3, r2
  if(huart->RxState == HAL_UART_STATE_READY) 
 8002bf2:	f890 203a 	ldrb.w	r2, [r0, #58]	; 0x3a
{
 8002bf6:	b573      	push	{r0, r1, r4, r5, r6, lr}
  if(huart->RxState == HAL_UART_STATE_READY) 
 8002bf8:	2a20      	cmp	r2, #32
{
 8002bfa:	4605      	mov	r5, r0
  if(huart->RxState == HAL_UART_STATE_READY) 
 8002bfc:	d138      	bne.n	8002c70 <HAL_UART_Receive_DMA+0x80>
    if((pData == NULL) || (Size == 0U))
 8002bfe:	2900      	cmp	r1, #0
 8002c00:	d034      	beq.n	8002c6c <HAL_UART_Receive_DMA+0x7c>
 8002c02:	2b00      	cmp	r3, #0
 8002c04:	d032      	beq.n	8002c6c <HAL_UART_Receive_DMA+0x7c>
    __HAL_LOCK(huart);
 8002c06:	f890 2038 	ldrb.w	r2, [r0, #56]	; 0x38
 8002c0a:	2a01      	cmp	r2, #1
 8002c0c:	d030      	beq.n	8002c70 <HAL_UART_Receive_DMA+0x80>
 8002c0e:	2201      	movs	r2, #1
    huart->ErrorCode = HAL_UART_ERROR_NONE;
 8002c10:	2400      	movs	r4, #0
    __HAL_LOCK(huart);
 8002c12:	f880 2038 	strb.w	r2, [r0, #56]	; 0x38
    huart->RxState = HAL_UART_STATE_BUSY_RX;
 8002c16:	2222      	movs	r2, #34	; 0x22
    huart->pRxBuffPtr = pData;
 8002c18:	6281      	str	r1, [r0, #40]	; 0x28
    huart->RxXferSize = Size;
 8002c1a:	8583      	strh	r3, [r0, #44]	; 0x2c
    huart->ErrorCode = HAL_UART_ERROR_NONE;
 8002c1c:	63c4      	str	r4, [r0, #60]	; 0x3c
    huart->RxState = HAL_UART_STATE_BUSY_RX;
 8002c1e:	f880 203a 	strb.w	r2, [r0, #58]	; 0x3a
    huart->hdmarx->XferCpltCallback = UART_DMAReceiveCplt;
 8002c22:	6b40      	ldr	r0, [r0, #52]	; 0x34
 8002c24:	4a13      	ldr	r2, [pc, #76]	; (8002c74 <HAL_UART_Receive_DMA+0x84>)
    HAL_DMA_Start_IT(huart->hdmarx, (uint32_t)&huart->Instance->DR, *(uint32_t*)tmp, Size);
 8002c26:	682e      	ldr	r6, [r5, #0]
    huart->hdmarx->XferCpltCallback = UART_DMAReceiveCplt;
 8002c28:	6282      	str	r2, [r0, #40]	; 0x28
    huart->hdmarx->XferHalfCpltCallback = UART_DMARxHalfCplt;
 8002c2a:	4a13      	ldr	r2, [pc, #76]	; (8002c78 <HAL_UART_Receive_DMA+0x88>)
    huart->hdmarx->XferAbortCallback = NULL;
 8002c2c:	6344      	str	r4, [r0, #52]	; 0x34
    huart->hdmarx->XferHalfCpltCallback = UART_DMARxHalfCplt;
 8002c2e:	62c2      	str	r2, [r0, #44]	; 0x2c
    huart->hdmarx->XferErrorCallback = UART_DMAError;
 8002c30:	4a12      	ldr	r2, [pc, #72]	; (8002c7c <HAL_UART_Receive_DMA+0x8c>)
 8002c32:	6302      	str	r2, [r0, #48]	; 0x30
    HAL_DMA_Start_IT(huart->hdmarx, (uint32_t)&huart->Instance->DR, *(uint32_t*)tmp, Size);
 8002c34:	460a      	mov	r2, r1
 8002c36:	1d31      	adds	r1, r6, #4
 8002c38:	f7fe fc88 	bl	800154c <HAL_DMA_Start_IT>
    return HAL_OK;
 8002c3c:	4620      	mov	r0, r4
    __HAL_UART_CLEAR_OREFLAG(huart);
 8002c3e:	682b      	ldr	r3, [r5, #0]
 8002c40:	9401      	str	r4, [sp, #4]
 8002c42:	681a      	ldr	r2, [r3, #0]
 8002c44:	9201      	str	r2, [sp, #4]
 8002c46:	685a      	ldr	r2, [r3, #4]
    __HAL_UNLOCK(huart);
 8002c48:	f885 4038 	strb.w	r4, [r5, #56]	; 0x38
    __HAL_UART_CLEAR_OREFLAG(huart);
 8002c4c:	9201      	str	r2, [sp, #4]
 8002c4e:	9a01      	ldr	r2, [sp, #4]
    SET_BIT(huart->Instance->CR1, USART_CR1_PEIE);
 8002c50:	68da      	ldr	r2, [r3, #12]
 8002c52:	f442 7280 	orr.w	r2, r2, #256	; 0x100
 8002c56:	60da      	str	r2, [r3, #12]
    SET_BIT(huart->Instance->CR3, USART_CR3_EIE);
 8002c58:	695a      	ldr	r2, [r3, #20]
 8002c5a:	f042 0201 	orr.w	r2, r2, #1
 8002c5e:	615a      	str	r2, [r3, #20]
    SET_BIT(huart->Instance->CR3, USART_CR3_DMAR);
 8002c60:	695a      	ldr	r2, [r3, #20]
 8002c62:	f042 0240 	orr.w	r2, r2, #64	; 0x40
 8002c66:	615a      	str	r2, [r3, #20]
}
 8002c68:	b002      	add	sp, #8
 8002c6a:	bd70      	pop	{r4, r5, r6, pc}
      return HAL_ERROR;
 8002c6c:	2001      	movs	r0, #1
 8002c6e:	e7fb      	b.n	8002c68 <HAL_UART_Receive_DMA+0x78>
    return HAL_BUSY;
 8002c70:	2002      	movs	r0, #2
 8002c72:	e7f9      	b.n	8002c68 <HAL_UART_Receive_DMA+0x78>
 8002c74:	08002cbb 	.word	0x08002cbb
 8002c78:	08002d71 	.word	0x08002d71
 8002c7c:	08002d7d 	.word	0x08002d7d

08002c80 <HAL_UART_TxCpltCallback>:
 8002c80:	4770      	bx	lr

08002c82 <UART_DMATransmitCplt>:
{
 8002c82:	b508      	push	{r3, lr}
  if((hdma->Instance->CCR & DMA_CCR_CIRC) == 0U)
 8002c84:	6803      	ldr	r3, [r0, #0]
  UART_HandleTypeDef* huart = ( UART_HandleTypeDef* )((DMA_HandleTypeDef* )hdma)->Parent;
 8002c86:	6a42      	ldr	r2, [r0, #36]	; 0x24
  if((hdma->Instance->CCR & DMA_CCR_CIRC) == 0U)
 8002c88:	681b      	ldr	r3, [r3, #0]
 8002c8a:	f013 0320 	ands.w	r3, r3, #32
 8002c8e:	d10a      	bne.n	8002ca6 <UART_DMATransmitCplt+0x24>
    huart->TxXferCount = 0U;
 8002c90:	84d3      	strh	r3, [r2, #38]	; 0x26
    CLEAR_BIT(huart->Instance->CR3, USART_CR3_DMAT);
 8002c92:	6813      	ldr	r3, [r2, #0]
 8002c94:	695a      	ldr	r2, [r3, #20]
 8002c96:	f022 0280 	bic.w	r2, r2, #128	; 0x80
 8002c9a:	615a      	str	r2, [r3, #20]
    SET_BIT(huart->Instance->CR1, USART_CR1_TCIE);
 8002c9c:	68da      	ldr	r2, [r3, #12]
 8002c9e:	f042 0240 	orr.w	r2, r2, #64	; 0x40
 8002ca2:	60da      	str	r2, [r3, #12]
 8002ca4:	bd08      	pop	{r3, pc}
    HAL_UART_TxCpltCallback(huart);
 8002ca6:	4610      	mov	r0, r2
 8002ca8:	f7ff ffea 	bl	8002c80 <HAL_UART_TxCpltCallback>
 8002cac:	bd08      	pop	{r3, pc}

08002cae <HAL_UART_TxHalfCpltCallback>:
 8002cae:	4770      	bx	lr

08002cb0 <UART_DMATxHalfCplt>:
{
 8002cb0:	b508      	push	{r3, lr}
  HAL_UART_TxHalfCpltCallback(huart);
 8002cb2:	6a40      	ldr	r0, [r0, #36]	; 0x24
 8002cb4:	f7ff fffb 	bl	8002cae <HAL_UART_TxHalfCpltCallback>
 8002cb8:	bd08      	pop	{r3, pc}

08002cba <UART_DMAReceiveCplt>:
{
 8002cba:	b508      	push	{r3, lr}
  if((hdma->Instance->CCR & DMA_CCR_CIRC) == 0U)
 8002cbc:	6803      	ldr	r3, [r0, #0]
  UART_HandleTypeDef* huart = ( UART_HandleTypeDef* )((DMA_HandleTypeDef* )hdma)->Parent;
 8002cbe:	6a42      	ldr	r2, [r0, #36]	; 0x24
  if((hdma->Instance->CCR & DMA_CCR_CIRC) == 0U)
 8002cc0:	681b      	ldr	r3, [r3, #0]
 8002cc2:	f013 0320 	ands.w	r3, r3, #32
 8002cc6:	d110      	bne.n	8002cea <UART_DMAReceiveCplt+0x30>
    huart->RxXferCount = 0U;
 8002cc8:	85d3      	strh	r3, [r2, #46]	; 0x2e
    CLEAR_BIT(huart->Instance->CR1, USART_CR1_PEIE);
 8002cca:	6813      	ldr	r3, [r2, #0]
 8002ccc:	68d9      	ldr	r1, [r3, #12]
 8002cce:	f421 7180 	bic.w	r1, r1, #256	; 0x100
 8002cd2:	60d9      	str	r1, [r3, #12]
    CLEAR_BIT(huart->Instance->CR3, USART_CR3_EIE);
 8002cd4:	6959      	ldr	r1, [r3, #20]
 8002cd6:	f021 0101 	bic.w	r1, r1, #1
 8002cda:	6159      	str	r1, [r3, #20]
    CLEAR_BIT(huart->Instance->CR3, USART_CR3_DMAR);
 8002cdc:	6959      	ldr	r1, [r3, #20]
 8002cde:	f021 0140 	bic.w	r1, r1, #64	; 0x40
 8002ce2:	6159      	str	r1, [r3, #20]
    huart->RxState = HAL_UART_STATE_READY;
 8002ce4:	2320      	movs	r3, #32
 8002ce6:	f882 303a 	strb.w	r3, [r2, #58]	; 0x3a
  HAL_UART_RxCpltCallback(huart);
 8002cea:	4610      	mov	r0, r2
 8002cec:	f000 fe64 	bl	80039b8 <HAL_UART_RxCpltCallback>
 8002cf0:	bd08      	pop	{r3, pc}

08002cf2 <UART_Receive_IT>:
  if(huart->RxState == HAL_UART_STATE_BUSY_RX) 
 8002cf2:	f890 303a 	ldrb.w	r3, [r0, #58]	; 0x3a
{
 8002cf6:	b510      	push	{r4, lr}
  if(huart->RxState == HAL_UART_STATE_BUSY_RX) 
 8002cf8:	2b22      	cmp	r3, #34	; 0x22
 8002cfa:	d136      	bne.n	8002d6a <UART_Receive_IT+0x78>
    if(huart->Init.WordLength == UART_WORDLENGTH_9B)
 8002cfc:	6883      	ldr	r3, [r0, #8]
 8002cfe:	6901      	ldr	r1, [r0, #16]
 8002d00:	f5b3 5f80 	cmp.w	r3, #4096	; 0x1000
 8002d04:	6802      	ldr	r2, [r0, #0]
 8002d06:	6a83      	ldr	r3, [r0, #40]	; 0x28
 8002d08:	d123      	bne.n	8002d52 <UART_Receive_IT+0x60>
        *tmp = (uint16_t)(huart->Instance->DR & (uint16_t)0x01FF);
 8002d0a:	6852      	ldr	r2, [r2, #4]
      if(huart->Init.Parity == UART_PARITY_NONE)
 8002d0c:	b9e9      	cbnz	r1, 8002d4a <UART_Receive_IT+0x58>
        *tmp = (uint16_t)(huart->Instance->DR & (uint16_t)0x01FF);
 8002d0e:	f3c2 0208 	ubfx	r2, r2, #0, #9
 8002d12:	f823 2b02 	strh.w	r2, [r3], #2
        huart->pRxBuffPtr += 1U;
 8002d16:	6283      	str	r3, [r0, #40]	; 0x28
    if(--huart->RxXferCount == 0U)
 8002d18:	8dc4      	ldrh	r4, [r0, #46]	; 0x2e
 8002d1a:	3c01      	subs	r4, #1
 8002d1c:	b2a4      	uxth	r4, r4
 8002d1e:	85c4      	strh	r4, [r0, #46]	; 0x2e
 8002d20:	b98c      	cbnz	r4, 8002d46 <UART_Receive_IT+0x54>
      __HAL_UART_DISABLE_IT(huart, UART_IT_RXNE);
 8002d22:	6803      	ldr	r3, [r0, #0]
 8002d24:	68da      	ldr	r2, [r3, #12]
 8002d26:	f022 0220 	bic.w	r2, r2, #32
 8002d2a:	60da      	str	r2, [r3, #12]
      __HAL_UART_DISABLE_IT(huart, UART_IT_PE);
 8002d2c:	68da      	ldr	r2, [r3, #12]
 8002d2e:	f422 7280 	bic.w	r2, r2, #256	; 0x100
 8002d32:	60da      	str	r2, [r3, #12]
        __HAL_UART_DISABLE_IT(huart, UART_IT_ERR);
 8002d34:	695a      	ldr	r2, [r3, #20]
 8002d36:	f022 0201 	bic.w	r2, r2, #1
 8002d3a:	615a      	str	r2, [r3, #20]
      huart->RxState = HAL_UART_STATE_READY;
 8002d3c:	2320      	movs	r3, #32
 8002d3e:	f880 303a 	strb.w	r3, [r0, #58]	; 0x3a
      HAL_UART_RxCpltCallback(huart);
 8002d42:	f000 fe39 	bl	80039b8 <HAL_UART_RxCpltCallback>
    if(--huart->RxXferCount == 0U)
 8002d46:	2000      	movs	r0, #0
}
 8002d48:	bd10      	pop	{r4, pc}
        *tmp = (uint16_t)(huart->Instance->DR & (uint16_t)0x00FF);
 8002d4a:	b2d2      	uxtb	r2, r2
 8002d4c:	f823 2b01 	strh.w	r2, [r3], #1
 8002d50:	e7e1      	b.n	8002d16 <UART_Receive_IT+0x24>
      if(huart->Init.Parity == UART_PARITY_NONE)
 8002d52:	b921      	cbnz	r1, 8002d5e <UART_Receive_IT+0x6c>
        *huart->pRxBuffPtr++ = (uint8_t)(huart->Instance->DR & (uint8_t)0x00FF);
 8002d54:	1c59      	adds	r1, r3, #1
 8002d56:	6852      	ldr	r2, [r2, #4]
 8002d58:	6281      	str	r1, [r0, #40]	; 0x28
        *huart->pRxBuffPtr++ = (uint8_t)(huart->Instance->DR & (uint8_t)0x007F);
 8002d5a:	701a      	strb	r2, [r3, #0]
 8002d5c:	e7dc      	b.n	8002d18 <UART_Receive_IT+0x26>
 8002d5e:	6852      	ldr	r2, [r2, #4]
 8002d60:	1c59      	adds	r1, r3, #1
 8002d62:	6281      	str	r1, [r0, #40]	; 0x28
 8002d64:	f002 027f 	and.w	r2, r2, #127	; 0x7f
 8002d68:	e7f7      	b.n	8002d5a <UART_Receive_IT+0x68>
    return HAL_BUSY;
 8002d6a:	2002      	movs	r0, #2
 8002d6c:	bd10      	pop	{r4, pc}

08002d6e <HAL_UART_RxHalfCpltCallback>:
 8002d6e:	4770      	bx	lr

08002d70 <UART_DMARxHalfCplt>:
{
 8002d70:	b508      	push	{r3, lr}
  HAL_UART_RxHalfCpltCallback(huart); 
 8002d72:	6a40      	ldr	r0, [r0, #36]	; 0x24
 8002d74:	f7ff fffb 	bl	8002d6e <HAL_UART_RxHalfCpltCallback>
 8002d78:	bd08      	pop	{r3, pc}

08002d7a <HAL_UART_ErrorCallback>:
 8002d7a:	4770      	bx	lr

08002d7c <UART_DMAError>:
  UART_HandleTypeDef* huart = ( UART_HandleTypeDef* )((DMA_HandleTypeDef* )hdma)->Parent;
 8002d7c:	6a41      	ldr	r1, [r0, #36]	; 0x24
{
 8002d7e:	b508      	push	{r3, lr}
  dmarequest = HAL_IS_BIT_SET(huart->Instance->CR3, USART_CR3_DMAT);
 8002d80:	680b      	ldr	r3, [r1, #0]
 8002d82:	695a      	ldr	r2, [r3, #20]
  if((huart->gState == HAL_UART_STATE_BUSY_TX) && dmarequest)
 8002d84:	f891 0039 	ldrb.w	r0, [r1, #57]	; 0x39
 8002d88:	2821      	cmp	r0, #33	; 0x21
 8002d8a:	d10a      	bne.n	8002da2 <UART_DMAError+0x26>
 8002d8c:	0612      	lsls	r2, r2, #24
 8002d8e:	d508      	bpl.n	8002da2 <UART_DMAError+0x26>
    huart->TxXferCount = 0U;
 8002d90:	2200      	movs	r2, #0
 8002d92:	84ca      	strh	r2, [r1, #38]	; 0x26
  CLEAR_BIT(huart->Instance->CR1, (USART_CR1_TXEIE | USART_CR1_TCIE));
 8002d94:	68da      	ldr	r2, [r3, #12]
 8002d96:	f022 02c0 	bic.w	r2, r2, #192	; 0xc0
 8002d9a:	60da      	str	r2, [r3, #12]
  huart->gState = HAL_UART_STATE_READY;
 8002d9c:	2220      	movs	r2, #32
 8002d9e:	f881 2039 	strb.w	r2, [r1, #57]	; 0x39
  dmarequest = HAL_IS_BIT_SET(huart->Instance->CR3, USART_CR3_DMAR); 
 8002da2:	695b      	ldr	r3, [r3, #20]
  if((huart->RxState == HAL_UART_STATE_BUSY_RX) && dmarequest)
 8002da4:	f891 203a 	ldrb.w	r2, [r1, #58]	; 0x3a
 8002da8:	2a22      	cmp	r2, #34	; 0x22
 8002daa:	d106      	bne.n	8002dba <UART_DMAError+0x3e>
 8002dac:	065b      	lsls	r3, r3, #25
 8002dae:	d504      	bpl.n	8002dba <UART_DMAError+0x3e>
    huart->RxXferCount = 0U;
 8002db0:	2300      	movs	r3, #0
    UART_EndRxTransfer(huart);
 8002db2:	4608      	mov	r0, r1
    huart->RxXferCount = 0U;
 8002db4:	85cb      	strh	r3, [r1, #46]	; 0x2e
    UART_EndRxTransfer(huart);
 8002db6:	f7ff fd5b 	bl	8002870 <UART_EndRxTransfer>
  huart->ErrorCode |= HAL_UART_ERROR_DMA;
 8002dba:	6bcb      	ldr	r3, [r1, #60]	; 0x3c
  HAL_UART_ErrorCallback(huart);
 8002dbc:	4608      	mov	r0, r1
  huart->ErrorCode |= HAL_UART_ERROR_DMA;
 8002dbe:	f043 0310 	orr.w	r3, r3, #16
 8002dc2:	63cb      	str	r3, [r1, #60]	; 0x3c
  HAL_UART_ErrorCallback(huart);
 8002dc4:	f7ff ffd9 	bl	8002d7a <HAL_UART_ErrorCallback>
 8002dc8:	bd08      	pop	{r3, pc}
	...

08002dcc <HAL_UART_IRQHandler>:
   uint32_t isrflags   = READ_REG(huart->Instance->SR);
 8002dcc:	6803      	ldr	r3, [r0, #0]
{
 8002dce:	b570      	push	{r4, r5, r6, lr}
   uint32_t isrflags   = READ_REG(huart->Instance->SR);
 8002dd0:	681a      	ldr	r2, [r3, #0]
{
 8002dd2:	4604      	mov	r4, r0
  if(errorflags == RESET)
 8002dd4:	0716      	lsls	r6, r2, #28
   uint32_t cr1its     = READ_REG(huart->Instance->CR1);
 8002dd6:	68d9      	ldr	r1, [r3, #12]
   uint32_t cr3its     = READ_REG(huart->Instance->CR3);
 8002dd8:	695d      	ldr	r5, [r3, #20]
  if(errorflags == RESET)
 8002dda:	d107      	bne.n	8002dec <HAL_UART_IRQHandler+0x20>
    if(((isrflags & USART_SR_RXNE) != RESET) && ((cr1its & USART_CR1_RXNEIE) != RESET))
 8002ddc:	0696      	lsls	r6, r2, #26
 8002dde:	d55a      	bpl.n	8002e96 <HAL_UART_IRQHandler+0xca>
 8002de0:	068d      	lsls	r5, r1, #26
 8002de2:	d558      	bpl.n	8002e96 <HAL_UART_IRQHandler+0xca>
}
 8002de4:	e8bd 4070 	ldmia.w	sp!, {r4, r5, r6, lr}
      UART_Receive_IT(huart);
 8002de8:	f7ff bf83 	b.w	8002cf2 <UART_Receive_IT>
  if((errorflags != RESET) && (((cr3its & USART_CR3_EIE) != RESET) || ((cr1its & (USART_CR1_RXNEIE | USART_CR1_PEIE)) != RESET)))
 8002dec:	f015 0501 	ands.w	r5, r5, #1
 8002df0:	d102      	bne.n	8002df8 <HAL_UART_IRQHandler+0x2c>
 8002df2:	f411 7f90 	tst.w	r1, #288	; 0x120
 8002df6:	d04e      	beq.n	8002e96 <HAL_UART_IRQHandler+0xca>
    if(((isrflags & USART_SR_PE) != RESET) && ((cr1its & USART_CR1_PEIE) != RESET))
 8002df8:	07d3      	lsls	r3, r2, #31
 8002dfa:	d505      	bpl.n	8002e08 <HAL_UART_IRQHandler+0x3c>
 8002dfc:	05ce      	lsls	r6, r1, #23
      huart->ErrorCode |= HAL_UART_ERROR_PE;
 8002dfe:	bf42      	ittt	mi
 8002e00:	6be3      	ldrmi	r3, [r4, #60]	; 0x3c
 8002e02:	f043 0301 	orrmi.w	r3, r3, #1
 8002e06:	63e3      	strmi	r3, [r4, #60]	; 0x3c
    if(((isrflags & USART_SR_NE) != RESET) && ((cr3its & USART_CR3_EIE) != RESET))
 8002e08:	0750      	lsls	r0, r2, #29
 8002e0a:	d504      	bpl.n	8002e16 <HAL_UART_IRQHandler+0x4a>
 8002e0c:	b11d      	cbz	r5, 8002e16 <HAL_UART_IRQHandler+0x4a>
      huart->ErrorCode |= HAL_UART_ERROR_NE;
 8002e0e:	6be3      	ldr	r3, [r4, #60]	; 0x3c
 8002e10:	f043 0302 	orr.w	r3, r3, #2
 8002e14:	63e3      	str	r3, [r4, #60]	; 0x3c
    if(((isrflags & USART_SR_FE) != RESET) && ((cr3its & USART_CR3_EIE) != RESET))
 8002e16:	0793      	lsls	r3, r2, #30
 8002e18:	d504      	bpl.n	8002e24 <HAL_UART_IRQHandler+0x58>
 8002e1a:	b11d      	cbz	r5, 8002e24 <HAL_UART_IRQHandler+0x58>
      huart->ErrorCode |= HAL_UART_ERROR_FE;
 8002e1c:	6be3      	ldr	r3, [r4, #60]	; 0x3c
 8002e1e:	f043 0304 	orr.w	r3, r3, #4
 8002e22:	63e3      	str	r3, [r4, #60]	; 0x3c
    if(((isrflags & USART_SR_ORE) != RESET) && ((cr3its & USART_CR3_EIE) != RESET))
 8002e24:	0716      	lsls	r6, r2, #28
 8002e26:	d504      	bpl.n	8002e32 <HAL_UART_IRQHandler+0x66>
 8002e28:	b11d      	cbz	r5, 8002e32 <HAL_UART_IRQHandler+0x66>
      huart->ErrorCode |= HAL_UART_ERROR_ORE;
 8002e2a:	6be3      	ldr	r3, [r4, #60]	; 0x3c
 8002e2c:	f043 0308 	orr.w	r3, r3, #8
 8002e30:	63e3      	str	r3, [r4, #60]	; 0x3c
    if(huart->ErrorCode != HAL_UART_ERROR_NONE)
 8002e32:	6be3      	ldr	r3, [r4, #60]	; 0x3c
 8002e34:	2b00      	cmp	r3, #0
 8002e36:	d066      	beq.n	8002f06 <HAL_UART_IRQHandler+0x13a>
      if(((isrflags & USART_SR_RXNE) != RESET) && ((cr1its & USART_CR1_RXNEIE) != RESET))
 8002e38:	0695      	lsls	r5, r2, #26
 8002e3a:	d504      	bpl.n	8002e46 <HAL_UART_IRQHandler+0x7a>
 8002e3c:	0688      	lsls	r0, r1, #26
 8002e3e:	d502      	bpl.n	8002e46 <HAL_UART_IRQHandler+0x7a>
        UART_Receive_IT(huart);
 8002e40:	4620      	mov	r0, r4
 8002e42:	f7ff ff56 	bl	8002cf2 <UART_Receive_IT>
      dmarequest = HAL_IS_BIT_SET(huart->Instance->CR3, USART_CR3_DMAR);
 8002e46:	6823      	ldr	r3, [r4, #0]
        UART_EndRxTransfer(huart);
 8002e48:	4620      	mov	r0, r4
      dmarequest = HAL_IS_BIT_SET(huart->Instance->CR3, USART_CR3_DMAR);
 8002e4a:	695d      	ldr	r5, [r3, #20]
      if(((huart->ErrorCode & HAL_UART_ERROR_ORE) != RESET) || dmarequest)
 8002e4c:	6be2      	ldr	r2, [r4, #60]	; 0x3c
 8002e4e:	0711      	lsls	r1, r2, #28
 8002e50:	d402      	bmi.n	8002e58 <HAL_UART_IRQHandler+0x8c>
 8002e52:	f015 0540 	ands.w	r5, r5, #64	; 0x40
 8002e56:	d01a      	beq.n	8002e8e <HAL_UART_IRQHandler+0xc2>
        UART_EndRxTransfer(huart);
 8002e58:	f7ff fd0a 	bl	8002870 <UART_EndRxTransfer>
        if(HAL_IS_BIT_SET(huart->Instance->CR3, USART_CR3_DMAR))
 8002e5c:	6823      	ldr	r3, [r4, #0]
 8002e5e:	695a      	ldr	r2, [r3, #20]
 8002e60:	0652      	lsls	r2, r2, #25
 8002e62:	d510      	bpl.n	8002e86 <HAL_UART_IRQHandler+0xba>
          CLEAR_BIT(huart->Instance->CR3, USART_CR3_DMAR);
 8002e64:	695a      	ldr	r2, [r3, #20]
          if(huart->hdmarx != NULL)
 8002e66:	6b60      	ldr	r0, [r4, #52]	; 0x34
          CLEAR_BIT(huart->Instance->CR3, USART_CR3_DMAR);
 8002e68:	f022 0240 	bic.w	r2, r2, #64	; 0x40
 8002e6c:	615a      	str	r2, [r3, #20]
          if(huart->hdmarx != NULL)
 8002e6e:	b150      	cbz	r0, 8002e86 <HAL_UART_IRQHandler+0xba>
            huart->hdmarx->XferAbortCallback = UART_DMAAbortOnError;
 8002e70:	4b25      	ldr	r3, [pc, #148]	; (8002f08 <HAL_UART_IRQHandler+0x13c>)
 8002e72:	6343      	str	r3, [r0, #52]	; 0x34
            if(HAL_DMA_Abort_IT(huart->hdmarx) != HAL_OK)
 8002e74:	f7fe fba8 	bl	80015c8 <HAL_DMA_Abort_IT>
 8002e78:	2800      	cmp	r0, #0
 8002e7a:	d044      	beq.n	8002f06 <HAL_UART_IRQHandler+0x13a>
              huart->hdmarx->XferAbortCallback(huart->hdmarx);
 8002e7c:	6b60      	ldr	r0, [r4, #52]	; 0x34
}
 8002e7e:	e8bd 4070 	ldmia.w	sp!, {r4, r5, r6, lr}
              huart->hdmarx->XferAbortCallback(huart->hdmarx);
 8002e82:	6b43      	ldr	r3, [r0, #52]	; 0x34
 8002e84:	4718      	bx	r3
            HAL_UART_ErrorCallback(huart);
 8002e86:	4620      	mov	r0, r4
 8002e88:	f7ff ff77 	bl	8002d7a <HAL_UART_ErrorCallback>
 8002e8c:	bd70      	pop	{r4, r5, r6, pc}
        HAL_UART_ErrorCallback(huart);
 8002e8e:	f7ff ff74 	bl	8002d7a <HAL_UART_ErrorCallback>
        huart->ErrorCode = HAL_UART_ERROR_NONE;
 8002e92:	63e5      	str	r5, [r4, #60]	; 0x3c
 8002e94:	bd70      	pop	{r4, r5, r6, pc}
  if(((isrflags & USART_SR_TXE) != RESET) && ((cr1its & USART_CR1_TXEIE) != RESET))
 8002e96:	0616      	lsls	r6, r2, #24
 8002e98:	d527      	bpl.n	8002eea <HAL_UART_IRQHandler+0x11e>
 8002e9a:	060d      	lsls	r5, r1, #24
 8002e9c:	d525      	bpl.n	8002eea <HAL_UART_IRQHandler+0x11e>
  if(huart->gState == HAL_UART_STATE_BUSY_TX)
 8002e9e:	f894 2039 	ldrb.w	r2, [r4, #57]	; 0x39
 8002ea2:	2a21      	cmp	r2, #33	; 0x21
 8002ea4:	d12f      	bne.n	8002f06 <HAL_UART_IRQHandler+0x13a>
    if(huart->Init.WordLength == UART_WORDLENGTH_9B)
 8002ea6:	68a2      	ldr	r2, [r4, #8]
 8002ea8:	f5b2 5f80 	cmp.w	r2, #4096	; 0x1000
 8002eac:	6a22      	ldr	r2, [r4, #32]
 8002eae:	d117      	bne.n	8002ee0 <HAL_UART_IRQHandler+0x114>
      huart->Instance->DR = (uint16_t)(*tmp & (uint16_t)0x01FF);
 8002eb0:	8811      	ldrh	r1, [r2, #0]
 8002eb2:	f3c1 0108 	ubfx	r1, r1, #0, #9
 8002eb6:	6059      	str	r1, [r3, #4]
      if(huart->Init.Parity == UART_PARITY_NONE)
 8002eb8:	6921      	ldr	r1, [r4, #16]
 8002eba:	b979      	cbnz	r1, 8002edc <HAL_UART_IRQHandler+0x110>
        huart->pTxBuffPtr += 2U;
 8002ebc:	3202      	adds	r2, #2
        huart->pTxBuffPtr += 1U;
 8002ebe:	6222      	str	r2, [r4, #32]
    if(--huart->TxXferCount == 0U)
 8002ec0:	8ce2      	ldrh	r2, [r4, #38]	; 0x26
 8002ec2:	3a01      	subs	r2, #1
 8002ec4:	b292      	uxth	r2, r2
 8002ec6:	84e2      	strh	r2, [r4, #38]	; 0x26
 8002ec8:	b9ea      	cbnz	r2, 8002f06 <HAL_UART_IRQHandler+0x13a>
      __HAL_UART_DISABLE_IT(huart, UART_IT_TXE);
 8002eca:	68da      	ldr	r2, [r3, #12]
 8002ecc:	f022 0280 	bic.w	r2, r2, #128	; 0x80
 8002ed0:	60da      	str	r2, [r3, #12]
      __HAL_UART_ENABLE_IT(huart, UART_IT_TC);
 8002ed2:	68da      	ldr	r2, [r3, #12]
 8002ed4:	f042 0240 	orr.w	r2, r2, #64	; 0x40
 8002ed8:	60da      	str	r2, [r3, #12]
 8002eda:	bd70      	pop	{r4, r5, r6, pc}
        huart->pTxBuffPtr += 1U;
 8002edc:	3201      	adds	r2, #1
 8002ede:	e7ee      	b.n	8002ebe <HAL_UART_IRQHandler+0xf2>
      huart->Instance->DR = (uint8_t)(*huart->pTxBuffPtr++ & (uint8_t)0x00FF);
 8002ee0:	1c51      	adds	r1, r2, #1
 8002ee2:	6221      	str	r1, [r4, #32]
 8002ee4:	7812      	ldrb	r2, [r2, #0]
 8002ee6:	605a      	str	r2, [r3, #4]
 8002ee8:	e7ea      	b.n	8002ec0 <HAL_UART_IRQHandler+0xf4>
  if(((isrflags & USART_SR_TC) != RESET) && ((cr1its & USART_CR1_TCIE) != RESET))
 8002eea:	0650      	lsls	r0, r2, #25
 8002eec:	d50b      	bpl.n	8002f06 <HAL_UART_IRQHandler+0x13a>
 8002eee:	064a      	lsls	r2, r1, #25
 8002ef0:	d509      	bpl.n	8002f06 <HAL_UART_IRQHandler+0x13a>
  __HAL_UART_DISABLE_IT(huart, UART_IT_TC);
 8002ef2:	68da      	ldr	r2, [r3, #12]
  HAL_UART_TxCpltCallback(huart);
 8002ef4:	4620      	mov	r0, r4
  __HAL_UART_DISABLE_IT(huart, UART_IT_TC);
 8002ef6:	f022 0240 	bic.w	r2, r2, #64	; 0x40
 8002efa:	60da      	str	r2, [r3, #12]
  huart->gState = HAL_UART_STATE_READY;
 8002efc:	2320      	movs	r3, #32
 8002efe:	f884 3039 	strb.w	r3, [r4, #57]	; 0x39
  HAL_UART_TxCpltCallback(huart);
 8002f02:	f7ff febd 	bl	8002c80 <HAL_UART_TxCpltCallback>
 8002f06:	bd70      	pop	{r4, r5, r6, pc}
 8002f08:	08002f0d 	.word	0x08002f0d

08002f0c <UART_DMAAbortOnError>:
{
 8002f0c:	b508      	push	{r3, lr}
  huart->RxXferCount = 0x00U;
 8002f0e:	2300      	movs	r3, #0
  UART_HandleTypeDef* huart = ( UART_HandleTypeDef* )((DMA_HandleTypeDef* )hdma)->Parent;
 8002f10:	6a40      	ldr	r0, [r0, #36]	; 0x24
  huart->RxXferCount = 0x00U;
 8002f12:	85c3      	strh	r3, [r0, #46]	; 0x2e
  huart->TxXferCount = 0x00U;
 8002f14:	84c3      	strh	r3, [r0, #38]	; 0x26
  HAL_UART_ErrorCallback(huart);
 8002f16:	f7ff ff30 	bl	8002d7a <HAL_UART_ErrorCallback>
 8002f1a:	bd08      	pop	{r3, pc}

08002f1c <initOT>:
		ot.readingResponse = false;

	}
}
void initOT(void) {
	ot.busy = false;
 8002f1c:	2300      	movs	r3, #0
 8002f1e:	4a06      	ldr	r2, [pc, #24]	; (8002f38 <initOT+0x1c>)
 8002f20:	f882 3069 	strb.w	r3, [r2, #105]	; 0x69
	ot.complete = false;
 8002f24:	f882 306a 	strb.w	r3, [r2, #106]	; 0x6a
	ot.frameSendedAndStartWaitingACK = false;
 8002f28:	f882 306b 	strb.w	r3, [r2, #107]	; 0x6b
	ot.readingResponse = false;
 8002f2c:	f882 306c 	strb.w	r3, [r2, #108]	; 0x6c
	OTCommon.index = 0;
 8002f30:	4a02      	ldr	r2, [pc, #8]	; (8002f3c <initOT+0x20>)
 8002f32:	6053      	str	r3, [r2, #4]
	OTCommon.busy = false;
 8002f34:	7213      	strb	r3, [r2, #8]
 8002f36:	4770      	bx	lr
 8002f38:	20000da0 	.word	0x20000da0
 8002f3c:	200001a8 	.word	0x200001a8

08002f40 <setIdleState>:
}
void setIdleState(void) {
	HAL_GPIO_WritePin(OT_RXO_GPIO_Port, OT_RXO_Pin, GPIO_PIN_SET);
 8002f40:	2201      	movs	r2, #1
 8002f42:	f44f 7180 	mov.w	r1, #256	; 0x100
 8002f46:	4801      	ldr	r0, [pc, #4]	; (8002f4c <setIdleState+0xc>)
 8002f48:	f7fe bcfa 	b.w	8001940 <HAL_GPIO_WritePin>
 8002f4c:	40010800 	.word	0x40010800

08002f50 <setActiveState>:
}
void setActiveState(void) {
	HAL_GPIO_WritePin(OT_RXO_GPIO_Port, OT_RXO_Pin, GPIO_PIN_RESET);
 8002f50:	2200      	movs	r2, #0
 8002f52:	f44f 7180 	mov.w	r1, #256	; 0x100
 8002f56:	4801      	ldr	r0, [pc, #4]	; (8002f5c <setActiveState+0xc>)
 8002f58:	f7fe bcf2 	b.w	8001940 <HAL_GPIO_WritePin>
 8002f5c:	40010800 	.word	0x40010800

08002f60 <activateBoiler>:
}
void activateBoiler(void) {
 8002f60:	b508      	push	{r3, lr}
	setIdleState();
 8002f62:	f7ff ffed 	bl	8002f40 <setIdleState>
	HAL_Delay(1000);
}
 8002f66:	e8bd 4008 	ldmia.w	sp!, {r3, lr}
	HAL_Delay(1000);
 8002f6a:	f44f 707a 	mov.w	r0, #1000	; 0x3e8
 8002f6e:	f7fd bfdf 	b.w	8000f30 <HAL_Delay>
	...

08002f74 <startWaiting>:

	return readResponse();
}
volatile bool rised = false;
volatile uint32_t risedCount;
void startWaiting() {
 8002f74:	b538      	push	{r3, r4, r5, lr}
	rised = false;
 8002f76:	2500      	movs	r5, #0
 8002f78:	4b0c      	ldr	r3, [pc, #48]	; (8002fac <startWaiting+0x38>)
	TIM2->PSC = 64000;
 8002f7a:	f04f 4180 	mov.w	r1, #1073741824	; 0x40000000
	rised = false;
 8002f7e:	701d      	strb	r5, [r3, #0]
	TIM2->PSC = 64000;
 8002f80:	f44f 427a 	mov.w	r2, #64000	; 0xfa00
	TIM2->ARR = 900;
 8002f84:	f44f 7361 	mov.w	r3, #900	; 0x384
	htim2.Init.Prescaler = 64000;
 8002f88:	4c09      	ldr	r4, [pc, #36]	; (8002fb0 <startWaiting+0x3c>)
	TIM2->PSC = 64000;
 8002f8a:	628a      	str	r2, [r1, #40]	; 0x28
	htim2.Init.Period = 900;
	HAL_TIM_Base_Init(&htim2);
 8002f8c:	4620      	mov	r0, r4
	TIM2->ARR = 900;
 8002f8e:	62cb      	str	r3, [r1, #44]	; 0x2c
	htim2.Init.Prescaler = 64000;
 8002f90:	6062      	str	r2, [r4, #4]
	htim2.Init.Period = 900;
 8002f92:	60e3      	str	r3, [r4, #12]
	HAL_TIM_Base_Init(&htim2);
 8002f94:	f7ff faf4 	bl	8002580 <HAL_TIM_Base_Init>
	HAL_TIM_IC_Init(&htim2);
 8002f98:	4620      	mov	r0, r4
 8002f9a:	f7ff fb0b 	bl	80025b4 <HAL_TIM_IC_Init>
	HAL_TIM_IC_Start_IT(&htim2, TIM_CHANNEL_1);
 8002f9e:	4629      	mov	r1, r5
 8002fa0:	4620      	mov	r0, r4
}
 8002fa2:	e8bd 4038 	ldmia.w	sp!, {r3, r4, r5, lr}
	HAL_TIM_IC_Start_IT(&htim2, TIM_CHANNEL_1);
 8002fa6:	f7ff bbdd 	b.w	8002764 <HAL_TIM_IC_Start_IT>
 8002faa:	bf00      	nop
 8002fac:	200000d2 	.word	0x200000d2
 8002fb0:	20000d60 	.word	0x20000d60

08002fb4 <checkACK>:
bool checkACK(void) {
	if (TIM2->CNT >= TIM2->ARR) {
 8002fb4:	f04f 4380 	mov.w	r3, #1073741824	; 0x40000000
 8002fb8:	6a5a      	ldr	r2, [r3, #36]	; 0x24
 8002fba:	6adb      	ldr	r3, [r3, #44]	; 0x2c
bool checkACK(void) {
 8002fbc:	b510      	push	{r4, lr}
	if (TIM2->CNT >= TIM2->ARR) {
 8002fbe:	429a      	cmp	r2, r3
 8002fc0:	d307      	bcc.n	8002fd2 <checkACK+0x1e>
		HAL_TIM_IC_Stop_IT(&htim2, TIM_CHANNEL_1);
 8002fc2:	2100      	movs	r1, #0
 8002fc4:	480e      	ldr	r0, [pc, #56]	; (8003000 <checkACK+0x4c>)
 8002fc6:	f7ff fbf9 	bl	80027bc <HAL_TIM_IC_Stop_IT>
		ot.timeout = true;
 8002fca:	2201      	movs	r2, #1
 8002fcc:	4b0d      	ldr	r3, [pc, #52]	; (8003004 <checkACK+0x50>)
 8002fce:	f883 2068 	strb.w	r2, [r3, #104]	; 0x68
	}
	if (rised) {
 8002fd2:	4c0d      	ldr	r4, [pc, #52]	; (8003008 <checkACK+0x54>)
 8002fd4:	7822      	ldrb	r2, [r4, #0]
 8002fd6:	b132      	cbz	r2, 8002fe6 <checkACK+0x32>
		ot.timeout = false;
 8002fd8:	2100      	movs	r1, #0
 8002fda:	4b0a      	ldr	r3, [pc, #40]	; (8003004 <checkACK+0x50>)
		HAL_TIM_IC_Stop_IT(&htim2, TIM_CHANNEL_1);
 8002fdc:	4808      	ldr	r0, [pc, #32]	; (8003000 <checkACK+0x4c>)
		ot.timeout = false;
 8002fde:	f883 1068 	strb.w	r1, [r3, #104]	; 0x68
		HAL_TIM_IC_Stop_IT(&htim2, TIM_CHANNEL_1);
 8002fe2:	f7ff fbeb 	bl	80027bc <HAL_TIM_IC_Stop_IT>
	}
	return rised || TIM2->CNT >= TIM2->ARR;
 8002fe6:	7823      	ldrb	r3, [r4, #0]
 8002fe8:	f003 00ff 	and.w	r0, r3, #255	; 0xff
 8002fec:	b93b      	cbnz	r3, 8002ffe <checkACK+0x4a>
 8002fee:	f04f 4380 	mov.w	r3, #1073741824	; 0x40000000
 8002ff2:	6a58      	ldr	r0, [r3, #36]	; 0x24
 8002ff4:	6adb      	ldr	r3, [r3, #44]	; 0x2c
 8002ff6:	4298      	cmp	r0, r3
 8002ff8:	bf34      	ite	cc
 8002ffa:	2000      	movcc	r0, #0
 8002ffc:	2001      	movcs	r0, #1
}
 8002ffe:	bd10      	pop	{r4, pc}
 8003000:	20000d60 	.word	0x20000d60
 8003004:	20000da0 	.word	0x20000da0
 8003008:	200000d2 	.word	0x200000d2

0800300c <startReadResponse>:
volatile uint32_t ttime[64];
volatile bool rf[64];
volatile swIndex = 0;
//uint32_t ddd=0;

void startReadResponse(void) {
 800300c:	b538      	push	{r3, r4, r5, lr}
	ot.rx_ext.raw = 0;
 800300e:	2500      	movs	r5, #0
 8003010:	4b0d      	ldr	r3, [pc, #52]	; (8003048 <startReadResponse+0x3c>)
	swIndex = 0;
	TIM2->PSC = 64;
 8003012:	2140      	movs	r1, #64	; 0x40
	ot.rx_ext.raw = 0;
 8003014:	60dd      	str	r5, [r3, #12]
	swIndex = 0;
 8003016:	4b0d      	ldr	r3, [pc, #52]	; (800304c <startReadResponse+0x40>)
	TIM2->ARR = 40000;
 8003018:	f649 4240 	movw	r2, #40000	; 0x9c40
	swIndex = 0;
 800301c:	601d      	str	r5, [r3, #0]
	TIM2->PSC = 64;
 800301e:	f04f 4380 	mov.w	r3, #1073741824	; 0x40000000
	TIM2->CNT = 0;
	htim2.Init.Prescaler = 64;
 8003022:	4c0b      	ldr	r4, [pc, #44]	; (8003050 <startReadResponse+0x44>)
	TIM2->PSC = 64;
 8003024:	6299      	str	r1, [r3, #40]	; 0x28
	htim2.Init.Period = 40000;
	HAL_TIM_IC_Init(&htim2);
 8003026:	4620      	mov	r0, r4
	TIM2->ARR = 40000;
 8003028:	62da      	str	r2, [r3, #44]	; 0x2c
	TIM2->CNT = 0;
 800302a:	625d      	str	r5, [r3, #36]	; 0x24
	htim2.Init.Prescaler = 64;
 800302c:	6061      	str	r1, [r4, #4]
	htim2.Init.Period = 40000;
 800302e:	60e2      	str	r2, [r4, #12]
	HAL_TIM_IC_Init(&htim2);
 8003030:	f7ff fac0 	bl	80025b4 <HAL_TIM_IC_Init>
	HAL_TIM_IC_Start_IT(&htim2, TIM_CHANNEL_1);
 8003034:	4629      	mov	r1, r5
 8003036:	4620      	mov	r0, r4
 8003038:	f7ff fb94 	bl	8002764 <HAL_TIM_IC_Start_IT>
	HAL_TIM_IC_Start_IT(&htim2, TIM_CHANNEL_2);
 800303c:	4620      	mov	r0, r4
}
 800303e:	e8bd 4038 	ldmia.w	sp!, {r3, r4, r5, lr}
	HAL_TIM_IC_Start_IT(&htim2, TIM_CHANNEL_2);
 8003042:	2104      	movs	r1, #4
 8003044:	f7ff bb8e 	b.w	8002764 <HAL_TIM_IC_Start_IT>
 8003048:	20000da0 	.word	0x20000da0
 800304c:	200000d8 	.word	0x200000d8
 8003050:	20000d60 	.word	0x20000d60

08003054 <checkTimerOVF>:
bool checkTimerOVF(void) {
	return TIM2->CNT >= TIM2->ARR;
 8003054:	f04f 4380 	mov.w	r3, #1073741824	; 0x40000000
 8003058:	6a58      	ldr	r0, [r3, #36]	; 0x24
 800305a:	6adb      	ldr	r3, [r3, #44]	; 0x2c
}
 800305c:	4298      	cmp	r0, r3
 800305e:	bf34      	ite	cc
 8003060:	2000      	movcc	r0, #0
 8003062:	2001      	movcs	r0, #1
 8003064:	4770      	bx	lr
	...

08003068 <calculateResponse>:
uint32_t calculateResponse(void) {
 8003068:	b5f8      	push	{r3, r4, r5, r6, r7, lr}
	HAL_TIM_IC_Stop_IT(&htim2, TIM_CHANNEL_1);
 800306a:	2100      	movs	r1, #0
 800306c:	4811      	ldr	r0, [pc, #68]	; (80030b4 <calculateResponse+0x4c>)
 800306e:	f7ff fba5 	bl	80027bc <HAL_TIM_IC_Stop_IT>
	HAL_TIM_IC_Stop_IT(&htim2, TIM_CHANNEL_2);
 8003072:	2104      	movs	r1, #4
 8003074:	480f      	ldr	r0, [pc, #60]	; (80030b4 <calculateResponse+0x4c>)
 8003076:	f7ff fba1 	bl	80027bc <HAL_TIM_IC_Stop_IT>
	int cnt = 0;
 800307a:	2400      	movs	r4, #0
	uint32_t response = 0;
	if (!rf[0])
		response |= (1 << 0);
	uint32_t oldt = ttime[0];
	for (int i = 1; i < 64; i++) {
 800307c:	2301      	movs	r3, #1
	if (!rf[0])
 800307e:	490e      	ldr	r1, [pc, #56]	; (80030b8 <calculateResponse+0x50>)
	uint32_t oldt = ttime[0];
 8003080:	4a0e      	ldr	r2, [pc, #56]	; (80030bc <calculateResponse+0x54>)
	if (!rf[0])
 8003082:	7808      	ldrb	r0, [r1, #0]
	uint32_t oldt = ttime[0];
 8003084:	6815      	ldr	r5, [r2, #0]
	uint32_t response = 0;
 8003086:	f080 0001 	eor.w	r0, r0, #1
		if (ttime[i] > oldt + 900) {
 800308a:	f852 7023 	ldr.w	r7, [r2, r3, lsl #2]
 800308e:	f505 7661 	add.w	r6, r5, #900	; 0x384
 8003092:	42b7      	cmp	r7, r6
 8003094:	d909      	bls.n	80030aa <calculateResponse+0x42>
			response = response << 1;
			if (!rf[i])
 8003096:	5ccd      	ldrb	r5, [r1, r3]
			response = response << 1;
 8003098:	0040      	lsls	r0, r0, #1
			if (!rf[i])
 800309a:	b90d      	cbnz	r5, 80030a0 <calculateResponse+0x38>
				response |= 1;
 800309c:	f040 0001 	orr.w	r0, r0, #1
			oldt = ttime[i];
			cnt++;
 80030a0:	3401      	adds	r4, #1
			if (cnt == 31)
 80030a2:	2c1f      	cmp	r4, #31
			oldt = ttime[i];
 80030a4:	f852 5023 	ldr.w	r5, [r2, r3, lsl #2]
			if (cnt == 31)
 80030a8:	d002      	beq.n	80030b0 <calculateResponse+0x48>
	for (int i = 1; i < 64; i++) {
 80030aa:	3301      	adds	r3, #1
 80030ac:	2b40      	cmp	r3, #64	; 0x40
 80030ae:	d1ec      	bne.n	800308a <calculateResponse+0x22>
				break;
		}
	}
	return response;
}
 80030b0:	bdf8      	pop	{r3, r4, r5, r6, r7, pc}
 80030b2:	bf00      	nop
 80030b4:	20000d60 	.word	0x20000d60
 80030b8:	200000ed 	.word	0x200000ed
 80030bc:	20000c04 	.word	0x20000c04

080030c0 <delayMicros>:
	 }
	 }*/
	ot.rx.raw = calculateResponse();	  //response;
	return ot.rx.raw;
}
void delayMicros(uint32_t t) {
 80030c0:	b510      	push	{r4, lr}
	TIM4->ARR = t * 2;
 80030c2:	4c07      	ldr	r4, [pc, #28]	; (80030e0 <delayMicros+0x20>)
 80030c4:	0040      	lsls	r0, r0, #1
 80030c6:	62e0      	str	r0, [r4, #44]	; 0x2c
	HAL_TIM_Base_Start(&htim4);
 80030c8:	4806      	ldr	r0, [pc, #24]	; (80030e4 <delayMicros+0x24>)
 80030ca:	f7ff f87a 	bl	80021c2 <HAL_TIM_Base_Start>
	while (TIM4->CNT < TIM4->ARR) {
 80030ce:	6a62      	ldr	r2, [r4, #36]	; 0x24
 80030d0:	6ae3      	ldr	r3, [r4, #44]	; 0x2c
 80030d2:	429a      	cmp	r2, r3
 80030d4:	d3fb      	bcc.n	80030ce <delayMicros+0xe>

	}
	HAL_TIM_Base_Stop(&htim4);
 80030d6:	4803      	ldr	r0, [pc, #12]	; (80030e4 <delayMicros+0x24>)
}
 80030d8:	e8bd 4010 	ldmia.w	sp!, {r4, lr}
	HAL_TIM_Base_Stop(&htim4);
 80030dc:	f7ff b87e 	b.w	80021dc <HAL_TIM_Base_Stop>
 80030e0:	40000800 	.word	0x40000800
 80030e4:	200001b4 	.word	0x200001b4

080030e8 <sendBit>:
void sendBit(bool high) {
 80030e8:	b510      	push	{r4, lr}
	if (high)
 80030ea:	4604      	mov	r4, r0
 80030ec:	b170      	cbz	r0, 800310c <sendBit+0x24>
		setActiveState();
 80030ee:	f7ff ff2f 	bl	8002f50 <setActiveState>
	delayMicros(500);
 80030f2:	f44f 70fa 	mov.w	r0, #500	; 0x1f4
 80030f6:	f7ff ffe3 	bl	80030c0 <delayMicros>
	if (high)
 80030fa:	b154      	cbz	r4, 8003112 <sendBit+0x2a>
		setIdleState();
 80030fc:	f7ff ff20 	bl	8002f40 <setIdleState>
}
 8003100:	e8bd 4010 	ldmia.w	sp!, {r4, lr}
	delayMicros(500);
 8003104:	f44f 70fa 	mov.w	r0, #500	; 0x1f4
 8003108:	f7ff bfda 	b.w	80030c0 <delayMicros>
		setIdleState();
 800310c:	f7ff ff18 	bl	8002f40 <setIdleState>
 8003110:	e7ef      	b.n	80030f2 <sendBit+0xa>
		setActiveState();
 8003112:	f7ff ff1d 	bl	8002f50 <setActiveState>
 8003116:	e7f3      	b.n	8003100 <sendBit+0x18>

08003118 <sendFrame>:
void sendFrame(uint32_t request) {
 8003118:	b538      	push	{r3, r4, r5, lr}
 800311a:	4605      	mov	r5, r0
	sendBit(true); //start bit
 800311c:	2001      	movs	r0, #1
 800311e:	f7ff ffe3 	bl	80030e8 <sendBit>
	for (int i = 31; i >= 0; i--) {
 8003122:	241f      	movs	r4, #31
		sendBit((request >> i & 1)); //bitRead(request, i));
 8003124:	fa25 f004 	lsr.w	r0, r5, r4
 8003128:	f000 0001 	and.w	r0, r0, #1
 800312c:	f7ff ffdc 	bl	80030e8 <sendBit>
	for (int i = 31; i >= 0; i--) {
 8003130:	f114 34ff 	adds.w	r4, r4, #4294967295
 8003134:	d2f6      	bcs.n	8003124 <sendFrame+0xc>
	sendBit(true); //stop bit
 8003136:	2001      	movs	r0, #1
 8003138:	f7ff ffd6 	bl	80030e8 <sendBit>
}
 800313c:	e8bd 4038 	ldmia.w	sp!, {r3, r4, r5, lr}
	setIdleState();
 8003140:	f7ff befe 	b.w	8002f40 <setIdleState>

08003144 <checkParity>:

uint32_t checkParity(uint32_t val) {
	val = val & 0x7FFFFFFF;
 8003144:	f020 4000 	bic.w	r0, r0, #2147483648	; 0x80000000
	val ^= val >> 16;
 8003148:	ea80 4010 	eor.w	r0, r0, r0, lsr #16
	val ^= val >> 8;
 800314c:	ea80 2010 	eor.w	r0, r0, r0, lsr #8
	val ^= val >> 4;
 8003150:	ea80 1010 	eor.w	r0, r0, r0, lsr #4
	val ^= val >> 2;
 8003154:	ea80 0090 	eor.w	r0, r0, r0, lsr #2
	val ^= val >> 1;
 8003158:	ea80 0050 	eor.w	r0, r0, r0, lsr #1
	return (val) & 1;
}
 800315c:	f000 0001 	and.w	r0, r0, #1
 8003160:	4770      	bx	lr
	...

08003164 <OTRoute>:
void OTRoute(void) {
 8003164:	b570      	push	{r4, r5, r6, lr}
	if (!ot.busy) {
 8003166:	4c37      	ldr	r4, [pc, #220]	; (8003244 <OTRoute+0xe0>)
 8003168:	f894 3069 	ldrb.w	r3, [r4, #105]	; 0x69
 800316c:	b973      	cbnz	r3, 800318c <OTRoute+0x28>
		ot.busy = true;
 800316e:	2501      	movs	r5, #1
		ot.tx.raw = requests[OTCommon.index];
 8003170:	4b35      	ldr	r3, [pc, #212]	; (8003248 <OTRoute+0xe4>)
		ot.busy = true;
 8003172:	f884 5069 	strb.w	r5, [r4, #105]	; 0x69
		ot.tx.raw = requests[OTCommon.index];
 8003176:	685a      	ldr	r2, [r3, #4]
 8003178:	4b34      	ldr	r3, [pc, #208]	; (800324c <OTRoute+0xe8>)
 800317a:	f853 0022 	ldr.w	r0, [r3, r2, lsl #2]
 800317e:	6120      	str	r0, [r4, #16]
		sendFrame(requests[OTCommon.index]);
 8003180:	f7ff ffca 	bl	8003118 <sendFrame>
		startWaiting();
 8003184:	f7ff fef6 	bl	8002f74 <startWaiting>
		ot.frameSendedAndStartWaitingACK = true;
 8003188:	f884 506b 	strb.w	r5, [r4, #107]	; 0x6b
	if (ot.frameSendedAndStartWaitingACK && checkACK()) {
 800318c:	f894 306b 	ldrb.w	r3, [r4, #107]	; 0x6b
 8003190:	2b00      	cmp	r3, #0
 8003192:	d039      	beq.n	8003208 <OTRoute+0xa4>
 8003194:	f7ff ff0e 	bl	8002fb4 <checkACK>
 8003198:	2800      	cmp	r0, #0
 800319a:	d035      	beq.n	8003208 <OTRoute+0xa4>
		ot.frameSendedAndStartWaitingACK = false;
 800319c:	2300      	movs	r3, #0
 800319e:	f884 306b 	strb.w	r3, [r4, #107]	; 0x6b
		if (!ot.timeout) {
 80031a2:	f894 3068 	ldrb.w	r3, [r4, #104]	; 0x68
 80031a6:	bb63      	cbnz	r3, 8003202 <OTRoute+0x9e>
			delayMicros(1000 * 1.25);
 80031a8:	f240 40e2 	movw	r0, #1250	; 0x4e2
 80031ac:	f7ff ff88 	bl	80030c0 <delayMicros>
			startReadResponse();
 80031b0:	f7ff ff2c 	bl	800300c <startReadResponse>
			ot.readingResponse = true;
 80031b4:	2301      	movs	r3, #1
 80031b6:	f884 306c 	strb.w	r3, [r4, #108]	; 0x6c
			while (!checkTimerOVF()) {
 80031ba:	f7ff ff4b 	bl	8003054 <checkTimerOVF>
 80031be:	2800      	cmp	r0, #0
 80031c0:	d0fb      	beq.n	80031ba <OTRoute+0x56>
			ot.rx.raw = calculateResponse();
 80031c2:	f7ff ff51 	bl	8003068 <calculateResponse>
			ot.reg[OTCommon.index] = ot.rx.raw;	//sendRequest( requests[OTCommon.index] );
 80031c6:	4920      	ldr	r1, [pc, #128]	; (8003248 <OTRoute+0xe4>)
			ot.rx.raw = calculateResponse();
 80031c8:	0e03      	lsrs	r3, r0, #24
			ot.reg[OTCommon.index] = ot.rx.raw;	//sendRequest( requests[OTCommon.index] );
 80031ca:	684d      	ldr	r5, [r1, #4]
			ot.rx.raw = calculateResponse();
 80031cc:	60a0      	str	r0, [r4, #8]
			ot.reg[OTCommon.index] = ot.rx.raw;	//sendRequest( requests[OTCommon.index] );
 80031ce:	1dae      	adds	r6, r5, #6
 80031d0:	f844 0026 	str.w	r0, [r4, r6, lsl #2]
			if (checkParity(ot.rx.raw) == ot.rx.frame.PARITY
 80031d4:	f7ff ffb6 	bl	8003144 <checkParity>
 80031d8:	b2db      	uxtb	r3, r3
 80031da:	ebb0 1fd3 	cmp.w	r0, r3, lsr #7
 80031de:	d10a      	bne.n	80031f6 <OTRoute+0x92>
					&& (ot.rx.frame.MSG_TYPE == OT_MSG_TYPE_S_READ_ACK
 80031e0:	f003 0360 	and.w	r3, r3, #96	; 0x60
 80031e4:	2b40      	cmp	r3, #64	; 0x40
 80031e6:	d106      	bne.n	80031f6 <OTRoute+0x92>
				dv.raw = ot.rx.frame.DATA_VALUE;
 80031e8:	4a19      	ldr	r2, [pc, #100]	; (8003250 <OTRoute+0xec>)
 80031ea:	8923      	ldrh	r3, [r4, #8]
 80031ec:	8013      	strh	r3, [r2, #0]
				if (ot.rx.frame.DATA_ID == 0) {
 80031ee:	7aa2      	ldrb	r2, [r4, #10]
 80031f0:	b9a2      	cbnz	r2, 800321c <OTRoute+0xb8>
					OTDR.ID0 = dv.ID0;
 80031f2:	4a18      	ldr	r2, [pc, #96]	; (8003254 <OTRoute+0xf0>)
 80031f4:	8013      	strh	r3, [r2, #0]
			OTCommon.index++;
 80031f6:	3501      	adds	r5, #1
			if (OTCommon.index >= OT_QUEUE_LENGTH)
 80031f8:	2d10      	cmp	r5, #16
				OTCommon.index = 0;
 80031fa:	bfca      	itet	gt
 80031fc:	2300      	movgt	r3, #0
			OTCommon.index++;
 80031fe:	604d      	strle	r5, [r1, #4]
				OTCommon.index = 0;
 8003200:	604b      	strgt	r3, [r1, #4]
		ot.complete = true;
 8003202:	2301      	movs	r3, #1
 8003204:	f884 306a 	strb.w	r3, [r4, #106]	; 0x6a
	if (ot.readingResponse && checkTimerOVF()) {
 8003208:	f894 306c 	ldrb.w	r3, [r4, #108]	; 0x6c
 800320c:	b12b      	cbz	r3, 800321a <OTRoute+0xb6>
 800320e:	f7ff ff21 	bl	8003054 <checkTimerOVF>
 8003212:	b110      	cbz	r0, 800321a <OTRoute+0xb6>
		ot.readingResponse = false;
 8003214:	2300      	movs	r3, #0
 8003216:	f884 306c 	strb.w	r3, [r4, #108]	; 0x6c
 800321a:	bd70      	pop	{r4, r5, r6, pc}
				if (ot.rx.frame.DATA_ID == 3) {
 800321c:	2a03      	cmp	r2, #3
 800321e:	d102      	bne.n	8003226 <OTRoute+0xc2>
					OTDR.ID3 = dv.ID3;
 8003220:	4a0c      	ldr	r2, [pc, #48]	; (8003254 <OTRoute+0xf0>)
 8003222:	8093      	strh	r3, [r2, #4]
 8003224:	e7e7      	b.n	80031f6 <OTRoute+0x92>
				if (ot.rx.frame.DATA_ID == 5) {
 8003226:	2a05      	cmp	r2, #5
 8003228:	d102      	bne.n	8003230 <OTRoute+0xcc>
					OTDR.ID5 = dv.ID5;
 800322a:	4a0a      	ldr	r2, [pc, #40]	; (8003254 <OTRoute+0xf0>)
 800322c:	80d3      	strh	r3, [r2, #6]
 800322e:	e7e2      	b.n	80031f6 <OTRoute+0x92>
				if (ot.rx.frame.DATA_ID == 125)
 8003230:	2a7d      	cmp	r2, #125	; 0x7d
 8003232:	d102      	bne.n	800323a <OTRoute+0xd6>
					OTDR.ID125 = dv.ID125;
 8003234:	4a07      	ldr	r2, [pc, #28]	; (8003254 <OTRoute+0xf0>)
 8003236:	8193      	strh	r3, [r2, #12]
 8003238:	e7dd      	b.n	80031f6 <OTRoute+0x92>
				if (ot.rx.frame.DATA_ID == 127)
 800323a:	2a7f      	cmp	r2, #127	; 0x7f
					OTDR.ID127 = dv.ID127;
 800323c:	bf04      	itt	eq
 800323e:	4a05      	ldreq	r2, [pc, #20]	; (8003254 <OTRoute+0xf0>)
 8003240:	8213      	strheq	r3, [r2, #16]
 8003242:	e7d8      	b.n	80031f6 <OTRoute+0x92>
 8003244:	20000da0 	.word	0x20000da0
 8003248:	200001a8 	.word	0x200001a8
 800324c:	20000008 	.word	0x20000008
 8003250:	200000d0 	.word	0x200000d0
 8003254:	20000e5c 	.word	0x20000e5c

08003258 <OWInit>:
void OWTransmit(void);
void OWReceive(void);

//1 wire
void OWInit(void) {
	temp.TransmitReceive = false;
 8003258:	2200      	movs	r2, #0
	temp.busy = true;
 800325a:	2101      	movs	r1, #1
	temp.TransmitReceive = false;
 800325c:	4b02      	ldr	r3, [pc, #8]	; (8003268 <OWInit+0x10>)
 800325e:	721a      	strb	r2, [r3, #8]
	temp.busy = true;
 8003260:	7259      	strb	r1, [r3, #9]
	temp.transmitInProgress = false;
 8003262:	729a      	strb	r2, [r3, #10]
	temp.receiveInProgress = false;
 8003264:	72da      	strb	r2, [r3, #11]
 8003266:	4770      	bx	lr
 8003268:	200003d8 	.word	0x200003d8

0800326c <OWTick>:
//temp.TransmitReceive = false;
//HAL_Delay(200);
//OWReceive();
}
void OWTick(void) {
	if (!temp.transmitInProgress && !temp.receiveInProgress) {
 800326c:	4b05      	ldr	r3, [pc, #20]	; (8003284 <OWTick+0x18>)
 800326e:	7a9a      	ldrb	r2, [r3, #10]
 8003270:	b932      	cbnz	r2, 8003280 <OWTick+0x14>
 8003272:	7ad9      	ldrb	r1, [r3, #11]
 8003274:	b921      	cbnz	r1, 8003280 <OWTick+0x14>
		temp.TransmitReceive = !temp.TransmitReceive;
 8003276:	7a1a      	ldrb	r2, [r3, #8]
		temp.busy = false;
 8003278:	7259      	strb	r1, [r3, #9]
		temp.TransmitReceive = !temp.TransmitReceive;
 800327a:	f082 0201 	eor.w	r2, r2, #1
 800327e:	721a      	strb	r2, [r3, #8]
 8003280:	4770      	bx	lr
 8003282:	bf00      	nop
 8003284:	200003d8 	.word	0x200003d8

08003288 <OWReset>:
bool OWReset(void) {
	uint8_t tx = 0xf0;
	uint8_t rx = 0;

	huart2.Instance = USART2;
	huart2.Init.BaudRate = 9600;
 8003288:	f44f 5316 	mov.w	r3, #9600	; 0x2580
bool OWReset(void) {
 800328c:	e92d 41f0 	stmdb	sp!, {r4, r5, r6, r7, r8, lr}
	huart2.Instance = USART2;
 8003290:	4c19      	ldr	r4, [pc, #100]	; (80032f8 <OWReset+0x70>)
	huart2.Init.WordLength = UART_WORDLENGTH_8B;
	huart2.Init.StopBits = UART_STOPBITS_1;
	huart2.Init.Parity = UART_PARITY_NONE;
	huart2.Init.Mode = UART_MODE_TX_RX;
 8003292:	270c      	movs	r7, #12
	huart2.Init.BaudRate = 9600;
 8003294:	6063      	str	r3, [r4, #4]
	huart2.Init.WordLength = UART_WORDLENGTH_8B;
 8003296:	2300      	movs	r3, #0
	huart2.Instance = USART2;
 8003298:	f8df 8060 	ldr.w	r8, [pc, #96]	; 80032fc <OWReset+0x74>
	huart2.Init.HwFlowCtl = UART_HWCONTROL_NONE;
	huart2.Init.OverSampling = UART_OVERSAMPLING_16;
	if (HAL_UART_Init(&huart2) != HAL_OK) {
 800329c:	4620      	mov	r0, r4
	huart2.Instance = USART2;
 800329e:	f8c4 8000 	str.w	r8, [r4]
	huart2.Init.WordLength = UART_WORDLENGTH_8B;
 80032a2:	60a3      	str	r3, [r4, #8]
	huart2.Init.StopBits = UART_STOPBITS_1;
 80032a4:	60e3      	str	r3, [r4, #12]
	huart2.Init.Parity = UART_PARITY_NONE;
 80032a6:	6123      	str	r3, [r4, #16]
	huart2.Init.Mode = UART_MODE_TX_RX;
 80032a8:	6167      	str	r7, [r4, #20]
	huart2.Init.HwFlowCtl = UART_HWCONTROL_NONE;
 80032aa:	61a3      	str	r3, [r4, #24]
	huart2.Init.OverSampling = UART_OVERSAMPLING_16;
 80032ac:	61e3      	str	r3, [r4, #28]
	if (HAL_UART_Init(&huart2) != HAL_OK) {
 80032ae:	f7ff fbb3 	bl	8002a18 <HAL_UART_Init>
 80032b2:	4605      	mov	r5, r0
 80032b4:	b100      	cbz	r0, 80032b8 <OWReset+0x30>
 80032b6:	e7fe      	b.n	80032b6 <OWReset+0x2e>
		_Error_Handler(__FILE__, __LINE__);
	}

	huart2.Instance->DR = tx;
 80032b8:	22f0      	movs	r2, #240	; 0xf0
 80032ba:	6823      	ldr	r3, [r4, #0]
	HAL_Delay(10);
 80032bc:	200a      	movs	r0, #10
	huart2.Instance->DR = tx;
 80032be:	605a      	str	r2, [r3, #4]
	HAL_Delay(10);
 80032c0:	f7fd fe36 	bl	8000f30 <HAL_Delay>
	rx = huart2.Instance->DR;
 80032c4:	6823      	ldr	r3, [r4, #0]
	huart2.Init.StopBits = UART_STOPBITS_1;
	huart2.Init.Parity = UART_PARITY_NONE;
	huart2.Init.Mode = UART_MODE_TX_RX;
	huart2.Init.HwFlowCtl = UART_HWCONTROL_NONE;
	huart2.Init.OverSampling = UART_OVERSAMPLING_16;
	if (HAL_UART_Init(&huart2) != HAL_OK) {
 80032c6:	4620      	mov	r0, r4
	rx = huart2.Instance->DR;
 80032c8:	685e      	ldr	r6, [r3, #4]
	huart2.Init.BaudRate = 115200;
 80032ca:	f44f 33e1 	mov.w	r3, #115200	; 0x1c200
	rx = huart2.Instance->DR;
 80032ce:	b2f6      	uxtb	r6, r6
	huart2.Instance = USART2;
 80032d0:	f8c4 8000 	str.w	r8, [r4]
	huart2.Init.BaudRate = 115200;
 80032d4:	6063      	str	r3, [r4, #4]
	huart2.Init.WordLength = UART_WORDLENGTH_8B;
 80032d6:	60a5      	str	r5, [r4, #8]
	huart2.Init.StopBits = UART_STOPBITS_1;
 80032d8:	60e5      	str	r5, [r4, #12]
	huart2.Init.Parity = UART_PARITY_NONE;
 80032da:	6125      	str	r5, [r4, #16]
	huart2.Init.Mode = UART_MODE_TX_RX;
 80032dc:	6167      	str	r7, [r4, #20]
	huart2.Init.HwFlowCtl = UART_HWCONTROL_NONE;
 80032de:	61a5      	str	r5, [r4, #24]
	huart2.Init.OverSampling = UART_OVERSAMPLING_16;
 80032e0:	61e5      	str	r5, [r4, #28]
	if (HAL_UART_Init(&huart2) != HAL_OK) {
 80032e2:	f7ff fb99 	bl	8002a18 <HAL_UART_Init>
 80032e6:	b100      	cbz	r0, 80032ea <OWReset+0x62>
 80032e8:	e7fe      	b.n	80032e8 <OWReset+0x60>
	}
	if (rx == 0xf0)
		return false;

	return true;
}
 80032ea:	f1b6 00f0 	subs.w	r0, r6, #240	; 0xf0
 80032ee:	bf18      	it	ne
 80032f0:	2001      	movne	r0, #1
 80032f2:	e8bd 81f0 	ldmia.w	sp!, {r4, r5, r6, r7, r8, pc}
 80032f6:	bf00      	nop
 80032f8:	20000e10 	.word	0x20000e10
 80032fc:	40004400 	.word	0x40004400

08003300 <OWTransmit>:

void OWTransmit(void) {
	temp.transmitInProgress = true;
 8003300:	2301      	movs	r3, #1
void OWTransmit(void) {
 8003302:	b510      	push	{r4, lr}
	temp.transmitInProgress = true;
 8003304:	4c07      	ldr	r4, [pc, #28]	; (8003324 <OWTransmit+0x24>)
 8003306:	72a3      	strb	r3, [r4, #10]
	//temp.busy = true;
	temp.reset = OWReset();
 8003308:	f7ff ffbe 	bl	8003288 <OWReset>
 800330c:	70a0      	strb	r0, [r4, #2]
	if (temp.reset)
 800330e:	b130      	cbz	r0, 800331e <OWTransmit+0x1e>
		HAL_UART_Transmit(&huart2, &convert_T, 16, 5000);
 8003310:	f241 3388 	movw	r3, #5000	; 0x1388
 8003314:	2210      	movs	r2, #16
 8003316:	4904      	ldr	r1, [pc, #16]	; (8003328 <OWTransmit+0x28>)
 8003318:	4804      	ldr	r0, [pc, #16]	; (800332c <OWTransmit+0x2c>)
 800331a:	f7ff fbab 	bl	8002a74 <HAL_UART_Transmit>
	//temp.TransmitReceive = false;
	temp.transmitInProgress = false;
 800331e:	2300      	movs	r3, #0
 8003320:	72a3      	strb	r3, [r4, #10]
 8003322:	bd10      	pop	{r4, pc}
 8003324:	200003d8 	.word	0x200003d8
 8003328:	0800470d 	.word	0x0800470d
 800332c:	20000e10 	.word	0x20000e10

08003330 <OWReceive>:
}
void OWReceive(void) {
	temp.receiveInProgress = true;
 8003330:	2301      	movs	r3, #1
void OWReceive(void) {
 8003332:	e92d 41f0 	stmdb	sp!, {r4, r5, r6, r7, r8, lr}
	temp.receiveInProgress = true;
 8003336:	4c1d      	ldr	r4, [pc, #116]	; (80033ac <OWReceive+0x7c>)
 8003338:	72e3      	strb	r3, [r4, #11]
	//temp.busy = true;
	uint8_t rx = 0;
	uint8_t i = 0;

	temp.reset = OWReset();
 800333a:	f7ff ffa5 	bl	8003288 <OWReset>
 800333e:	70a0      	strb	r0, [r4, #2]
	if (temp.reset) {
 8003340:	b378      	cbz	r0, 80033a2 <OWReceive+0x72>
		temp.raw = 0;
 8003342:	2300      	movs	r3, #0
		HAL_UART_Transmit(&huart2, &read_scratch, 16, 5000);
 8003344:	2210      	movs	r2, #16
		temp.raw = 0;
 8003346:	8023      	strh	r3, [r4, #0]
		HAL_UART_Transmit(&huart2, &read_scratch, 16, 5000);
 8003348:	4919      	ldr	r1, [pc, #100]	; (80033b0 <OWReceive+0x80>)
 800334a:	f241 3388 	movw	r3, #5000	; 0x1388
 800334e:	4819      	ldr	r0, [pc, #100]	; (80033b4 <OWReceive+0x84>)
 8003350:	f7ff fb90 	bl	8002a74 <HAL_UART_Transmit>
 8003354:	2510      	movs	r5, #16

		for (i = 0; i < 16; i++) {
			huart2.Instance->DR = 0xff;
 8003356:	27ff      	movs	r7, #255	; 0xff
 8003358:	4e16      	ldr	r6, [pc, #88]	; (80033b4 <OWReceive+0x84>)
			HAL_Delay(10);
			rx = huart2.Instance->DR;

			if (rx == 0xff) {
				temp.raw = (temp.raw >> 1) | 0x8000;
 800335a:	f8df 805c 	ldr.w	r8, [pc, #92]	; 80033b8 <OWReceive+0x88>
			huart2.Instance->DR = 0xff;
 800335e:	6833      	ldr	r3, [r6, #0]
			HAL_Delay(10);
 8003360:	200a      	movs	r0, #10
			huart2.Instance->DR = 0xff;
 8003362:	605f      	str	r7, [r3, #4]
			HAL_Delay(10);
 8003364:	f7fd fde4 	bl	8000f30 <HAL_Delay>
			rx = huart2.Instance->DR;
 8003368:	6833      	ldr	r3, [r6, #0]
 800336a:	3d01      	subs	r5, #1
 800336c:	685b      	ldr	r3, [r3, #4]
			if (rx == 0xff) {
 800336e:	b2db      	uxtb	r3, r3
 8003370:	2bff      	cmp	r3, #255	; 0xff
				temp.raw = (temp.raw >> 1) | 0x8000;
 8003372:	8823      	ldrh	r3, [r4, #0]
 8003374:	bf0c      	ite	eq
 8003376:	ea48 0353 	orreq.w	r3, r8, r3, lsr #1
			} else {
				temp.raw = temp.raw >> 1;
 800337a:	085b      	lsrne	r3, r3, #1
		for (i = 0; i < 16; i++) {
 800337c:	f015 05ff 	ands.w	r5, r5, #255	; 0xff
				temp.raw = temp.raw >> 1;
 8003380:	8023      	strh	r3, [r4, #0]
		for (i = 0; i < 16; i++) {
 8003382:	d1ec      	bne.n	800335e <OWReceive+0x2e>
			}
		}
		//HAL_UART_Receive(&huart2,&scratch,16,2000);
		//HAL_UART_*/
		HAL_Delay(1);
 8003384:	2001      	movs	r0, #1
 8003386:	f7fd fdd3 	bl	8000f30 <HAL_Delay>
		temp.out = (temp.out + (int) (temp.raw >> 4)) / 2;
 800338a:	8820      	ldrh	r0, [r4, #0]
 800338c:	0900      	lsrs	r0, r0, #4
 800338e:	f7fd fbe3 	bl	8000b58 <__aeabi_i2f>
 8003392:	6861      	ldr	r1, [r4, #4]
 8003394:	f7fd fb2c 	bl	80009f0 <__addsf3>
 8003398:	f04f 517c 	mov.w	r1, #1056964608	; 0x3f000000
 800339c:	f7fd fc30 	bl	8000c00 <__aeabi_fmul>
 80033a0:	6060      	str	r0, [r4, #4]
	}
	//temp.TransmitReceive = true;
	temp.receiveInProgress = false;
 80033a2:	2300      	movs	r3, #0
 80033a4:	72e3      	strb	r3, [r4, #11]
 80033a6:	e8bd 81f0 	ldmia.w	sp!, {r4, r5, r6, r7, r8, pc}
 80033aa:	bf00      	nop
 80033ac:	200003d8 	.word	0x200003d8
 80033b0:	08004742 	.word	0x08004742
 80033b4:	20000e10 	.word	0x20000e10
 80033b8:	ffff8000 	.word	0xffff8000

080033bc <OWRoute>:
	if (!temp.busy) {
 80033bc:	4b05      	ldr	r3, [pc, #20]	; (80033d4 <OWRoute+0x18>)
 80033be:	7a5a      	ldrb	r2, [r3, #9]
 80033c0:	b93a      	cbnz	r2, 80033d2 <OWRoute+0x16>
		temp.busy = true;
 80033c2:	2201      	movs	r2, #1
 80033c4:	725a      	strb	r2, [r3, #9]
		if (temp.TransmitReceive)
 80033c6:	7a1b      	ldrb	r3, [r3, #8]
 80033c8:	b10b      	cbz	r3, 80033ce <OWRoute+0x12>
			OWTransmit();
 80033ca:	f7ff bf99 	b.w	8003300 <OWTransmit>
			OWReceive();
 80033ce:	f7ff bfaf 	b.w	8003330 <OWReceive>
 80033d2:	4770      	bx	lr
 80033d4:	200003d8 	.word	0x200003d8

080033d8 <initADC>:
void StartAnalogADC1(uint32_t ch);
int GetAnalogADC1(void);
int ReadAnalogADC1(uint32_t ch);

void initADC(void) {
	adcChannel.Channel = ADC_CHANNEL_0; //B
 80033d8:	2200      	movs	r2, #0
	adcChannel.Rank = 1;
 80033da:	2101      	movs	r1, #1
	adcChannel.Channel = ADC_CHANNEL_0; //B
 80033dc:	4b03      	ldr	r3, [pc, #12]	; (80033ec <initADC+0x14>)
	adcChannel.SamplingTime = ADC_SAMPLETIME_1CYCLE_5;

	//ADC1
	//HAL_ADC_MspInit(&hadc1);
	HAL_ADC_Start(&hadc1);
 80033de:	4804      	ldr	r0, [pc, #16]	; (80033f0 <initADC+0x18>)
	adcChannel.Channel = ADC_CHANNEL_0; //B
 80033e0:	601a      	str	r2, [r3, #0]
	adcChannel.Rank = 1;
 80033e2:	6059      	str	r1, [r3, #4]
	adcChannel.SamplingTime = ADC_SAMPLETIME_1CYCLE_5;
 80033e4:	609a      	str	r2, [r3, #8]
	HAL_ADC_Start(&hadc1);
 80033e6:	f7fd be75 	b.w	80010d4 <HAL_ADC_Start>
 80033ea:	bf00      	nop
 80033ec:	20000e50 	.word	0x20000e50
 80033f0:	2000047c 	.word	0x2000047c

080033f4 <ReadAnalogADC1>:
	}
	return HAL_ADC_GetValue(&hadc1);
}
int ReadAnalogADC1(uint32_t ch) {
	adcChannel.Channel = ch;	  //B
	adcChannel.Rank = 1;
 80033f4:	2301      	movs	r3, #1
	adcChannel.Channel = ch;	  //B
 80033f6:	490b      	ldr	r1, [pc, #44]	; (8003424 <ReadAnalogADC1+0x30>)
int ReadAnalogADC1(uint32_t ch) {
 80033f8:	b510      	push	{r4, lr}
	adcChannel.Rank = 1;
 80033fa:	604b      	str	r3, [r1, #4]
	adcChannel.SamplingTime = ADC_SAMPLETIME_1CYCLE_5;
 80033fc:	2300      	movs	r3, #0

	HAL_ADC_ConfigChannel(&hadc1, &adcChannel);	  //A4 / B
 80033fe:	4c0a      	ldr	r4, [pc, #40]	; (8003428 <ReadAnalogADC1+0x34>)
	adcChannel.Channel = ch;	  //B
 8003400:	6008      	str	r0, [r1, #0]
	HAL_ADC_ConfigChannel(&hadc1, &adcChannel);	  //A4 / B
 8003402:	4620      	mov	r0, r4
	adcChannel.SamplingTime = ADC_SAMPLETIME_1CYCLE_5;
 8003404:	608b      	str	r3, [r1, #8]
	HAL_ADC_ConfigChannel(&hadc1, &adcChannel);	  //A4 / B
 8003406:	f7fd fda9 	bl	8000f5c <HAL_ADC_ConfigChannel>
	HAL_ADC_Start(&hadc1);
 800340a:	4620      	mov	r0, r4
 800340c:	f7fd fe62 	bl	80010d4 <HAL_ADC_Start>
	while ( __HAL_ADC_GET_FLAG(&hadc1, ADC_FLAG_EOC) == 0) {
 8003410:	6822      	ldr	r2, [r4, #0]
 8003412:	6813      	ldr	r3, [r2, #0]
 8003414:	079b      	lsls	r3, r3, #30
 8003416:	d5fc      	bpl.n	8003412 <ReadAnalogADC1+0x1e>
	}
	return HAL_ADC_GetValue(&hadc1);
 8003418:	4803      	ldr	r0, [pc, #12]	; (8003428 <ReadAnalogADC1+0x34>)
}
 800341a:	e8bd 4010 	ldmia.w	sp!, {r4, lr}
	return HAL_ADC_GetValue(&hadc1);
 800341e:	f7fd bd99 	b.w	8000f54 <HAL_ADC_GetValue>
 8003422:	bf00      	nop
 8003424:	20000e50 	.word	0x20000e50
 8003428:	2000047c 	.word	0x2000047c
 800342c:	00000000 	.word	0x00000000

08003430 <routeADC>:
void routeADC(void) {
 8003430:	e92d 47f0 	stmdb	sp!, {r4, r5, r6, r7, r8, r9, sl, lr}
		adc.v[i] = (adc.v[i] + adc.in[i] * (3.3 / 4095.0) * (3.9 + 2.2) / 3.9)
 8003434:	f20f 0990 	addw	r9, pc, #144	; 0x90
 8003438:	e9d9 8900 	ldrd	r8, r9, [r9]
	adc.in[ V4_SENSE] = ReadAnalogADC1( V4_SENSE);
 800343c:	2004      	movs	r0, #4
 800343e:	f7ff ffd9 	bl	80033f4 <ReadAnalogADC1>
 8003442:	4c27      	ldr	r4, [pc, #156]	; (80034e0 <routeADC+0xb0>)
 8003444:	6160      	str	r0, [r4, #20]
	adc.in[ RPI_3V3_SENSE] = ReadAnalogADC1( RPI_3V3_SENSE);
 8003446:	2005      	movs	r0, #5
 8003448:	f7ff ffd4 	bl	80033f4 <ReadAnalogADC1>
 800344c:	61a0      	str	r0, [r4, #24]
	adc.in[ USB_5V_SENSE] = ReadAnalogADC1( USB_5V_SENSE);
 800344e:	2006      	movs	r0, #6
 8003450:	f7ff ffd0 	bl	80033f4 <ReadAnalogADC1>
 8003454:	61e0      	str	r0, [r4, #28]
	adc.in[ VIN_SENSE] = ReadAnalogADC1( VIN_SENSE);
 8003456:	2007      	movs	r0, #7
 8003458:	f7ff ffcc 	bl	80033f4 <ReadAnalogADC1>
 800345c:	6220      	str	r0, [r4, #32]
	adc.in[ A14] = ReadAnalogADC1( A14);
 800345e:	200e      	movs	r0, #14
 8003460:	f7ff ffc8 	bl	80033f4 <ReadAnalogADC1>
 8003464:	63e0      	str	r0, [r4, #60]	; 0x3c
	adc.in[ A15] = ReadAnalogADC1( A15);
 8003466:	200f      	movs	r0, #15
 8003468:	4625      	mov	r5, r4
 800346a:	f7ff ffc3 	bl	80033f4 <ReadAnalogADC1>
 800346e:	3480      	adds	r4, #128	; 0x80
 8003470:	f845 0f40 	str.w	r0, [r5, #64]!
		adc.v[i] = (adc.v[i] + adc.in[i] * (3.3 / 4095.0) * (3.9 + 2.2) / 3.9)
 8003474:	f855 0c3c 	ldr.w	r0, [r5, #-60]
 8003478:	f7fc ffc4 	bl	8000404 <__aeabi_i2d>
 800347c:	4642      	mov	r2, r8
 800347e:	464b      	mov	r3, r9
 8003480:	f7fd f826 	bl	80004d0 <__aeabi_dmul>
 8003484:	a312      	add	r3, pc, #72	; (adr r3, 80034d0 <routeADC+0xa0>)
 8003486:	e9d3 2300 	ldrd	r2, r3, [r3]
 800348a:	f7fd f821 	bl	80004d0 <__aeabi_dmul>
 800348e:	a312      	add	r3, pc, #72	; (adr r3, 80034d8 <routeADC+0xa8>)
 8003490:	e9d3 2300 	ldrd	r2, r3, [r3]
 8003494:	f7fd f946 	bl	8000724 <__aeabi_ddiv>
 8003498:	4606      	mov	r6, r0
 800349a:	6868      	ldr	r0, [r5, #4]
 800349c:	460f      	mov	r7, r1
 800349e:	f7fc ffc3 	bl	8000428 <__aeabi_f2d>
 80034a2:	4602      	mov	r2, r0
 80034a4:	460b      	mov	r3, r1
 80034a6:	4630      	mov	r0, r6
 80034a8:	4639      	mov	r1, r7
 80034aa:	f7fc fe5f 	bl	800016c <__adddf3>
				/ 2.0;
 80034ae:	2200      	movs	r2, #0
 80034b0:	4b0c      	ldr	r3, [pc, #48]	; (80034e4 <routeADC+0xb4>)
 80034b2:	f7fd f80d 	bl	80004d0 <__aeabi_dmul>
 80034b6:	f7fd fa45 	bl	8000944 <__aeabi_d2f>
 80034ba:	f845 0f04 	str.w	r0, [r5, #4]!
	for (int i = 0; i < 16; i++)
 80034be:	42ac      	cmp	r4, r5
 80034c0:	d1d8      	bne.n	8003474 <routeADC+0x44>
}
 80034c2:	e8bd 87f0 	ldmia.w	sp!, {r4, r5, r6, r7, r8, r9, sl, pc}
 80034c6:	bf00      	nop
 80034c8:	e734d9b4 	.word	0xe734d9b4
 80034cc:	3f4a680c 	.word	0x3f4a680c
 80034d0:	66666666 	.word	0x66666666
 80034d4:	40186666 	.word	0x40186666
 80034d8:	33333333 	.word	0x33333333
 80034dc:	400f3333 	.word	0x400f3333
 80034e0:	20000b80 	.word	0x20000b80
 80034e4:	3fe00000 	.word	0x3fe00000

080034e8 <initAT>:
AT_Struct AT;
int hex_to_int(char c);
int hex_to_ascii(char c, char d);
int strpos(char* hay, char* needle, int offset);

void initAT() {
 80034e8:	b570      	push	{r4, r5, r6, lr}
	gprs.TX = "";
	//gprs.RX ;
	gprs.RXOvf = false;
	gprs.RXPointer = &gprs.RX;

	gprs.txPosition = -1;
 80034ea:	f04f 35ff 	mov.w	r5, #4294967295
	gprs.RXOvf = false;
 80034ee:	2600      	movs	r6, #0
	gprs.TX = "";
 80034f0:	4c1f      	ldr	r4, [pc, #124]	; (8003570 <initAT+0x88>)
 80034f2:	4b20      	ldr	r3, [pc, #128]	; (8003574 <initAT+0x8c>)
	gprs.RXOvf = false;
 80034f4:	f884 643c 	strb.w	r6, [r4, #1084]	; 0x43c
	gprs.TX = "";
 80034f8:	f8c4 35c0 	str.w	r3, [r4, #1472]	; 0x5c0
	gprs.RXPointer = &gprs.RX;
 80034fc:	f204 53cc 	addw	r3, r4, #1484	; 0x5cc
 8003500:	f8c4 35c4 	str.w	r3, [r4, #1476]	; 0x5c4
	gprs.txPosition = -1;
 8003504:	f8c4 5428 	str.w	r5, [r4, #1064]	; 0x428
	gprs.okPosition = -1;
 8003508:	f8c4 542c 	str.w	r5, [r4, #1068]	; 0x42c
	gprs.errorPosition = -1;
 800350c:	f8c4 5430 	str.w	r5, [r4, #1072]	; 0x430
	gprs.response = INIT_STATE;
 8003510:	f884 5434 	strb.w	r5, [r4, #1076]	; 0x434
	gprs.timeout = HAL_GetTick();
 8003514:	f7fd fd06 	bl	8000f24 <HAL_GetTick>

	gprs.index = 0;
	gprs.i = 0;
	//gprs.readIndex = 0;

	gprs.at[AT_AT].request = "AT\r\n";
 8003518:	4b17      	ldr	r3, [pc, #92]	; (8003578 <initAT+0x90>)
	queue[1] = "AT+CSQ\r\n";
	queue[2] = "AT+CMGF=1\r\n";
	queue[3] = "AT+CMGS=\"+79518926260\"\r\n";
	queue[4] = "hello\x1a\r\n";*/
	queue[0] = AT_AT;
	queue[1] = AT_CSQ;
 800351a:	2215      	movs	r2, #21
	gprs.at[AT_AT].request = "AT\r\n";
 800351c:	f8c4 3440 	str.w	r3, [r4, #1088]	; 0x440
	gprs.at[AT_AT].response = INIT_STATE;
 8003520:	23ff      	movs	r3, #255	; 0xff
 8003522:	f884 3444 	strb.w	r3, [r4, #1092]	; 0x444
	gprs.at[AT_CPIN].request ="AT+CPIN?\r\n"; //..//5s
 8003526:	4b15      	ldr	r3, [pc, #84]	; (800357c <initAT+0x94>)
	gprs.timeout = HAL_GetTick();
 8003528:	f8c4 0438 	str.w	r0, [r4, #1080]	; 0x438
	gprs.at[AT_CPIN].request ="AT+CPIN?\r\n"; //..//5s
 800352c:	f8c4 34ac 	str.w	r3, [r4, #1196]	; 0x4ac
	gprs.at[AT_CSQ].request = "AT+CSQ\r\n"; // 
 8003530:	4b13      	ldr	r3, [pc, #76]	; (8003580 <initAT+0x98>)
	gprs.busy = false;
 8003532:	7026      	strb	r6, [r4, #0]
	gprs.at[AT_CSQ].request = "AT+CSQ\r\n"; // 
 8003534:	f8c4 353c 	str.w	r3, [r4, #1340]	; 0x53c
	gprs.at[AT_CMGF].request = "AT+CMGF=1\r\n"; //   ( PDU)
 8003538:	4b12      	ldr	r3, [pc, #72]	; (8003584 <initAT+0x9c>)
	gprs.index = 0;
 800353a:	f884 6424 	strb.w	r6, [r4, #1060]	; 0x424
	gprs.at[AT_CMGF].request = "AT+CMGF=1\r\n"; //   ( PDU)
 800353e:	f8c4 3548 	str.w	r3, [r4, #1352]	; 0x548
	queue[0] = AT_AT;
 8003542:	4b11      	ldr	r3, [pc, #68]	; (8003588 <initAT+0xa0>)
	gprs.i = 0;
 8003544:	f8a4 6422 	strh.w	r6, [r4, #1058]	; 0x422
	queue[1] = AT_CSQ;
 8003548:	705a      	strb	r2, [r3, #1]
	queue[2] = AT_CPIN;
 800354a:	2209      	movs	r2, #9
 800354c:	709a      	strb	r2, [r3, #2]
	queue[3] = AT_CMGF;
 800354e:	2216      	movs	r2, #22
	queue[0] = AT_AT;
 8003550:	701e      	strb	r6, [r3, #0]
	queue[3] = AT_CMGF;
 8003552:	70da      	strb	r2, [r3, #3]
	gprs.at[AT_CPIN].response = INIT_STATE;
 8003554:	f884 54b0 	strb.w	r5, [r4, #1200]	; 0x4b0
	gprs.at[AT_CSQ].response = INIT_STATE;
 8003558:	f884 5540 	strb.w	r5, [r4, #1344]	; 0x540
	gprs.at[AT_CMGF].response = INIT_STATE;
 800355c:	f884 554c 	strb.w	r5, [r4, #1356]	; 0x54c

	HAL_UART_Receive_DMA(&huart1, gprs.rx_buff, RX_BUFFER_SIZE);
 8003560:	1c61      	adds	r1, r4, #1
 8003562:	2220      	movs	r2, #32
}
 8003564:	e8bd 4070 	ldmia.w	sp!, {r4, r5, r6, lr}
	HAL_UART_Receive_DMA(&huart1, gprs.rx_buff, RX_BUFFER_SIZE);
 8003568:	4808      	ldr	r0, [pc, #32]	; (800358c <initAT+0xa4>)
 800356a:	f7ff bb41 	b.w	8002bf0 <HAL_UART_Receive_DMA>
 800356e:	bf00      	nop
 8003570:	200004ac 	.word	0x200004ac
 8003574:	08004741 	.word	0x08004741
 8003578:	0800471d 	.word	0x0800471d
 800357c:	08004722 	.word	0x08004722
 8003580:	0800472d 	.word	0x0800472d
 8003584:	08004736 	.word	0x08004736
 8003588:	200002a0 	.word	0x200002a0
 800358c:	20000b40 	.word	0x20000b40

08003590 <sendQueue>:
void sendQueue() {
 8003590:	b570      	push	{r4, r5, r6, lr}
	if (!gprs.busy) {
 8003592:	4c1c      	ldr	r4, [pc, #112]	; (8003604 <sendQueue+0x74>)
 8003594:	7823      	ldrb	r3, [r4, #0]
 8003596:	b9d3      	cbnz	r3, 80035ce <sendQueue+0x3e>
		gprs.busy = true;
 8003598:	2301      	movs	r3, #1
 800359a:	7023      	strb	r3, [r4, #0]

		gprs.timeout = HAL_GetTick()+1000;
 800359c:	f7fd fcc2 	bl	8000f24 <HAL_GetTick>

		//gprs.TX = "AT+CCID\r\n";
		//gprs.TX = AT.cops.request;

		//gprs.TX = "hello\x1a";
		gprs.TX = gprs.at[queue[gprs.index]].request;
 80035a0:	4a19      	ldr	r2, [pc, #100]	; (8003608 <sendQueue+0x78>)
 80035a2:	f894 3424 	ldrb.w	r3, [r4, #1060]	; 0x424
		gprs.timeout = HAL_GetTick()+1000;
 80035a6:	f500 707a 	add.w	r0, r0, #1000	; 0x3e8
		gprs.TX = gprs.at[queue[gprs.index]].request;
 80035aa:	5cd3      	ldrb	r3, [r2, r3]
 80035ac:	220c      	movs	r2, #12
 80035ae:	fb02 4303 	mla	r3, r2, r3, r4
 80035b2:	f8d3 5440 	ldr.w	r5, [r3, #1088]	; 0x440
		gprs.timeout = HAL_GetTick()+1000;
 80035b6:	f8c4 0438 	str.w	r0, [r4, #1080]	; 0x438
		HAL_UART_Transmit_DMA(&huart1, gprs.TX, strlen(gprs.TX));
 80035ba:	4628      	mov	r0, r5
		gprs.TX = gprs.at[queue[gprs.index]].request;
 80035bc:	f8c4 55c0 	str.w	r5, [r4, #1472]	; 0x5c0
		HAL_UART_Transmit_DMA(&huart1, gprs.TX, strlen(gprs.TX));
 80035c0:	f7fc fdc6 	bl	8000150 <strlen>
 80035c4:	4629      	mov	r1, r5
 80035c6:	b282      	uxth	r2, r0
 80035c8:	4810      	ldr	r0, [pc, #64]	; (800360c <sendQueue+0x7c>)
 80035ca:	f7ff fad7 	bl	8002b7c <HAL_UART_Transmit_DMA>
void sendQueue() {
 80035ce:	2100      	movs	r1, #0
	for (int i = 0; i < RX_BUFFER_SIZE; i++) {
		if (gprs.rx_buff[i] != '\0') {
			gprs.RX[gprs.i] = gprs.rx_buff[i];
			gprs.i++;
			if (gprs.i == 128)
				gprs.i = 0;
 80035d0:	460e      	mov	r6, r1
 80035d2:	4a0c      	ldr	r2, [pc, #48]	; (8003604 <sendQueue+0x74>)
 80035d4:	f8b4 3422 	ldrh.w	r3, [r4, #1058]	; 0x422
 80035d8:	f102 0520 	add.w	r5, r2, #32
		if (gprs.rx_buff[i] != '\0') {
 80035dc:	7850      	ldrb	r0, [r2, #1]
 80035de:	b938      	cbnz	r0, 80035f0 <sendQueue+0x60>
		}
		gprs.rx_buff[i] = '\0';
 80035e0:	f802 6f01 	strb.w	r6, [r2, #1]!
	for (int i = 0; i < RX_BUFFER_SIZE; i++) {
 80035e4:	42aa      	cmp	r2, r5
 80035e6:	d1f9      	bne.n	80035dc <sendQueue+0x4c>
 80035e8:	b109      	cbz	r1, 80035ee <sendQueue+0x5e>
 80035ea:	f8a4 3422 	strh.w	r3, [r4, #1058]	; 0x422
 80035ee:	bd70      	pop	{r4, r5, r6, pc}
			gprs.RX[gprs.i] = gprs.rx_buff[i];
 80035f0:	18e1      	adds	r1, r4, r3
			gprs.i++;
 80035f2:	3301      	adds	r3, #1
 80035f4:	b29b      	uxth	r3, r3
			if (gprs.i == 128)
 80035f6:	2b80      	cmp	r3, #128	; 0x80
			gprs.RX[gprs.i] = gprs.rx_buff[i];
 80035f8:	f881 05cc 	strb.w	r0, [r1, #1484]	; 0x5cc
				gprs.i = 0;
 80035fc:	bf08      	it	eq
 80035fe:	2300      	moveq	r3, #0
 8003600:	2101      	movs	r1, #1
 8003602:	e7ed      	b.n	80035e0 <sendQueue+0x50>
 8003604:	200004ac 	.word	0x200004ac
 8003608:	200002a0 	.word	0x200002a0
 800360c:	20000b40 	.word	0x20000b40

08003610 <checkUpdate>:
	 //gprs.busy=false;
	 }*/
	return;
}

void checkUpdate() {
 8003610:	2100      	movs	r1, #0
 8003612:	4b10      	ldr	r3, [pc, #64]	; (8003654 <checkUpdate+0x44>)
 8003614:	b470      	push	{r4, r5, r6}
 8003616:	4618      	mov	r0, r3
			 gprs.RXOvf = true;
			 }*/
			gprs.RX[gprs.i] = gprs.rx_buff[i];
			gprs.i++;
			if (gprs.i == 128) {
				gprs.i = 0;
 8003618:	460e      	mov	r6, r1
 800361a:	f8b3 2422 	ldrh.w	r2, [r3, #1058]	; 0x422
 800361e:	f103 0520 	add.w	r5, r3, #32
		if (gprs.rx_buff[i] != '\0') {
 8003622:	785c      	ldrb	r4, [r3, #1]
 8003624:	b964      	cbnz	r4, 8003640 <checkUpdate+0x30>
			}
			//free(str2);
		}
		gprs.rx_buff[i] = '\0';
 8003626:	f803 6f01 	strb.w	r6, [r3, #1]!
	for (int i = 0; i < RX_BUFFER_SIZE; i++) {
 800362a:	42ab      	cmp	r3, r5
 800362c:	d1f9      	bne.n	8003622 <checkUpdate+0x12>
 800362e:	b109      	cbz	r1, 8003634 <checkUpdate+0x24>
 8003630:	f8a0 2422 	strh.w	r2, [r0, #1058]	; 0x422
		//gprs.rxChar[gprs.i] = gprs.rx_buff[i];
		//gprs.i++;
	}

	HAL_UART_Receive_DMA(&huart1, gprs.rx_buff, RX_BUFFER_SIZE);
 8003634:	2220      	movs	r2, #32
}
 8003636:	bc70      	pop	{r4, r5, r6}
	HAL_UART_Receive_DMA(&huart1, gprs.rx_buff, RX_BUFFER_SIZE);
 8003638:	4907      	ldr	r1, [pc, #28]	; (8003658 <checkUpdate+0x48>)
 800363a:	4808      	ldr	r0, [pc, #32]	; (800365c <checkUpdate+0x4c>)
 800363c:	f7ff bad8 	b.w	8002bf0 <HAL_UART_Receive_DMA>
			gprs.RX[gprs.i] = gprs.rx_buff[i];
 8003640:	1881      	adds	r1, r0, r2
			gprs.i++;
 8003642:	3201      	adds	r2, #1
 8003644:	b292      	uxth	r2, r2
			if (gprs.i == 128) {
 8003646:	2a80      	cmp	r2, #128	; 0x80
			gprs.RX[gprs.i] = gprs.rx_buff[i];
 8003648:	f881 45cc 	strb.w	r4, [r1, #1484]	; 0x5cc
				gprs.i = 0;
 800364c:	bf08      	it	eq
 800364e:	2200      	moveq	r2, #0
 8003650:	2101      	movs	r1, #1
 8003652:	e7e8      	b.n	8003626 <checkUpdate+0x16>
 8003654:	200004ac 	.word	0x200004ac
 8003658:	200004ad 	.word	0x200004ad
 800365c:	20000b40 	.word	0x20000b40

08003660 <strpos>:
int hex_to_ascii(char c, char d) {
	int high = hex_to_int(c) * 16;
	int low = hex_to_int(d);
	return high + low;
}
int strpos(char* hay, char* needle, int offset) {
 8003660:	b5f8      	push	{r3, r4, r5, r6, r7, lr}
 8003662:	af00      	add	r7, sp, #0
 8003664:	460e      	mov	r6, r1
 8003666:	4614      	mov	r4, r2
 8003668:	4605      	mov	r5, r0
	char haystack[strlen(hay)];
 800366a:	f7fc fd71 	bl	8000150 <strlen>
 800366e:	3007      	adds	r0, #7
 8003670:	f020 0007 	bic.w	r0, r0, #7
 8003674:	ebad 0d00 	sub.w	sp, sp, r0
	strncpy(haystack, hay + offset, strlen(hay) - offset);
 8003678:	4628      	mov	r0, r5
 800367a:	f7fc fd69 	bl	8000150 <strlen>
 800367e:	1929      	adds	r1, r5, r4
 8003680:	1b02      	subs	r2, r0, r4
 8003682:	4668      	mov	r0, sp
 8003684:	f000 ffa4 	bl	80045d0 <strncpy>
	char* p = strstr(haystack, needle);
 8003688:	4631      	mov	r1, r6
 800368a:	4668      	mov	r0, sp
 800368c:	f000 ffb5 	bl	80045fa <strstr>
	if (p)
 8003690:	b120      	cbz	r0, 800369c <strpos+0x3c>
		return p - haystack + offset;
 8003692:	466b      	mov	r3, sp
 8003694:	1ac0      	subs	r0, r0, r3
 8003696:	4420      	add	r0, r4
	return -1;
}
 8003698:	46bd      	mov	sp, r7
 800369a:	bdf8      	pop	{r3, r4, r5, r6, r7, pc}
	return -1;
 800369c:	f04f 30ff 	mov.w	r0, #4294967295
 80036a0:	e7fa      	b.n	8003698 <strpos+0x38>
	...

080036a4 <checkAT>:
void checkAT() {
 80036a4:	e92d 41f0 	stmdb	sp!, {r4, r5, r6, r7, r8, lr}
	size_t len = strlen(gprs.TX); //namelen = strlen(name);
 80036a8:	4c3a      	ldr	r4, [pc, #232]	; (8003794 <checkAT+0xf0>)
 80036aa:	f8d4 85c0 	ldr.w	r8, [r4, #1472]	; 0x5c0
 80036ae:	4640      	mov	r0, r8
 80036b0:	f7fc fd4e 	bl	8000150 <strlen>
	if (len != 0) {
 80036b4:	4605      	mov	r5, r0
 80036b6:	b150      	cbz	r0, 80036ce <checkAT+0x2a>
		str2 = (char*) malloc(len - 1);
 80036b8:	1e47      	subs	r7, r0, #1
 80036ba:	4638      	mov	r0, r7
 80036bc:	f000 febe 	bl	800443c <malloc>
		strncpy(str2, gprs.TX, len - 2);
 80036c0:	1eaa      	subs	r2, r5, #2
 80036c2:	4641      	mov	r1, r8
		str2 = (char*) malloc(len - 1);
 80036c4:	4606      	mov	r6, r0
		strncpy(str2, gprs.TX, len - 2);
 80036c6:	f000 ff83 	bl	80045d0 <strncpy>
		str2[len - 1] = 0;
 80036ca:	2300      	movs	r3, #0
 80036cc:	55f3      	strb	r3, [r6, r7]
	gprs.txPosition = strpos(gprs.RXPointer, str2, 0);
 80036ce:	2200      	movs	r2, #0
 80036d0:	4631      	mov	r1, r6
 80036d2:	f8d4 05c4 	ldr.w	r0, [r4, #1476]	; 0x5c4
 80036d6:	f7ff ffc3 	bl	8003660 <strpos>
 80036da:	f8c4 0428 	str.w	r0, [r4, #1064]	; 0x428
	if (len != 0)
 80036de:	b115      	cbz	r5, 80036e6 <checkAT+0x42>
		free(str2);
 80036e0:	4630      	mov	r0, r6
 80036e2:	f000 feb3 	bl	800444c <free>
	gprs.okPosition = strpos(gprs.RXPointer, "OK", 0);
 80036e6:	2200      	movs	r2, #0
 80036e8:	492b      	ldr	r1, [pc, #172]	; (8003798 <checkAT+0xf4>)
 80036ea:	f8d4 05c4 	ldr.w	r0, [r4, #1476]	; 0x5c4
 80036ee:	f7ff ffb7 	bl	8003660 <strpos>
	gprs.errorPosition = strpos(gprs.RXPointer, "ERROR", 0);
 80036f2:	2200      	movs	r2, #0
	gprs.okPosition = strpos(gprs.RXPointer, "OK", 0);
 80036f4:	f8c4 042c 	str.w	r0, [r4, #1068]	; 0x42c
	gprs.errorPosition = strpos(gprs.RXPointer, "ERROR", 0);
 80036f8:	4928      	ldr	r1, [pc, #160]	; (800379c <checkAT+0xf8>)
 80036fa:	f8d4 05c4 	ldr.w	r0, [r4, #1476]	; 0x5c4
 80036fe:	f7ff ffaf 	bl	8003660 <strpos>
	if ( (gprs.okPosition > 0 || gprs.errorPosition > 0) || HAL_GetTick()>gprs.timeout ) {
 8003702:	f8d4 342c 	ldr.w	r3, [r4, #1068]	; 0x42c
	gprs.errorPosition = strpos(gprs.RXPointer, "ERROR", 0);
 8003706:	f8c4 0430 	str.w	r0, [r4, #1072]	; 0x430
	if ( (gprs.okPosition > 0 || gprs.errorPosition > 0) || HAL_GetTick()>gprs.timeout ) {
 800370a:	2b00      	cmp	r3, #0
 800370c:	dd2a      	ble.n	8003764 <checkAT+0xc0>
		gprs.response = (gprs.okPosition > 0) ? OK :
 800370e:	f8d4 342c 	ldr.w	r3, [r4, #1068]	; 0x42c
 8003712:	2b00      	cmp	r3, #0
 8003714:	dd30      	ble.n	8003778 <checkAT+0xd4>
 8003716:	2201      	movs	r2, #1
		gprs.at[queue[gprs.index]].response = gprs.response;
 8003718:	200c      	movs	r0, #12
 800371a:	f894 3424 	ldrb.w	r3, [r4, #1060]	; 0x424
 800371e:	4920      	ldr	r1, [pc, #128]	; (80037a0 <checkAT+0xfc>)
 8003720:	5cc9      	ldrb	r1, [r1, r3]
 8003722:	fb00 4101 	mla	r1, r0, r1, r4
 8003726:	f881 2444 	strb.w	r2, [r1, #1092]	; 0x444
		gprs.txPosition = -1;
 800372a:	f04f 32ff 	mov.w	r2, #4294967295
 800372e:	f8c4 2428 	str.w	r2, [r4, #1064]	; 0x428
		gprs.okPosition = -1;
 8003732:	f8c4 242c 	str.w	r2, [r4, #1068]	; 0x42c
		gprs.errorPosition = -1;
 8003736:	f8c4 2430 	str.w	r2, [r4, #1072]	; 0x430
		gprs.response = INIT_STATE;
 800373a:	f884 2434 	strb.w	r2, [r4, #1076]	; 0x434
		for (int i = 0; i < gprs.i; i++)
 800373e:	2200      	movs	r2, #0
 8003740:	4611      	mov	r1, r2
 8003742:	f8b4 0422 	ldrh.w	r0, [r4, #1058]	; 0x422
 8003746:	4282      	cmp	r2, r0
 8003748:	db1e      	blt.n	8003788 <checkAT+0xe4>
		gprs.index++;
 800374a:	3301      	adds	r3, #1
 800374c:	b2db      	uxtb	r3, r3
		if(gprs.index==4)
 800374e:	2b04      	cmp	r3, #4
		gprs.index++;
 8003750:	bf14      	ite	ne
 8003752:	f884 3424 	strbne.w	r3, [r4, #1060]	; 0x424
			gprs.index=0;
 8003756:	f884 1424 	strbeq.w	r1, [r4, #1060]	; 0x424
		gprs.i=0;
 800375a:	f8a4 1422 	strh.w	r1, [r4, #1058]	; 0x422
		gprs.busy=false;
 800375e:	7021      	strb	r1, [r4, #0]
 8003760:	e8bd 81f0 	ldmia.w	sp!, {r4, r5, r6, r7, r8, pc}
	if ( (gprs.okPosition > 0 || gprs.errorPosition > 0) || HAL_GetTick()>gprs.timeout ) {
 8003764:	2800      	cmp	r0, #0
 8003766:	dcd2      	bgt.n	800370e <checkAT+0x6a>
 8003768:	f7fd fbdc 	bl	8000f24 <HAL_GetTick>
 800376c:	f8d4 3438 	ldr.w	r3, [r4, #1080]	; 0x438
 8003770:	4298      	cmp	r0, r3
 8003772:	d8cc      	bhi.n	800370e <checkAT+0x6a>
 8003774:	e8bd 81f0 	ldmia.w	sp!, {r4, r5, r6, r7, r8, pc}
		gprs.response = (gprs.okPosition > 0) ? OK :
 8003778:	f8d4 2430 	ldr.w	r2, [r4, #1072]	; 0x430
 800377c:	2a00      	cmp	r2, #0
 800377e:	bfcc      	ite	gt
 8003780:	2200      	movgt	r2, #0
 8003782:	2201      	movle	r2, #1
 8003784:	4252      	negs	r2, r2
 8003786:	e7c7      	b.n	8003718 <checkAT+0x74>
			gprs.RX[i] = 0;
 8003788:	18a5      	adds	r5, r4, r2
 800378a:	f885 15cc 	strb.w	r1, [r5, #1484]	; 0x5cc
		for (int i = 0; i < gprs.i; i++)
 800378e:	3201      	adds	r2, #1
 8003790:	e7d9      	b.n	8003746 <checkAT+0xa2>
 8003792:	bf00      	nop
 8003794:	200004ac 	.word	0x200004ac
 8003798:	08004704 	.word	0x08004704
 800379c:	08004707 	.word	0x08004707
 80037a0:	200002a0 	.word	0x200002a0

080037a4 <RPiInit>:

void RPiInit(void);
void RPiRXRoute(void);
void RPiRoute(void);

void RPiInit(void) {
 80037a4:	b510      	push	{r4, lr}
	HAL_UART_Receive_IT(&huart3, RPi_UART.rx_buff, RPI_BUFFER_SIZE);
 80037a6:	4c05      	ldr	r4, [pc, #20]	; (80037bc <RPiInit+0x18>)
 80037a8:	2204      	movs	r2, #4
 80037aa:	4621      	mov	r1, r4
 80037ac:	4804      	ldr	r0, [pc, #16]	; (80037c0 <RPiInit+0x1c>)
 80037ae:	f7ff f9bd 	bl	8002b2c <HAL_UART_Receive_IT>
	RPi_UART.transmitRequered = false;
 80037b2:	2300      	movs	r3, #0
 80037b4:	f804 3c05 	strb.w	r3, [r4, #-5]
 80037b8:	bd10      	pop	{r4, pc}
 80037ba:	bf00      	nop
 80037bc:	2000042d 	.word	0x2000042d
 80037c0:	2000020c 	.word	0x2000020c

080037c4 <RPiRoute>:
	return;
}
void RPiRoute(void) {
 80037c4:	b510      	push	{r4, lr}
	if (RPi_UART.transmitRequered) {
 80037c6:	4c06      	ldr	r4, [pc, #24]	; (80037e0 <RPiRoute+0x1c>)
 80037c8:	7823      	ldrb	r3, [r4, #0]
 80037ca:	b13b      	cbz	r3, 80037dc <RPiRoute+0x18>
		HAL_UART_Transmit_DMA(&huart3, RPi_UART.tx_buff, RPI_BUFFER_SIZE);
 80037cc:	2204      	movs	r2, #4
 80037ce:	f104 0109 	add.w	r1, r4, #9
 80037d2:	4804      	ldr	r0, [pc, #16]	; (80037e4 <RPiRoute+0x20>)
 80037d4:	f7ff f9d2 	bl	8002b7c <HAL_UART_Transmit_DMA>
		//HAL_UART_Transmit(&huart3, RPi_UART.tx_buff, RPI_BUFFER_SIZE, 1000);
		RPi_UART.transmitRequered = false;
 80037d8:	2300      	movs	r3, #0
 80037da:	7023      	strb	r3, [r4, #0]
 80037dc:	bd10      	pop	{r4, pc}
 80037de:	bf00      	nop
 80037e0:	20000428 	.word	0x20000428
 80037e4:	2000020c 	.word	0x2000020c

080037e8 <RPiRXRoute>:
	}
}
//toRPIlib
void RPiRXRoute(void) {
 80037e8:	b538      	push	{r3, r4, r5, lr}
	int16_t tmp;
	uint32_t HWID = *(__IO uint32_t *) 0x08010004;
	for (int i = 0; i < RPI_BUFFER_SIZE; i++)
		rpiframe.raw[i] = RPi_UART.rx_buff[i];
 80037ea:	4c3e      	ldr	r4, [pc, #248]	; (80038e4 <RPiRXRoute+0xfc>)
	uint32_t HWID = *(__IO uint32_t *) 0x08010004;
 80037ec:	4b3e      	ldr	r3, [pc, #248]	; (80038e8 <RPiRXRoute+0x100>)
		rpiframe.raw[i] = RPi_UART.rx_buff[i];
 80037ee:	4d3f      	ldr	r5, [pc, #252]	; (80038ec <RPiRXRoute+0x104>)
	uint32_t HWID = *(__IO uint32_t *) 0x08010004;
 80037f0:	6818      	ldr	r0, [r3, #0]
		rpiframe.raw[i] = RPi_UART.rx_buff[i];
 80037f2:	7963      	ldrb	r3, [r4, #5]
 80037f4:	702b      	strb	r3, [r5, #0]
 80037f6:	79a3      	ldrb	r3, [r4, #6]
 80037f8:	706b      	strb	r3, [r5, #1]
 80037fa:	79e3      	ldrb	r3, [r4, #7]

	uint8_t subaddress = rpiframe.frame.address >> 8 & 0xFF;
 80037fc:	882a      	ldrh	r2, [r5, #0]
		rpiframe.raw[i] = RPi_UART.rx_buff[i];
 80037fe:	70ab      	strb	r3, [r5, #2]
 8003800:	7a23      	ldrb	r3, [r4, #8]
 8003802:	70eb      	strb	r3, [r5, #3]
	uint8_t subaddress = rpiframe.frame.address >> 8 & 0xFF;
 8003804:	0a13      	lsrs	r3, r2, #8
	switch (rpiframe.frame.address & 0xff) {
 8003806:	b2d2      	uxtb	r2, r2
 8003808:	3a01      	subs	r2, #1
 800380a:	2a0a      	cmp	r2, #10
 800380c:	d811      	bhi.n	8003832 <RPiRXRoute+0x4a>
 800380e:	e8df f002 	tbb	[pc, r2]
 8003812:	0d06      	.short	0x0d06
 8003814:	493b4437 	.word	0x493b4437
 8003818:	6110595b 	.word	0x6110595b
 800381c:	65          	.byte	0x65
 800381d:	00          	.byte	0x00
	case RPi_ECHO_UART_ADDRESS:
		HAL_GPIO_TogglePin(LED_R_GPIO_Port, LED_R_Pin);
 800381e:	2140      	movs	r1, #64	; 0x40
 8003820:	4833      	ldr	r0, [pc, #204]	; (80038f0 <RPiRXRoute+0x108>)
 8003822:	f7fe f892 	bl	800194a <HAL_GPIO_TogglePin>
	case RPi_GET_HW_TEMP_UART_ADDRESS:
		tmp = round(temp.out * 256.0);
		rpiframe.frame.data = tmp;
		//for (int i=0;i<4;i++)
		// RPi_UART.tx_buff[i] = rpiframe.raw[i];
		RPi_UART.transmitRequered = true;
 8003826:	2301      	movs	r3, #1
 8003828:	7023      	strb	r3, [r4, #0]
		break;
 800382a:	e002      	b.n	8003832 <RPiRXRoute+0x4a>
		ot.RPiRequestHI = rpiframe.frame.data;
 800382c:	886a      	ldrh	r2, [r5, #2]
 800382e:	4b31      	ldr	r3, [pc, #196]	; (80038f4 <RPiRXRoute+0x10c>)
 8003830:	801a      	strh	r2, [r3, #0]
	}

	if (RPi_UART.rx_buff[0] == 'H' && RPi_UART.rx_buff[1] == 'e'
 8003832:	7963      	ldrb	r3, [r4, #5]
 8003834:	2b48      	cmp	r3, #72	; 0x48
 8003836:	d108      	bne.n	800384a <RPiRXRoute+0x62>
			&& RPi_UART.rx_buff[2] == 'l') {
 8003838:	f646 4365 	movw	r3, #27749	; 0x6c65
 800383c:	88e2      	ldrh	r2, [r4, #6]
 800383e:	429a      	cmp	r2, r3
 8003840:	d103      	bne.n	800384a <RPiRXRoute+0x62>
		HAL_GPIO_TogglePin(LED_R_GPIO_Port, LED_R_Pin);
 8003842:	2140      	movs	r1, #64	; 0x40
 8003844:	482a      	ldr	r0, [pc, #168]	; (80038f0 <RPiRXRoute+0x108>)
 8003846:	f7fe f880 	bl	800194a <HAL_GPIO_TogglePin>
	}
	if (RPi_UART.rx_buff[0] == 't' && RPi_UART.rx_buff[1] == 'm'
 800384a:	7963      	ldrb	r3, [r4, #5]
 800384c:	2b74      	cmp	r3, #116	; 0x74
 800384e:	d108      	bne.n	8003862 <RPiRXRoute+0x7a>
			&& RPi_UART.rx_buff[2] == 'p') {
 8003850:	f247 036d 	movw	r3, #28781	; 0x706d
 8003854:	88e2      	ldrh	r2, [r4, #6]
 8003856:	429a      	cmp	r2, r3
 8003858:	d103      	bne.n	8003862 <RPiRXRoute+0x7a>
		HAL_GPIO_TogglePin(LED_R_GPIO_Port, LED_R_Pin);
 800385a:	2140      	movs	r1, #64	; 0x40
 800385c:	4824      	ldr	r0, [pc, #144]	; (80038f0 <RPiRXRoute+0x108>)
 800385e:	f7fe f874 	bl	800194a <HAL_GPIO_TogglePin>
		//RPi_UART.tx_buff
	}
	for (int i = 0; i < RPI_BUFFER_SIZE; i++)
		RPi_UART.tx_buff[i] = rpiframe.raw[i];
 8003862:	782b      	ldrb	r3, [r5, #0]
	HAL_UART_Receive_IT(&huart3, RPi_UART.rx_buff, RPI_BUFFER_SIZE);
 8003864:	2204      	movs	r2, #4
		RPi_UART.tx_buff[i] = rpiframe.raw[i];
 8003866:	7263      	strb	r3, [r4, #9]
 8003868:	786b      	ldrb	r3, [r5, #1]
	HAL_UART_Receive_IT(&huart3, RPi_UART.rx_buff, RPI_BUFFER_SIZE);
 800386a:	4923      	ldr	r1, [pc, #140]	; (80038f8 <RPiRXRoute+0x110>)
		RPi_UART.tx_buff[i] = rpiframe.raw[i];
 800386c:	72a3      	strb	r3, [r4, #10]
 800386e:	78ab      	ldrb	r3, [r5, #2]
	HAL_UART_Receive_IT(&huart3, RPi_UART.rx_buff, RPI_BUFFER_SIZE);
 8003870:	4822      	ldr	r0, [pc, #136]	; (80038fc <RPiRXRoute+0x114>)
		RPi_UART.tx_buff[i] = rpiframe.raw[i];
 8003872:	72e3      	strb	r3, [r4, #11]
 8003874:	78eb      	ldrb	r3, [r5, #3]
 8003876:	7323      	strb	r3, [r4, #12]
}
 8003878:	e8bd 4038 	ldmia.w	sp!, {r3, r4, r5, lr}
	HAL_UART_Receive_IT(&huart3, RPi_UART.rx_buff, RPI_BUFFER_SIZE);
 800387c:	f7ff b956 	b.w	8002b2c <HAL_UART_Receive_IT>
		rpiframe.frame.data = OTDR.ID3.SlaveMemberID;
 8003880:	4b1f      	ldr	r3, [pc, #124]	; (8003900 <RPiRXRoute+0x118>)
 8003882:	791b      	ldrb	r3, [r3, #4]
			rpiframe.frame.data = ot.timeout;
 8003884:	806b      	strh	r3, [r5, #2]
 8003886:	e7ce      	b.n	8003826 <RPiRXRoute+0x3e>
		rpiframe.frame.data = gprs.at[subaddress].response;
 8003888:	210c      	movs	r1, #12
 800388a:	4a1e      	ldr	r2, [pc, #120]	; (8003904 <RPiRXRoute+0x11c>)
 800388c:	fb01 2303 	mla	r3, r1, r3, r2
 8003890:	f993 3444 	ldrsb.w	r3, [r3, #1092]	; 0x444
 8003894:	806b      	strh	r3, [r5, #2]
		RPi_UART.transmitRequered = true;
 8003896:	2301      	movs	r3, #1
 8003898:	7023      	strb	r3, [r4, #0]
		HAL_GPIO_TogglePin(LED_R_GPIO_Port, LED_R_Pin);
 800389a:	2140      	movs	r1, #64	; 0x40
 800389c:	4814      	ldr	r0, [pc, #80]	; (80038f0 <RPiRXRoute+0x108>)
 800389e:	f7fe f854 	bl	800194a <HAL_GPIO_TogglePin>
		break;
 80038a2:	e7c6      	b.n	8003832 <RPiRXRoute+0x4a>
		tmp = round(adc.v[rpiframe.frame.address >> 8 & 0x0f] * 256.0);
 80038a4:	4a18      	ldr	r2, [pc, #96]	; (8003908 <RPiRXRoute+0x120>)
 80038a6:	f003 030f 	and.w	r3, r3, #15
 80038aa:	eb02 0383 	add.w	r3, r2, r3, lsl #2
 80038ae:	6c58      	ldr	r0, [r3, #68]	; 0x44
		tmp = round(temp.out * 256.0);
 80038b0:	f7fc fdba 	bl	8000428 <__aeabi_f2d>
 80038b4:	2200      	movs	r2, #0
 80038b6:	4b15      	ldr	r3, [pc, #84]	; (800390c <RPiRXRoute+0x124>)
 80038b8:	f7fc fe0a 	bl	80004d0 <__aeabi_dmul>
 80038bc:	f000 feba 	bl	8004634 <round>
 80038c0:	f7fd f818 	bl	80008f4 <__aeabi_d2iz>
 80038c4:	8068      	strh	r0, [r5, #2]
 80038c6:	e7ae      	b.n	8003826 <RPiRXRoute+0x3e>
		if (subaddress == 0)
 80038c8:	2b00      	cmp	r3, #0
 80038ca:	d1ac      	bne.n	8003826 <RPiRXRoute+0x3e>
			rpiframe.frame.data = ot.timeout;
 80038cc:	4b09      	ldr	r3, [pc, #36]	; (80038f4 <RPiRXRoute+0x10c>)
 80038ce:	f893 3068 	ldrb.w	r3, [r3, #104]	; 0x68
 80038d2:	e7d7      	b.n	8003884 <RPiRXRoute+0x9c>
		OTCommon.targetTemp = rpiframe.frame.data;
 80038d4:	886a      	ldrh	r2, [r5, #2]
 80038d6:	4b0e      	ldr	r3, [pc, #56]	; (8003910 <RPiRXRoute+0x128>)
 80038d8:	801a      	strh	r2, [r3, #0]
 80038da:	e7a4      	b.n	8003826 <RPiRXRoute+0x3e>
		tmp = round(temp.out * 256.0);
 80038dc:	4b0d      	ldr	r3, [pc, #52]	; (8003914 <RPiRXRoute+0x12c>)
 80038de:	6858      	ldr	r0, [r3, #4]
 80038e0:	e7e6      	b.n	80038b0 <RPiRXRoute+0xc8>
 80038e2:	bf00      	nop
 80038e4:	20000428 	.word	0x20000428
 80038e8:	08010004 	.word	0x08010004
 80038ec:	200000d4 	.word	0x200000d4
 80038f0:	40011000 	.word	0x40011000
 80038f4:	20000da0 	.word	0x20000da0
 80038f8:	2000042d 	.word	0x2000042d
 80038fc:	2000020c 	.word	0x2000020c
 8003900:	20000e5c 	.word	0x20000e5c
 8003904:	200004ac 	.word	0x200004ac
 8003908:	20000b80 	.word	0x20000b80
 800390c:	40700000 	.word	0x40700000
 8003910:	200001a8 	.word	0x200001a8
 8003914:	200003d8 	.word	0x200003d8

08003918 <HAL_TIM_PeriodElapsedCallback>:
 HAL_SPI_Receive_IT(&hspi2, RPi_SPI.rx_buff, 3);

 }
 }*/
void HAL_TIM_PeriodElapsedCallback(TIM_HandleTypeDef *htim) {
	if (htim->Instance == TIM4) //check if the interrupt comes from TIM4
 8003918:	6803      	ldr	r3, [r0, #0]
 800391a:	4a07      	ldr	r2, [pc, #28]	; (8003938 <HAL_TIM_PeriodElapsedCallback+0x20>)
 800391c:	4293      	cmp	r3, r2
 800391e:	d104      	bne.n	800392a <HAL_TIM_PeriodElapsedCallback+0x12>
	{
		micros++;
 8003920:	4a06      	ldr	r2, [pc, #24]	; (800393c <HAL_TIM_PeriodElapsedCallback+0x24>)
 8003922:	6813      	ldr	r3, [r2, #0]
 8003924:	3301      	adds	r3, #1
 8003926:	6013      	str	r3, [r2, #0]
 8003928:	4770      	bx	lr
	}
	if (htim->Instance == TIM2) //check if the interrupt comes from TIM1
 800392a:	f1b3 4f80 	cmp.w	r3, #1073741824	; 0x40000000
	{
		rised = true;
 800392e:	bf02      	ittt	eq
 8003930:	2201      	moveq	r2, #1
 8003932:	4b03      	ldreq	r3, [pc, #12]	; (8003940 <HAL_TIM_PeriodElapsedCallback+0x28>)
 8003934:	701a      	strbeq	r2, [r3, #0]
 8003936:	4770      	bx	lr
 8003938:	40000800 	.word	0x40000800
 800393c:	20000d04 	.word	0x20000d04
 8003940:	200000d2 	.word	0x200000d2

08003944 <HAL_TIM_IC_CaptureCallback>:
		//stateChanged=true;
		//readResponseInProgress = false;
	}
}
void HAL_TIM_IC_CaptureCallback(TIM_HandleTypeDef *htim) {
 8003944:	b5f8      	push	{r3, r4, r5, r6, r7, lr}
	if (htim->Instance == TIM2) //check if the interrupt comes from TIM1
 8003946:	6803      	ldr	r3, [r0, #0]
void HAL_TIM_IC_CaptureCallback(TIM_HandleTypeDef *htim) {
 8003948:	4605      	mov	r5, r0
	if (htim->Instance == TIM2) //check if the interrupt comes from TIM1
 800394a:	f1b3 4f80 	cmp.w	r3, #1073741824	; 0x40000000
 800394e:	d127      	bne.n	80039a0 <HAL_TIM_IC_CaptureCallback+0x5c>
	{
		if (htim->Channel == HAL_TIM_ACTIVE_CHANNEL_1) {
 8003950:	7f06      	ldrb	r6, [r0, #28]
 8003952:	4c14      	ldr	r4, [pc, #80]	; (80039a4 <HAL_TIM_IC_CaptureCallback+0x60>)
 8003954:	2e01      	cmp	r6, #1
 8003956:	d111      	bne.n	800397c <HAL_TIM_IC_CaptureCallback+0x38>
			risedCount = HAL_TIM_ReadCapturedValue(htim, TIM_CHANNEL_1); //TIM2->CCR1;
 8003958:	2100      	movs	r1, #0
 800395a:	f7fe fd10 	bl	800237e <HAL_TIM_ReadCapturedValue>
 800395e:	4b12      	ldr	r3, [pc, #72]	; (80039a8 <HAL_TIM_IC_CaptureCallback+0x64>)
			//HAL_GPIO_TogglePin(LED_R_GPIO_Port, LED_R_Pin);
			rised = true;
			//stateChanged = true;
			ttime[swIndex] = HAL_TIM_ReadCapturedValue(htim, TIM_CHANNEL_1);
 8003960:	2100      	movs	r1, #0
			risedCount = HAL_TIM_ReadCapturedValue(htim, TIM_CHANNEL_1); //TIM2->CCR1;
 8003962:	6018      	str	r0, [r3, #0]
			rised = true;
 8003964:	4b11      	ldr	r3, [pc, #68]	; (80039ac <HAL_TIM_IC_CaptureCallback+0x68>)
			ttime[swIndex] = HAL_TIM_ReadCapturedValue(htim, TIM_CHANNEL_1);
 8003966:	4628      	mov	r0, r5
			rised = true;
 8003968:	701e      	strb	r6, [r3, #0]
			ttime[swIndex] = HAL_TIM_ReadCapturedValue(htim, TIM_CHANNEL_1);
 800396a:	6827      	ldr	r7, [r4, #0]
 800396c:	f7fe fd07 	bl	800237e <HAL_TIM_ReadCapturedValue>
 8003970:	4b0f      	ldr	r3, [pc, #60]	; (80039b0 <HAL_TIM_IC_CaptureCallback+0x6c>)
			rf[swIndex] = 1;
 8003972:	4a10      	ldr	r2, [pc, #64]	; (80039b4 <HAL_TIM_IC_CaptureCallback+0x70>)
			ttime[swIndex] = HAL_TIM_ReadCapturedValue(htim, TIM_CHANNEL_1);
 8003974:	f843 0027 	str.w	r0, [r3, r7, lsl #2]
			rf[swIndex] = 1;
 8003978:	6823      	ldr	r3, [r4, #0]
 800397a:	54d6      	strb	r6, [r2, r3]
			//arrF[swIndex] = 0;
		}
		if (htim->Channel == HAL_TIM_ACTIVE_CHANNEL_2) {
 800397c:	7f2b      	ldrb	r3, [r5, #28]
 800397e:	2b02      	cmp	r3, #2
 8003980:	d10b      	bne.n	800399a <HAL_TIM_IC_CaptureCallback+0x56>
			//stateChanged = true;
			ttime[swIndex] = HAL_TIM_ReadCapturedValue(htim, TIM_CHANNEL_2);
 8003982:	2104      	movs	r1, #4
 8003984:	4628      	mov	r0, r5
 8003986:	6826      	ldr	r6, [r4, #0]
 8003988:	f7fe fcf9 	bl	800237e <HAL_TIM_ReadCapturedValue>
			rf[swIndex] = 0;
 800398c:	2100      	movs	r1, #0
			ttime[swIndex] = HAL_TIM_ReadCapturedValue(htim, TIM_CHANNEL_2);
 800398e:	4b08      	ldr	r3, [pc, #32]	; (80039b0 <HAL_TIM_IC_CaptureCallback+0x6c>)
			rf[swIndex] = 0;
 8003990:	4a08      	ldr	r2, [pc, #32]	; (80039b4 <HAL_TIM_IC_CaptureCallback+0x70>)
			ttime[swIndex] = HAL_TIM_ReadCapturedValue(htim, TIM_CHANNEL_2);
 8003992:	f843 0026 	str.w	r0, [r3, r6, lsl #2]
			rf[swIndex] = 0;
 8003996:	6823      	ldr	r3, [r4, #0]
 8003998:	54d1      	strb	r1, [r2, r3]
			//arrR[swIndex] = 0;
		}
		swIndex++;
 800399a:	6823      	ldr	r3, [r4, #0]
 800399c:	3301      	adds	r3, #1
 800399e:	6023      	str	r3, [r4, #0]
 80039a0:	bdf8      	pop	{r3, r4, r5, r6, r7, pc}
 80039a2:	bf00      	nop
 80039a4:	200000d8 	.word	0x200000d8
 80039a8:	20000b3c 	.word	0x20000b3c
 80039ac:	200000d2 	.word	0x200000d2
 80039b0:	20000c04 	.word	0x20000c04
 80039b4:	200000ed 	.word	0x200000ed

080039b8 <HAL_UART_RxCpltCallback>:
	}
}

void HAL_UART_RxCpltCallback(UART_HandleTypeDef *huart) {
	if (huart->Instance == USART3)
 80039b8:	6802      	ldr	r2, [r0, #0]
 80039ba:	4b08      	ldr	r3, [pc, #32]	; (80039dc <HAL_UART_RxCpltCallback+0x24>)
void HAL_UART_RxCpltCallback(UART_HandleTypeDef *huart) {
 80039bc:	b510      	push	{r4, lr}
	if (huart->Instance == USART3)
 80039be:	429a      	cmp	r2, r3
void HAL_UART_RxCpltCallback(UART_HandleTypeDef *huart) {
 80039c0:	4604      	mov	r4, r0
	if (huart->Instance == USART3)
 80039c2:	d101      	bne.n	80039c8 <HAL_UART_RxCpltCallback+0x10>
		RPiRXRoute();
 80039c4:	f7ff ff10 	bl	80037e8 <RPiRXRoute>
	if (huart->Instance == USART1)
 80039c8:	6822      	ldr	r2, [r4, #0]
 80039ca:	4b05      	ldr	r3, [pc, #20]	; (80039e0 <HAL_UART_RxCpltCallback+0x28>)
 80039cc:	429a      	cmp	r2, r3
 80039ce:	d103      	bne.n	80039d8 <HAL_UART_RxCpltCallback+0x20>
		checkUpdate();
}
 80039d0:	e8bd 4010 	ldmia.w	sp!, {r4, lr}
		checkUpdate();
 80039d4:	f7ff be1c 	b.w	8003610 <checkUpdate>
 80039d8:	bd10      	pop	{r4, pc}
 80039da:	bf00      	nop
 80039dc:	40004800 	.word	0x40004800
 80039e0:	40013800 	.word	0x40013800

080039e4 <HAL_SYSTICK_Callback>:
//void HAL_DMA

void HAL_SYSTICK_Callback(void) {
 80039e4:	b508      	push	{r3, lr}
//		  gprs.transmitRequered = true;
//		}
//	}
	//strstr( gprs.RX, "in" );
	//if(index>=0)
	checkAT();
 80039e6:	f7ff fe5d 	bl	80036a4 <checkAT>
	if (HAL_GetTick() % 5000 == 0)
 80039ea:	f7fd fa9b 	bl	8000f24 <HAL_GetTick>
 80039ee:	f241 3388 	movw	r3, #5000	; 0x1388
 80039f2:	fbb0 f2f3 	udiv	r2, r0, r3
 80039f6:	fb02 0013 	mls	r0, r2, r3, r0
 80039fa:	b908      	cbnz	r0, 8003a00 <HAL_SYSTICK_Callback+0x1c>
		OWTick();
 80039fc:	f7ff fc36 	bl	800326c <OWTick>
	if (HAL_GetTick() % 300 == 0 && ot.complete) {
 8003a00:	f7fd fa90 	bl	8000f24 <HAL_GetTick>
 8003a04:	f44f 7396 	mov.w	r3, #300	; 0x12c
 8003a08:	fbb0 f2f3 	udiv	r2, r0, r3
 8003a0c:	fb02 0013 	mls	r0, r2, r3, r0
 8003a10:	b938      	cbnz	r0, 8003a22 <HAL_SYSTICK_Callback+0x3e>
 8003a12:	4b04      	ldr	r3, [pc, #16]	; (8003a24 <HAL_SYSTICK_Callback+0x40>)
 8003a14:	f893 206a 	ldrb.w	r2, [r3, #106]	; 0x6a
 8003a18:	b11a      	cbz	r2, 8003a22 <HAL_SYSTICK_Callback+0x3e>
		ot.complete = false;
 8003a1a:	f883 006a 	strb.w	r0, [r3, #106]	; 0x6a
		ot.busy = false;
 8003a1e:	f883 0069 	strb.w	r0, [r3, #105]	; 0x69
 8003a22:	bd08      	pop	{r3, pc}
 8003a24:	20000da0 	.word	0x20000da0

08003a28 <SystemClock_Config>:
  RCC_PeriphCLKInitTypeDef PeriphClkInit;

    /**Initializes the CPU, AHB and APB busses clocks 
    */
  RCC_OscInitStruct.OscillatorType = RCC_OSCILLATORTYPE_HSI;
  RCC_OscInitStruct.HSIState = RCC_HSI_ON;
 8003a28:	2301      	movs	r3, #1
{
 8003a2a:	b510      	push	{r4, lr}
 8003a2c:	b094      	sub	sp, #80	; 0x50
  RCC_OscInitStruct.HSIState = RCC_HSI_ON;
 8003a2e:	930e      	str	r3, [sp, #56]	; 0x38
  RCC_OscInitStruct.HSICalibrationValue = 16;
 8003a30:	2310      	movs	r3, #16
 8003a32:	930f      	str	r3, [sp, #60]	; 0x3c
  RCC_OscInitStruct.PLL.PLLState = RCC_PLL_ON;
  RCC_OscInitStruct.PLL.PLLSource = RCC_PLLSOURCE_HSI_DIV2;
 8003a34:	2300      	movs	r3, #0
  RCC_OscInitStruct.OscillatorType = RCC_OSCILLATORTYPE_HSI;
 8003a36:	2402      	movs	r4, #2
  RCC_OscInitStruct.PLL.PLLSource = RCC_PLLSOURCE_HSI_DIV2;
 8003a38:	9312      	str	r3, [sp, #72]	; 0x48
  RCC_OscInitStruct.PLL.PLLMUL = RCC_PLL_MUL16;
 8003a3a:	f44f 1360 	mov.w	r3, #3670016	; 0x380000
  if (HAL_RCC_OscConfig(&RCC_OscInitStruct) != HAL_OK)
 8003a3e:	a80a      	add	r0, sp, #40	; 0x28
  RCC_OscInitStruct.OscillatorType = RCC_OSCILLATORTYPE_HSI;
 8003a40:	940a      	str	r4, [sp, #40]	; 0x28
  RCC_OscInitStruct.PLL.PLLState = RCC_PLL_ON;
 8003a42:	9411      	str	r4, [sp, #68]	; 0x44
  RCC_OscInitStruct.PLL.PLLMUL = RCC_PLL_MUL16;
 8003a44:	9313      	str	r3, [sp, #76]	; 0x4c
  if (HAL_RCC_OscConfig(&RCC_OscInitStruct) != HAL_OK)
 8003a46:	f7fe f805 	bl	8001a54 <HAL_RCC_OscConfig>
 8003a4a:	b100      	cbz	r0, 8003a4e <SystemClock_Config+0x26>
 8003a4c:	e7fe      	b.n	8003a4c <SystemClock_Config+0x24>
    _Error_Handler(__FILE__, __LINE__);
  }

    /**Initializes the CPU, AHB and APB busses clocks 
    */
  RCC_ClkInitStruct.ClockType = RCC_CLOCKTYPE_HCLK|RCC_CLOCKTYPE_SYSCLK
 8003a4e:	230f      	movs	r3, #15
 8003a50:	9305      	str	r3, [sp, #20]
                              |RCC_CLOCKTYPE_PCLK1|RCC_CLOCKTYPE_PCLK2;
  RCC_ClkInitStruct.SYSCLKSource = RCC_SYSCLKSOURCE_PLLCLK;
  RCC_ClkInitStruct.AHBCLKDivider = RCC_SYSCLK_DIV1;
  RCC_ClkInitStruct.APB1CLKDivider = RCC_HCLK_DIV2;
 8003a52:	f44f 6380 	mov.w	r3, #1024	; 0x400
  RCC_ClkInitStruct.AHBCLKDivider = RCC_SYSCLK_DIV1;
 8003a56:	9007      	str	r0, [sp, #28]
  RCC_ClkInitStruct.APB2CLKDivider = RCC_HCLK_DIV1;
 8003a58:	9009      	str	r0, [sp, #36]	; 0x24

  if (HAL_RCC_ClockConfig(&RCC_ClkInitStruct, FLASH_LATENCY_2) != HAL_OK)
 8003a5a:	4621      	mov	r1, r4
 8003a5c:	a805      	add	r0, sp, #20
  RCC_ClkInitStruct.SYSCLKSource = RCC_SYSCLKSOURCE_PLLCLK;
 8003a5e:	9406      	str	r4, [sp, #24]
  RCC_ClkInitStruct.APB1CLKDivider = RCC_HCLK_DIV2;
 8003a60:	9308      	str	r3, [sp, #32]
  if (HAL_RCC_ClockConfig(&RCC_ClkInitStruct, FLASH_LATENCY_2) != HAL_OK)
 8003a62:	f7fe f9bf 	bl	8001de4 <HAL_RCC_ClockConfig>
 8003a66:	b100      	cbz	r0, 8003a6a <SystemClock_Config+0x42>
 8003a68:	e7fe      	b.n	8003a68 <SystemClock_Config+0x40>
  {
    _Error_Handler(__FILE__, __LINE__);
  }

  PeriphClkInit.PeriphClockSelection = RCC_PERIPHCLK_ADC;
  PeriphClkInit.AdcClockSelection = RCC_ADCPCLK2_DIV6;
 8003a6a:	f44f 4300 	mov.w	r3, #32768	; 0x8000
  if (HAL_RCCEx_PeriphCLKConfig(&PeriphClkInit) != HAL_OK)
 8003a6e:	a801      	add	r0, sp, #4
  PeriphClkInit.PeriphClockSelection = RCC_PERIPHCLK_ADC;
 8003a70:	9401      	str	r4, [sp, #4]
  PeriphClkInit.AdcClockSelection = RCC_ADCPCLK2_DIV6;
 8003a72:	9303      	str	r3, [sp, #12]
  if (HAL_RCCEx_PeriphCLKConfig(&PeriphClkInit) != HAL_OK)
 8003a74:	f7fe fa80 	bl	8001f78 <HAL_RCCEx_PeriphCLKConfig>
 8003a78:	4604      	mov	r4, r0
 8003a7a:	b100      	cbz	r0, 8003a7e <SystemClock_Config+0x56>
 8003a7c:	e7fe      	b.n	8003a7c <SystemClock_Config+0x54>
    _Error_Handler(__FILE__, __LINE__);
  }

    /**Configure the Systick interrupt time 
    */
  HAL_SYSTICK_Config(HAL_RCC_GetHCLKFreq()/1000);
 8003a7e:	f7fe fa55 	bl	8001f2c <HAL_RCC_GetHCLKFreq>
 8003a82:	f44f 737a 	mov.w	r3, #1000	; 0x3e8
 8003a86:	fbb0 f0f3 	udiv	r0, r0, r3
 8003a8a:	f7fd fd05 	bl	8001498 <HAL_SYSTICK_Config>

    /**Configure the Systick 
    */
  HAL_SYSTICK_CLKSourceConfig(SYSTICK_CLKSOURCE_HCLK);
 8003a8e:	2004      	movs	r0, #4
 8003a90:	f7fd fd18 	bl	80014c4 <HAL_SYSTICK_CLKSourceConfig>

  /* SysTick_IRQn interrupt configuration */
  HAL_NVIC_SetPriority(SysTick_IRQn, 0, 0);
 8003a94:	4622      	mov	r2, r4
 8003a96:	4621      	mov	r1, r4
 8003a98:	f04f 30ff 	mov.w	r0, #4294967295
 8003a9c:	f7fd fcbc 	bl	8001418 <HAL_NVIC_SetPriority>
}
 8003aa0:	b014      	add	sp, #80	; 0x50
 8003aa2:	bd10      	pop	{r4, pc}

08003aa4 <main>:
{
 8003aa4:	b500      	push	{lr}
{

  GPIO_InitTypeDef GPIO_InitStruct;

  /* GPIO Ports Clock Enable */
  __HAL_RCC_GPIOC_CLK_ENABLE();
 8003aa6:	4c9a      	ldr	r4, [pc, #616]	; (8003d10 <main+0x26c>)
{
 8003aa8:	b091      	sub	sp, #68	; 0x44
  HAL_Init();
 8003aaa:	f7fd fa1d 	bl	8000ee8 <HAL_Init>
  SystemClock_Config();
 8003aae:	f7ff ffbb 	bl	8003a28 <SystemClock_Config>
  __HAL_RCC_GPIOC_CLK_ENABLE();
 8003ab2:	69a3      	ldr	r3, [r4, #24]
  __HAL_RCC_GPIOA_CLK_ENABLE();
  __HAL_RCC_GPIOB_CLK_ENABLE();
  __HAL_RCC_GPIOD_CLK_ENABLE();

  /*Configure GPIO pin Output Level */
  HAL_GPIO_WritePin(LED_R_GPIO_Port, LED_R_Pin, GPIO_PIN_RESET);
 8003ab4:	2200      	movs	r2, #0
  __HAL_RCC_GPIOC_CLK_ENABLE();
 8003ab6:	f043 0310 	orr.w	r3, r3, #16
 8003aba:	61a3      	str	r3, [r4, #24]
 8003abc:	69a3      	ldr	r3, [r4, #24]
  HAL_GPIO_WritePin(LED_R_GPIO_Port, LED_R_Pin, GPIO_PIN_RESET);
 8003abe:	2140      	movs	r1, #64	; 0x40
  __HAL_RCC_GPIOC_CLK_ENABLE();
 8003ac0:	f003 0310 	and.w	r3, r3, #16
 8003ac4:	9302      	str	r3, [sp, #8]
 8003ac6:	9b02      	ldr	r3, [sp, #8]
  __HAL_RCC_GPIOA_CLK_ENABLE();
 8003ac8:	69a3      	ldr	r3, [r4, #24]
  HAL_GPIO_WritePin(LED_R_GPIO_Port, LED_R_Pin, GPIO_PIN_RESET);
 8003aca:	4892      	ldr	r0, [pc, #584]	; (8003d14 <main+0x270>)
  __HAL_RCC_GPIOA_CLK_ENABLE();
 8003acc:	f043 0304 	orr.w	r3, r3, #4
 8003ad0:	61a3      	str	r3, [r4, #24]
 8003ad2:	69a3      	ldr	r3, [r4, #24]
  /*Configure GPIO pin Output Level */
  HAL_GPIO_WritePin(NSS1_GPIO_Port, NSS1_Pin, GPIO_PIN_RESET);

  /*Configure GPIO pin : LED_R_Pin */
  GPIO_InitStruct.Pin = LED_R_Pin;
  GPIO_InitStruct.Mode = GPIO_MODE_OUTPUT_PP;
 8003ad4:	2501      	movs	r5, #1
  __HAL_RCC_GPIOA_CLK_ENABLE();
 8003ad6:	f003 0304 	and.w	r3, r3, #4
 8003ada:	9303      	str	r3, [sp, #12]
 8003adc:	9b03      	ldr	r3, [sp, #12]
  __HAL_RCC_GPIOB_CLK_ENABLE();
 8003ade:	69a3      	ldr	r3, [r4, #24]
  GPIO_InitStruct.Speed = GPIO_SPEED_FREQ_LOW;
 8003ae0:	2602      	movs	r6, #2
  __HAL_RCC_GPIOB_CLK_ENABLE();
 8003ae2:	f043 0308 	orr.w	r3, r3, #8
 8003ae6:	61a3      	str	r3, [r4, #24]
 8003ae8:	69a3      	ldr	r3, [r4, #24]
 8003aea:	f003 0308 	and.w	r3, r3, #8
 8003aee:	9304      	str	r3, [sp, #16]
 8003af0:	9b04      	ldr	r3, [sp, #16]
  __HAL_RCC_GPIOD_CLK_ENABLE();
 8003af2:	69a3      	ldr	r3, [r4, #24]
 8003af4:	f043 0320 	orr.w	r3, r3, #32
 8003af8:	61a3      	str	r3, [r4, #24]
 8003afa:	69a3      	ldr	r3, [r4, #24]
 8003afc:	f003 0320 	and.w	r3, r3, #32
 8003b00:	9305      	str	r3, [sp, #20]
 8003b02:	9b05      	ldr	r3, [sp, #20]
  HAL_GPIO_WritePin(LED_R_GPIO_Port, LED_R_Pin, GPIO_PIN_RESET);
 8003b04:	f7fd ff1c 	bl	8001940 <HAL_GPIO_WritePin>
  HAL_GPIO_WritePin(OT_RXO_GPIO_Port, OT_RXO_Pin, GPIO_PIN_RESET);
 8003b08:	2200      	movs	r2, #0
 8003b0a:	f44f 7180 	mov.w	r1, #256	; 0x100
 8003b0e:	4882      	ldr	r0, [pc, #520]	; (8003d18 <main+0x274>)
 8003b10:	f7fd ff16 	bl	8001940 <HAL_GPIO_WritePin>
  HAL_GPIO_WritePin(NSS1_GPIO_Port, NSS1_Pin, GPIO_PIN_RESET);
 8003b14:	2200      	movs	r2, #0
 8003b16:	2104      	movs	r1, #4
 8003b18:	4880      	ldr	r0, [pc, #512]	; (8003d1c <main+0x278>)
 8003b1a:	f7fd ff11 	bl	8001940 <HAL_GPIO_WritePin>
  GPIO_InitStruct.Pin = LED_R_Pin;
 8003b1e:	2340      	movs	r3, #64	; 0x40
  HAL_GPIO_Init(LED_R_GPIO_Port, &GPIO_InitStruct);
 8003b20:	a90c      	add	r1, sp, #48	; 0x30
 8003b22:	487c      	ldr	r0, [pc, #496]	; (8003d14 <main+0x270>)
  GPIO_InitStruct.Pin = LED_R_Pin;
 8003b24:	930c      	str	r3, [sp, #48]	; 0x30
  GPIO_InitStruct.Mode = GPIO_MODE_OUTPUT_PP;
 8003b26:	950d      	str	r5, [sp, #52]	; 0x34
  GPIO_InitStruct.Speed = GPIO_SPEED_FREQ_LOW;
 8003b28:	960f      	str	r6, [sp, #60]	; 0x3c
  HAL_GPIO_Init(LED_R_GPIO_Port, &GPIO_InitStruct);
 8003b2a:	f7fd fe29 	bl	8001780 <HAL_GPIO_Init>

  /*Configure GPIO pin : OT_RXO_Pin */
  GPIO_InitStruct.Pin = OT_RXO_Pin;
 8003b2e:	f44f 7380 	mov.w	r3, #256	; 0x100
  GPIO_InitStruct.Mode = GPIO_MODE_OUTPUT_PP;
  GPIO_InitStruct.Speed = GPIO_SPEED_FREQ_LOW;
  HAL_GPIO_Init(OT_RXO_GPIO_Port, &GPIO_InitStruct);
 8003b32:	a90c      	add	r1, sp, #48	; 0x30
 8003b34:	4878      	ldr	r0, [pc, #480]	; (8003d18 <main+0x274>)
  GPIO_InitStruct.Pin = OT_RXO_Pin;
 8003b36:	930c      	str	r3, [sp, #48]	; 0x30
  GPIO_InitStruct.Mode = GPIO_MODE_OUTPUT_PP;
 8003b38:	950d      	str	r5, [sp, #52]	; 0x34
  GPIO_InitStruct.Speed = GPIO_SPEED_FREQ_LOW;
 8003b3a:	960f      	str	r6, [sp, #60]	; 0x3c
  HAL_GPIO_Init(OT_RXO_GPIO_Port, &GPIO_InitStruct);
 8003b3c:	f7fd fe20 	bl	8001780 <HAL_GPIO_Init>

  /*Configure GPIO pin : NSS1_Pin */
  GPIO_InitStruct.Pin = NSS1_Pin;
 8003b40:	2304      	movs	r3, #4
  GPIO_InitStruct.Mode = GPIO_MODE_OUTPUT_PP;
  GPIO_InitStruct.Speed = GPIO_SPEED_FREQ_LOW;
  HAL_GPIO_Init(NSS1_GPIO_Port, &GPIO_InitStruct);
 8003b42:	a90c      	add	r1, sp, #48	; 0x30
 8003b44:	4875      	ldr	r0, [pc, #468]	; (8003d1c <main+0x278>)
  GPIO_InitStruct.Pin = NSS1_Pin;
 8003b46:	930c      	str	r3, [sp, #48]	; 0x30
  GPIO_InitStruct.Mode = GPIO_MODE_OUTPUT_PP;
 8003b48:	950d      	str	r5, [sp, #52]	; 0x34
  GPIO_InitStruct.Speed = GPIO_SPEED_FREQ_LOW;
 8003b4a:	960f      	str	r6, [sp, #60]	; 0x3c
  HAL_GPIO_Init(NSS1_GPIO_Port, &GPIO_InitStruct);
 8003b4c:	f7fd fe18 	bl	8001780 <HAL_GPIO_Init>
  HAL_NVIC_SetPriority(DMA1_Channel2_IRQn, 0, 0);
 8003b50:	2200      	movs	r2, #0
  __HAL_RCC_DMA1_CLK_ENABLE();
 8003b52:	6963      	ldr	r3, [r4, #20]
  HAL_NVIC_SetPriority(DMA1_Channel2_IRQn, 0, 0);
 8003b54:	4611      	mov	r1, r2
  __HAL_RCC_DMA1_CLK_ENABLE();
 8003b56:	432b      	orrs	r3, r5
 8003b58:	6163      	str	r3, [r4, #20]
 8003b5a:	6963      	ldr	r3, [r4, #20]
  HAL_NVIC_SetPriority(DMA1_Channel2_IRQn, 0, 0);
 8003b5c:	200c      	movs	r0, #12
  __HAL_RCC_DMA1_CLK_ENABLE();
 8003b5e:	402b      	ands	r3, r5
 8003b60:	9301      	str	r3, [sp, #4]
 8003b62:	9b01      	ldr	r3, [sp, #4]
  HAL_NVIC_SetPriority(DMA1_Channel2_IRQn, 0, 0);
 8003b64:	f7fd fc58 	bl	8001418 <HAL_NVIC_SetPriority>
  HAL_NVIC_EnableIRQ(DMA1_Channel2_IRQn);
 8003b68:	200c      	movs	r0, #12
 8003b6a:	f7fd fc89 	bl	8001480 <HAL_NVIC_EnableIRQ>
  HAL_NVIC_SetPriority(DMA1_Channel4_IRQn, 0, 0);
 8003b6e:	2200      	movs	r2, #0
 8003b70:	200e      	movs	r0, #14
 8003b72:	4611      	mov	r1, r2
 8003b74:	f7fd fc50 	bl	8001418 <HAL_NVIC_SetPriority>
  HAL_NVIC_EnableIRQ(DMA1_Channel4_IRQn);
 8003b78:	200e      	movs	r0, #14
 8003b7a:	f7fd fc81 	bl	8001480 <HAL_NVIC_EnableIRQ>
  HAL_NVIC_SetPriority(DMA1_Channel5_IRQn, 0, 0);
 8003b7e:	2200      	movs	r2, #0
 8003b80:	200f      	movs	r0, #15
 8003b82:	4611      	mov	r1, r2
 8003b84:	f7fd fc48 	bl	8001418 <HAL_NVIC_SetPriority>
  HAL_NVIC_EnableIRQ(DMA1_Channel5_IRQn);
 8003b88:	200f      	movs	r0, #15
 8003b8a:	f7fd fc79 	bl	8001480 <HAL_NVIC_EnableIRQ>
  hadc1.Instance = ADC1;
 8003b8e:	4c64      	ldr	r4, [pc, #400]	; (8003d20 <main+0x27c>)
 8003b90:	4b64      	ldr	r3, [pc, #400]	; (8003d24 <main+0x280>)
  hadc1.Init.ExternalTrigConv = ADC_SOFTWARE_START;
 8003b92:	f44f 2260 	mov.w	r2, #917504	; 0xe0000
  hadc1.Instance = ADC1;
 8003b96:	6023      	str	r3, [r4, #0]
  hadc1.Init.ScanConvMode = ADC_SCAN_DISABLE;
 8003b98:	2300      	movs	r3, #0
  if (HAL_ADC_Init(&hadc1) != HAL_OK)
 8003b9a:	4620      	mov	r0, r4
  hadc1.Init.ScanConvMode = ADC_SCAN_DISABLE;
 8003b9c:	60a3      	str	r3, [r4, #8]
  hadc1.Init.ContinuousConvMode = DISABLE;
 8003b9e:	60e3      	str	r3, [r4, #12]
  hadc1.Init.DiscontinuousConvMode = DISABLE;
 8003ba0:	6163      	str	r3, [r4, #20]
  hadc1.Init.ExternalTrigConv = ADC_SOFTWARE_START;
 8003ba2:	61e2      	str	r2, [r4, #28]
  hadc1.Init.DataAlign = ADC_DATAALIGN_RIGHT;
 8003ba4:	6063      	str	r3, [r4, #4]
  hadc1.Init.NbrOfConversion = 1;
 8003ba6:	6125      	str	r5, [r4, #16]
  if (HAL_ADC_Init(&hadc1) != HAL_OK)
 8003ba8:	f7fd fb18 	bl	80011dc <HAL_ADC_Init>
 8003bac:	b100      	cbz	r0, 8003bb0 <main+0x10c>
 8003bae:	e7fe      	b.n	8003bae <main+0x10a>
  sConfig.Channel = ADC_CHANNEL_0;
 8003bb0:	900c      	str	r0, [sp, #48]	; 0x30
  sConfig.SamplingTime = ADC_SAMPLETIME_1CYCLE_5;
 8003bb2:	900e      	str	r0, [sp, #56]	; 0x38
  if (HAL_ADC_ConfigChannel(&hadc1, &sConfig) != HAL_OK)
 8003bb4:	a90c      	add	r1, sp, #48	; 0x30
 8003bb6:	4620      	mov	r0, r4
  sConfig.Rank = ADC_REGULAR_RANK_1;
 8003bb8:	950d      	str	r5, [sp, #52]	; 0x34
  if (HAL_ADC_ConfigChannel(&hadc1, &sConfig) != HAL_OK)
 8003bba:	f7fd f9cf 	bl	8000f5c <HAL_ADC_ConfigChannel>
 8003bbe:	b100      	cbz	r0, 8003bc2 <main+0x11e>
 8003bc0:	e7fe      	b.n	8003bc0 <main+0x11c>
  hcan.Init.Prescaler = 16;
 8003bc2:	2610      	movs	r6, #16
  hcan.Instance = CAN1;
 8003bc4:	4b58      	ldr	r3, [pc, #352]	; (8003d28 <main+0x284>)
  hcan.Init.Prescaler = 16;
 8003bc6:	4a59      	ldr	r2, [pc, #356]	; (8003d2c <main+0x288>)
  hcan.Init.Mode = CAN_MODE_NORMAL;
 8003bc8:	6098      	str	r0, [r3, #8]
  hcan.Init.SJW = CAN_SJW_1TQ;
 8003bca:	60d8      	str	r0, [r3, #12]
  hcan.Init.BS1 = CAN_BS1_1TQ;
 8003bcc:	6118      	str	r0, [r3, #16]
  hcan.Init.BS2 = CAN_BS2_1TQ;
 8003bce:	6158      	str	r0, [r3, #20]
  hcan.Init.TTCM = DISABLE;
 8003bd0:	6198      	str	r0, [r3, #24]
  hcan.Init.ABOM = DISABLE;
 8003bd2:	61d8      	str	r0, [r3, #28]
  hcan.Init.AWUM = DISABLE;
 8003bd4:	6218      	str	r0, [r3, #32]
  hcan.Init.NART = DISABLE;
 8003bd6:	6258      	str	r0, [r3, #36]	; 0x24
  hcan.Init.RFLM = DISABLE;
 8003bd8:	6298      	str	r0, [r3, #40]	; 0x28
  hcan.Init.TXFP = DISABLE;
 8003bda:	62d8      	str	r0, [r3, #44]	; 0x2c
  if (HAL_CAN_Init(&hcan) != HAL_OK)
 8003bdc:	4618      	mov	r0, r3
  hcan.Init.Prescaler = 16;
 8003bde:	e883 0044 	stmia.w	r3, {r2, r6}
  if (HAL_CAN_Init(&hcan) != HAL_OK)
 8003be2:	f7fd fb7b 	bl	80012dc <HAL_CAN_Init>
 8003be6:	b100      	cbz	r0, 8003bea <main+0x146>
 8003be8:	e7fe      	b.n	8003be8 <main+0x144>
  hi2c1.Instance = I2C1;
 8003bea:	4b51      	ldr	r3, [pc, #324]	; (8003d30 <main+0x28c>)
  hi2c1.Init.ClockSpeed = 100000;
 8003bec:	4a51      	ldr	r2, [pc, #324]	; (8003d34 <main+0x290>)
 8003bee:	4d52      	ldr	r5, [pc, #328]	; (8003d38 <main+0x294>)
  hi2c1.Init.DutyCycle = I2C_DUTYCYCLE_2;
 8003bf0:	6098      	str	r0, [r3, #8]
  hi2c1.Init.ClockSpeed = 100000;
 8003bf2:	e883 0024 	stmia.w	r3, {r2, r5}
  hi2c1.Init.AddressingMode = I2C_ADDRESSINGMODE_7BIT;
 8003bf6:	f44f 4280 	mov.w	r2, #16384	; 0x4000
  hi2c1.Init.OwnAddress1 = 0;
 8003bfa:	60d8      	str	r0, [r3, #12]
  hi2c1.Init.DualAddressMode = I2C_DUALADDRESS_DISABLE;
 8003bfc:	6158      	str	r0, [r3, #20]
  hi2c1.Init.OwnAddress2 = 0;
 8003bfe:	6198      	str	r0, [r3, #24]
  hi2c1.Init.GeneralCallMode = I2C_GENERALCALL_DISABLE;
 8003c00:	61d8      	str	r0, [r3, #28]
  hi2c1.Init.NoStretchMode = I2C_NOSTRETCH_DISABLE;
 8003c02:	6218      	str	r0, [r3, #32]
  if (HAL_I2C_Init(&hi2c1) != HAL_OK)
 8003c04:	4618      	mov	r0, r3
  hi2c1.Init.AddressingMode = I2C_ADDRESSINGMODE_7BIT;
 8003c06:	611a      	str	r2, [r3, #16]
  if (HAL_I2C_Init(&hi2c1) != HAL_OK)
 8003c08:	f7fd fea4 	bl	8001954 <HAL_I2C_Init>
 8003c0c:	b100      	cbz	r0, 8003c10 <main+0x16c>
 8003c0e:	e7fe      	b.n	8003c0e <main+0x16a>
  hspi1.Init.Mode = SPI_MODE_MASTER;
 8003c10:	f44f 7482 	mov.w	r4, #260	; 0x104
  hspi1.Instance = SPI1;
 8003c14:	4b49      	ldr	r3, [pc, #292]	; (8003d3c <main+0x298>)
  hspi1.Init.Mode = SPI_MODE_MASTER;
 8003c16:	4a4a      	ldr	r2, [pc, #296]	; (8003d40 <main+0x29c>)
  hspi1.Init.CRCPolynomial = 10;
 8003c18:	250a      	movs	r5, #10
  hspi1.Init.Mode = SPI_MODE_MASTER;
 8003c1a:	e883 0014 	stmia.w	r3, {r2, r4}
  hspi1.Init.NSS = SPI_NSS_SOFT;
 8003c1e:	f44f 7200 	mov.w	r2, #512	; 0x200
 8003c22:	619a      	str	r2, [r3, #24]
  hspi1.Init.BaudRatePrescaler = SPI_BAUDRATEPRESCALER_64;
 8003c24:	2228      	movs	r2, #40	; 0x28
  hspi1.Init.Direction = SPI_DIRECTION_2LINES;
 8003c26:	6098      	str	r0, [r3, #8]
  hspi1.Init.DataSize = SPI_DATASIZE_8BIT;
 8003c28:	60d8      	str	r0, [r3, #12]
  hspi1.Init.CLKPolarity = SPI_POLARITY_LOW;
 8003c2a:	6118      	str	r0, [r3, #16]
  hspi1.Init.CLKPhase = SPI_PHASE_1EDGE;
 8003c2c:	6158      	str	r0, [r3, #20]
  hspi1.Init.FirstBit = SPI_FIRSTBIT_MSB;
 8003c2e:	6218      	str	r0, [r3, #32]
  hspi1.Init.TIMode = SPI_TIMODE_DISABLE;
 8003c30:	6258      	str	r0, [r3, #36]	; 0x24
  hspi1.Init.CRCCalculation = SPI_CRCCALCULATION_DISABLE;
 8003c32:	6298      	str	r0, [r3, #40]	; 0x28
  if (HAL_SPI_Init(&hspi1) != HAL_OK)
 8003c34:	4618      	mov	r0, r3
  hspi1.Init.BaudRatePrescaler = SPI_BAUDRATEPRESCALER_64;
 8003c36:	61da      	str	r2, [r3, #28]
  hspi1.Init.CRCPolynomial = 10;
 8003c38:	62dd      	str	r5, [r3, #44]	; 0x2c
  if (HAL_SPI_Init(&hspi1) != HAL_OK)
 8003c3a:	f7fe fa87 	bl	800214c <HAL_SPI_Init>
 8003c3e:	b100      	cbz	r0, 8003c42 <main+0x19e>
 8003c40:	e7fe      	b.n	8003c40 <main+0x19c>
  hspi2.Init.BaudRatePrescaler = SPI_BAUDRATEPRESCALER_32;
 8003c42:	2420      	movs	r4, #32
  hspi2.Instance = SPI2;
 8003c44:	4b3f      	ldr	r3, [pc, #252]	; (8003d44 <main+0x2a0>)
 8003c46:	4a40      	ldr	r2, [pc, #256]	; (8003d48 <main+0x2a4>)
  hspi2.Init.Mode = SPI_MODE_SLAVE;
 8003c48:	6058      	str	r0, [r3, #4]
  hspi2.Init.Direction = SPI_DIRECTION_2LINES;
 8003c4a:	6098      	str	r0, [r3, #8]
  hspi2.Init.DataSize = SPI_DATASIZE_8BIT;
 8003c4c:	60d8      	str	r0, [r3, #12]
  hspi2.Init.CLKPolarity = SPI_POLARITY_LOW;
 8003c4e:	6118      	str	r0, [r3, #16]
  hspi2.Init.CLKPhase = SPI_PHASE_1EDGE;
 8003c50:	6158      	str	r0, [r3, #20]
  hspi2.Init.NSS = SPI_NSS_HARD_INPUT;
 8003c52:	6198      	str	r0, [r3, #24]
  hspi2.Init.FirstBit = SPI_FIRSTBIT_MSB;
 8003c54:	6218      	str	r0, [r3, #32]
  hspi2.Init.TIMode = SPI_TIMODE_DISABLE;
 8003c56:	6258      	str	r0, [r3, #36]	; 0x24
  hspi2.Init.CRCCalculation = SPI_CRCCALCULATION_DISABLE;
 8003c58:	6298      	str	r0, [r3, #40]	; 0x28
  if (HAL_SPI_Init(&hspi2) != HAL_OK)
 8003c5a:	4618      	mov	r0, r3
  hspi2.Instance = SPI2;
 8003c5c:	601a      	str	r2, [r3, #0]
  hspi2.Init.BaudRatePrescaler = SPI_BAUDRATEPRESCALER_32;
 8003c5e:	61dc      	str	r4, [r3, #28]
  hspi2.Init.CRCPolynomial = 10;
 8003c60:	62dd      	str	r5, [r3, #44]	; 0x2c
  if (HAL_SPI_Init(&hspi2) != HAL_OK)
 8003c62:	f7fe fa73 	bl	800214c <HAL_SPI_Init>
 8003c66:	b100      	cbz	r0, 8003c6a <main+0x1c6>
 8003c68:	e7fe      	b.n	8003c68 <main+0x1c4>
  huart1.Init.BaudRate = 9600;
 8003c6a:	f44f 5216 	mov.w	r2, #9600	; 0x2580
  huart1.Init.Mode = UART_MODE_TX_RX;
 8003c6e:	250c      	movs	r5, #12
  huart1.Instance = USART1;
 8003c70:	4b36      	ldr	r3, [pc, #216]	; (8003d4c <main+0x2a8>)
  huart1.Init.BaudRate = 9600;
 8003c72:	4937      	ldr	r1, [pc, #220]	; (8003d50 <main+0x2ac>)
  huart1.Init.WordLength = UART_WORDLENGTH_8B;
 8003c74:	6098      	str	r0, [r3, #8]
  huart1.Init.StopBits = UART_STOPBITS_1;
 8003c76:	60d8      	str	r0, [r3, #12]
  huart1.Init.Parity = UART_PARITY_NONE;
 8003c78:	6118      	str	r0, [r3, #16]
  huart1.Init.HwFlowCtl = UART_HWCONTROL_NONE;
 8003c7a:	6198      	str	r0, [r3, #24]
  huart1.Init.OverSampling = UART_OVERSAMPLING_16;
 8003c7c:	61d8      	str	r0, [r3, #28]
  if (HAL_UART_Init(&huart1) != HAL_OK)
 8003c7e:	4618      	mov	r0, r3
  huart1.Init.BaudRate = 9600;
 8003c80:	e883 0006 	stmia.w	r3, {r1, r2}
  huart1.Init.Mode = UART_MODE_TX_RX;
 8003c84:	615d      	str	r5, [r3, #20]
  if (HAL_UART_Init(&huart1) != HAL_OK)
 8003c86:	f7fe fec7 	bl	8002a18 <HAL_UART_Init>
 8003c8a:	b100      	cbz	r0, 8003c8e <main+0x1ea>
 8003c8c:	e7fe      	b.n	8003c8c <main+0x1e8>
  huart2.Init.BaudRate = 115200;
 8003c8e:	f44f 36e1 	mov.w	r6, #115200	; 0x1c200
  huart2.Instance = USART2;
 8003c92:	4b30      	ldr	r3, [pc, #192]	; (8003d54 <main+0x2b0>)
  huart2.Init.BaudRate = 115200;
 8003c94:	4a30      	ldr	r2, [pc, #192]	; (8003d58 <main+0x2b4>)
  huart2.Init.WordLength = UART_WORDLENGTH_8B;
 8003c96:	6098      	str	r0, [r3, #8]
  huart2.Init.StopBits = UART_STOPBITS_1;
 8003c98:	60d8      	str	r0, [r3, #12]
  huart2.Init.Parity = UART_PARITY_NONE;
 8003c9a:	6118      	str	r0, [r3, #16]
  huart2.Init.HwFlowCtl = UART_HWCONTROL_NONE;
 8003c9c:	6198      	str	r0, [r3, #24]
  huart2.Init.OverSampling = UART_OVERSAMPLING_16;
 8003c9e:	61d8      	str	r0, [r3, #28]
  if (HAL_UART_Init(&huart2) != HAL_OK)
 8003ca0:	4618      	mov	r0, r3
  huart2.Init.BaudRate = 115200;
 8003ca2:	e883 0044 	stmia.w	r3, {r2, r6}
  huart2.Init.Mode = UART_MODE_TX_RX;
 8003ca6:	615d      	str	r5, [r3, #20]
  if (HAL_UART_Init(&huart2) != HAL_OK)
 8003ca8:	f7fe feb6 	bl	8002a18 <HAL_UART_Init>
 8003cac:	b100      	cbz	r0, 8003cb0 <main+0x20c>
 8003cae:	e7fe      	b.n	8003cae <main+0x20a>
  huart3.Instance = USART3;
 8003cb0:	4b2a      	ldr	r3, [pc, #168]	; (8003d5c <main+0x2b8>)
 8003cb2:	4a2b      	ldr	r2, [pc, #172]	; (8003d60 <main+0x2bc>)
  huart3.Init.WordLength = UART_WORDLENGTH_8B;
 8003cb4:	6098      	str	r0, [r3, #8]
  huart3.Init.StopBits = UART_STOPBITS_1;
 8003cb6:	60d8      	str	r0, [r3, #12]
  huart3.Init.Parity = UART_PARITY_NONE;
 8003cb8:	6118      	str	r0, [r3, #16]
  huart3.Init.HwFlowCtl = UART_HWCONTROL_NONE;
 8003cba:	6198      	str	r0, [r3, #24]
  huart3.Init.OverSampling = UART_OVERSAMPLING_16;
 8003cbc:	61d8      	str	r0, [r3, #28]
  if (HAL_UART_Init(&huart3) != HAL_OK)
 8003cbe:	4618      	mov	r0, r3
  huart3.Init.BaudRate = 115200;
 8003cc0:	e883 0044 	stmia.w	r3, {r2, r6}
  huart3.Init.Mode = UART_MODE_TX_RX;
 8003cc4:	615d      	str	r5, [r3, #20]
  if (HAL_UART_Init(&huart3) != HAL_OK)
 8003cc6:	f7fe fea7 	bl	8002a18 <HAL_UART_Init>
 8003cca:	b100      	cbz	r0, 8003cce <main+0x22a>
 8003ccc:	e7fe      	b.n	8003ccc <main+0x228>
  htim4.Instance = TIM4;
 8003cce:	4b25      	ldr	r3, [pc, #148]	; (8003d64 <main+0x2c0>)
 8003cd0:	4a25      	ldr	r2, [pc, #148]	; (8003d68 <main+0x2c4>)
  htim4.Init.CounterMode = TIM_COUNTERMODE_UP;
 8003cd2:	6098      	str	r0, [r3, #8]
  htim4.Init.Prescaler = 32;
 8003cd4:	e883 0014 	stmia.w	r3, {r2, r4}
  htim4.Init.Period = 65000;
 8003cd8:	f64f 52e8 	movw	r2, #65000	; 0xfde8
  htim4.Init.ClockDivision = TIM_CLOCKDIVISION_DIV1;
 8003cdc:	6118      	str	r0, [r3, #16]
  htim4.Init.AutoReloadPreload = TIM_AUTORELOAD_PRELOAD_DISABLE;
 8003cde:	6198      	str	r0, [r3, #24]
  if (HAL_TIM_Base_Init(&htim4) != HAL_OK)
 8003ce0:	4618      	mov	r0, r3
  htim4.Init.Period = 65000;
 8003ce2:	60da      	str	r2, [r3, #12]
  if (HAL_TIM_Base_Init(&htim4) != HAL_OK)
 8003ce4:	f7fe fc4c 	bl	8002580 <HAL_TIM_Base_Init>
 8003ce8:	b100      	cbz	r0, 8003cec <main+0x248>
 8003cea:	e7fe      	b.n	8003cea <main+0x246>
  sClockSourceConfig.ClockSource = TIM_CLOCKSOURCE_INTERNAL;
 8003cec:	f44f 5580 	mov.w	r5, #4096	; 0x1000
  if (HAL_TIM_ConfigClockSource(&htim4, &sClockSourceConfig) != HAL_OK)
 8003cf0:	a90c      	add	r1, sp, #48	; 0x30
 8003cf2:	481c      	ldr	r0, [pc, #112]	; (8003d64 <main+0x2c0>)
  sClockSourceConfig.ClockSource = TIM_CLOCKSOURCE_INTERNAL;
 8003cf4:	950c      	str	r5, [sp, #48]	; 0x30
  if (HAL_TIM_ConfigClockSource(&htim4, &sClockSourceConfig) != HAL_OK)
 8003cf6:	f7fe fa89 	bl	800220c <HAL_TIM_ConfigClockSource>
 8003cfa:	b100      	cbz	r0, 8003cfe <main+0x25a>
 8003cfc:	e7fe      	b.n	8003cfc <main+0x258>
  sMasterConfig.MasterOutputTrigger = TIM_TRGO_RESET;
 8003cfe:	9008      	str	r0, [sp, #32]
  sMasterConfig.MasterSlaveMode = TIM_MASTERSLAVEMODE_DISABLE;
 8003d00:	9009      	str	r0, [sp, #36]	; 0x24
  if (HAL_TIMEx_MasterConfigSynchronization(&htim4, &sMasterConfig) != HAL_OK)
 8003d02:	a908      	add	r1, sp, #32
 8003d04:	4817      	ldr	r0, [pc, #92]	; (8003d64 <main+0x2c0>)
 8003d06:	f7fe fd8f 	bl	8002828 <HAL_TIMEx_MasterConfigSynchronization>
 8003d0a:	b378      	cbz	r0, 8003d6c <main+0x2c8>
 8003d0c:	e7fe      	b.n	8003d0c <main+0x268>
 8003d0e:	bf00      	nop
 8003d10:	40021000 	.word	0x40021000
 8003d14:	40011000 	.word	0x40011000
 8003d18:	40010800 	.word	0x40010800
 8003d1c:	40011400 	.word	0x40011400
 8003d20:	2000047c 	.word	0x2000047c
 8003d24:	40012400 	.word	0x40012400
 8003d28:	20000394 	.word	0x20000394
 8003d2c:	40006400 	.word	0x40006400
 8003d30:	2000024c 	.word	0x2000024c
 8003d34:	40005400 	.word	0x40005400
 8003d38:	000186a0 	.word	0x000186a0
 8003d3c:	20000d08 	.word	0x20000d08
 8003d40:	40013000 	.word	0x40013000
 8003d44:	20000150 	.word	0x20000150
 8003d48:	40003800 	.word	0x40003800
 8003d4c:	20000b40 	.word	0x20000b40
 8003d50:	40013800 	.word	0x40013800
 8003d54:	20000e10 	.word	0x20000e10
 8003d58:	40004400 	.word	0x40004400
 8003d5c:	2000020c 	.word	0x2000020c
 8003d60:	40004800 	.word	0x40004800
 8003d64:	200001b4 	.word	0x200001b4
 8003d68:	40000800 	.word	0x40000800
  htim2.Init.Prescaler = 64000;
 8003d6c:	f44f 437a 	mov.w	r3, #64000	; 0xfa00
 8003d70:	f04f 4280 	mov.w	r2, #1073741824	; 0x40000000
  htim2.Instance = TIM2;
 8003d74:	4c2a      	ldr	r4, [pc, #168]	; (8003e20 <main+0x37c>)
  htim2.Init.Prescaler = 64000;
 8003d76:	e884 000c 	stmia.w	r4, {r2, r3}
  htim2.Init.Period = 900;
 8003d7a:	f44f 7361 	mov.w	r3, #900	; 0x384
  htim2.Init.CounterMode = TIM_COUNTERMODE_UP;
 8003d7e:	60a0      	str	r0, [r4, #8]
  htim2.Init.ClockDivision = TIM_CLOCKDIVISION_DIV1;
 8003d80:	6120      	str	r0, [r4, #16]
  htim2.Init.AutoReloadPreload = TIM_AUTORELOAD_PRELOAD_DISABLE;
 8003d82:	61a0      	str	r0, [r4, #24]
  if (HAL_TIM_Base_Init(&htim2) != HAL_OK)
 8003d84:	4620      	mov	r0, r4
  htim2.Init.Period = 900;
 8003d86:	60e3      	str	r3, [r4, #12]
  if (HAL_TIM_Base_Init(&htim2) != HAL_OK)
 8003d88:	f7fe fbfa 	bl	8002580 <HAL_TIM_Base_Init>
 8003d8c:	b100      	cbz	r0, 8003d90 <main+0x2ec>
 8003d8e:	e7fe      	b.n	8003d8e <main+0x2ea>
  if (HAL_TIM_ConfigClockSource(&htim2, &sClockSourceConfig) != HAL_OK)
 8003d90:	a908      	add	r1, sp, #32
 8003d92:	4620      	mov	r0, r4
  sClockSourceConfig.ClockSource = TIM_CLOCKSOURCE_INTERNAL;
 8003d94:	9508      	str	r5, [sp, #32]
  if (HAL_TIM_ConfigClockSource(&htim2, &sClockSourceConfig) != HAL_OK)
 8003d96:	f7fe fa39 	bl	800220c <HAL_TIM_ConfigClockSource>
 8003d9a:	b100      	cbz	r0, 8003d9e <main+0x2fa>
 8003d9c:	e7fe      	b.n	8003d9c <main+0x2f8>
  if (HAL_TIM_IC_Init(&htim2) != HAL_OK)
 8003d9e:	4620      	mov	r0, r4
 8003da0:	f7fe fc08 	bl	80025b4 <HAL_TIM_IC_Init>
 8003da4:	b100      	cbz	r0, 8003da8 <main+0x304>
 8003da6:	e7fe      	b.n	8003da6 <main+0x302>
  sMasterConfig.MasterOutputTrigger = TIM_TRGO_RESET;
 8003da8:	9006      	str	r0, [sp, #24]
  sMasterConfig.MasterSlaveMode = TIM_MASTERSLAVEMODE_DISABLE;
 8003daa:	9007      	str	r0, [sp, #28]
  if (HAL_TIMEx_MasterConfigSynchronization(&htim2, &sMasterConfig) != HAL_OK)
 8003dac:	a906      	add	r1, sp, #24
 8003dae:	4620      	mov	r0, r4
 8003db0:	f7fe fd3a 	bl	8002828 <HAL_TIMEx_MasterConfigSynchronization>
 8003db4:	4602      	mov	r2, r0
 8003db6:	b100      	cbz	r0, 8003dba <main+0x316>
 8003db8:	e7fe      	b.n	8003db8 <main+0x314>
  sConfigIC.ICSelection = TIM_ICSELECTION_DIRECTTI;
 8003dba:	2301      	movs	r3, #1
  sConfigIC.ICPolarity = TIM_INPUTCHANNELPOLARITY_RISING;
 8003dbc:	900c      	str	r0, [sp, #48]	; 0x30
  sConfigIC.ICPrescaler = TIM_ICPSC_DIV1;
 8003dbe:	900e      	str	r0, [sp, #56]	; 0x38
  sConfigIC.ICFilter = 0;
 8003dc0:	900f      	str	r0, [sp, #60]	; 0x3c
  if (HAL_TIM_IC_ConfigChannel(&htim2, &sConfigIC, TIM_CHANNEL_1) != HAL_OK)
 8003dc2:	a90c      	add	r1, sp, #48	; 0x30
 8003dc4:	4620      	mov	r0, r4
  sConfigIC.ICSelection = TIM_ICSELECTION_DIRECTTI;
 8003dc6:	930d      	str	r3, [sp, #52]	; 0x34
  if (HAL_TIM_IC_ConfigChannel(&htim2, &sConfigIC, TIM_CHANNEL_1) != HAL_OK)
 8003dc8:	f7fe fc38 	bl	800263c <HAL_TIM_IC_ConfigChannel>
 8003dcc:	b100      	cbz	r0, 8003dd0 <main+0x32c>
 8003dce:	e7fe      	b.n	8003dce <main+0x32a>
  sConfigIC.ICPolarity = TIM_INPUTCHANNELPOLARITY_FALLING;
 8003dd0:	2302      	movs	r3, #2
  if (HAL_TIM_IC_ConfigChannel(&htim2, &sConfigIC, TIM_CHANNEL_2) != HAL_OK)
 8003dd2:	2204      	movs	r2, #4
 8003dd4:	a90c      	add	r1, sp, #48	; 0x30
 8003dd6:	4620      	mov	r0, r4
  sConfigIC.ICPolarity = TIM_INPUTCHANNELPOLARITY_FALLING;
 8003dd8:	930c      	str	r3, [sp, #48]	; 0x30
  sConfigIC.ICSelection = TIM_ICSELECTION_INDIRECTTI;
 8003dda:	930d      	str	r3, [sp, #52]	; 0x34
  if (HAL_TIM_IC_ConfigChannel(&htim2, &sConfigIC, TIM_CHANNEL_2) != HAL_OK)
 8003ddc:	f7fe fc2e 	bl	800263c <HAL_TIM_IC_ConfigChannel>
 8003de0:	b100      	cbz	r0, 8003de4 <main+0x340>
 8003de2:	e7fe      	b.n	8003de2 <main+0x33e>
	micros = 0;
 8003de4:	4b0f      	ldr	r3, [pc, #60]	; (8003e24 <main+0x380>)
 8003de6:	6018      	str	r0, [r3, #0]
	initADC();
 8003de8:	f7ff faf6 	bl	80033d8 <initADC>
	RPiInit();
 8003dec:	f7ff fcda 	bl	80037a4 <RPiInit>
	OWInit();
 8003df0:	f7ff fa32 	bl	8003258 <OWInit>
	initAT();
 8003df4:	f7ff fb78 	bl	80034e8 <initAT>
	initOT();
 8003df8:	f7ff f890 	bl	8002f1c <initOT>
	activateBoiler();
 8003dfc:	f7ff f8b0 	bl	8002f60 <activateBoiler>
	HAL_GPIO_TogglePin(LED_R_GPIO_Port, LED_R_Pin);
 8003e00:	2140      	movs	r1, #64	; 0x40
 8003e02:	4809      	ldr	r0, [pc, #36]	; (8003e28 <main+0x384>)
 8003e04:	f7fd fda1 	bl	800194a <HAL_GPIO_TogglePin>
		sendQueue();
 8003e08:	f7ff fbc2 	bl	8003590 <sendQueue>
		OWRoute();
 8003e0c:	f7ff fad6 	bl	80033bc <OWRoute>
		RPiRoute();
 8003e10:	f7ff fcd8 	bl	80037c4 <RPiRoute>
		routeADC();
 8003e14:	f7ff fb0c 	bl	8003430 <routeADC>
		OTRoute();
 8003e18:	f7ff f9a4 	bl	8003164 <OTRoute>
 8003e1c:	e7f4      	b.n	8003e08 <main+0x364>
 8003e1e:	bf00      	nop
 8003e20:	20000d60 	.word	0x20000d60
 8003e24:	20000d04 	.word	0x20000d04
 8003e28:	40011000 	.word	0x40011000

08003e2c <_Error_Handler>:
  * @param  file: The file name as string.
  * @param  line: The line in file as a number.
  * @retval None
  */
void _Error_Handler(char *file, int line)
{
 8003e2c:	e7fe      	b.n	8003e2c <_Error_Handler>
	...

08003e30 <HAL_MspInit>:
{
  /* USER CODE BEGIN MspInit 0 */

  /* USER CODE END MspInit 0 */

  __HAL_RCC_AFIO_CLK_ENABLE();
 8003e30:	4b20      	ldr	r3, [pc, #128]	; (8003eb4 <HAL_MspInit+0x84>)
{
 8003e32:	b507      	push	{r0, r1, r2, lr}
  __HAL_RCC_AFIO_CLK_ENABLE();
 8003e34:	699a      	ldr	r2, [r3, #24]

  HAL_NVIC_SetPriorityGrouping(NVIC_PRIORITYGROUP_4);
 8003e36:	2003      	movs	r0, #3
  __HAL_RCC_AFIO_CLK_ENABLE();
 8003e38:	f042 0201 	orr.w	r2, r2, #1
 8003e3c:	619a      	str	r2, [r3, #24]
 8003e3e:	699b      	ldr	r3, [r3, #24]
 8003e40:	f003 0301 	and.w	r3, r3, #1
 8003e44:	9301      	str	r3, [sp, #4]
 8003e46:	9b01      	ldr	r3, [sp, #4]
  HAL_NVIC_SetPriorityGrouping(NVIC_PRIORITYGROUP_4);
 8003e48:	f7fd fad4 	bl	80013f4 <HAL_NVIC_SetPriorityGrouping>

  /* System interrupt init*/
  /* MemoryManagement_IRQn interrupt configuration */
  HAL_NVIC_SetPriority(MemoryManagement_IRQn, 0, 0);
 8003e4c:	2200      	movs	r2, #0
 8003e4e:	f06f 000b 	mvn.w	r0, #11
 8003e52:	4611      	mov	r1, r2
 8003e54:	f7fd fae0 	bl	8001418 <HAL_NVIC_SetPriority>
  /* BusFault_IRQn interrupt configuration */
  HAL_NVIC_SetPriority(BusFault_IRQn, 0, 0);
 8003e58:	2200      	movs	r2, #0
 8003e5a:	f06f 000a 	mvn.w	r0, #10
 8003e5e:	4611      	mov	r1, r2
 8003e60:	f7fd fada 	bl	8001418 <HAL_NVIC_SetPriority>
  /* UsageFault_IRQn interrupt configuration */
  HAL_NVIC_SetPriority(UsageFault_IRQn, 0, 0);
 8003e64:	2200      	movs	r2, #0
 8003e66:	f06f 0009 	mvn.w	r0, #9
 8003e6a:	4611      	mov	r1, r2
 8003e6c:	f7fd fad4 	bl	8001418 <HAL_NVIC_SetPriority>
  /* SVCall_IRQn interrupt configuration */
  HAL_NVIC_SetPriority(SVCall_IRQn, 0, 0);
 8003e70:	2200      	movs	r2, #0
 8003e72:	f06f 0004 	mvn.w	r0, #4
 8003e76:	4611      	mov	r1, r2
 8003e78:	f7fd face 	bl	8001418 <HAL_NVIC_SetPriority>
  /* DebugMonitor_IRQn interrupt configuration */
  HAL_NVIC_SetPriority(DebugMonitor_IRQn, 0, 0);
 8003e7c:	2200      	movs	r2, #0
 8003e7e:	f06f 0003 	mvn.w	r0, #3
 8003e82:	4611      	mov	r1, r2
 8003e84:	f7fd fac8 	bl	8001418 <HAL_NVIC_SetPriority>
  /* PendSV_IRQn interrupt configuration */
  HAL_NVIC_SetPriority(PendSV_IRQn, 0, 0);
 8003e88:	2200      	movs	r2, #0
 8003e8a:	f06f 0001 	mvn.w	r0, #1
 8003e8e:	4611      	mov	r1, r2
 8003e90:	f7fd fac2 	bl	8001418 <HAL_NVIC_SetPriority>
  /* SysTick_IRQn interrupt configuration */
  HAL_NVIC_SetPriority(SysTick_IRQn, 0, 0);
 8003e94:	2200      	movs	r2, #0
 8003e96:	f04f 30ff 	mov.w	r0, #4294967295
 8003e9a:	4611      	mov	r1, r2
 8003e9c:	f7fd fabc 	bl	8001418 <HAL_NVIC_SetPriority>

    /**NOJTAG: JTAG-DP Disabled and SW-DP Enabled 
    */
  __HAL_AFIO_REMAP_SWJ_NOJTAG();
 8003ea0:	4a05      	ldr	r2, [pc, #20]	; (8003eb8 <HAL_MspInit+0x88>)
 8003ea2:	6853      	ldr	r3, [r2, #4]
 8003ea4:	f023 63e0 	bic.w	r3, r3, #117440512	; 0x7000000
 8003ea8:	f043 7300 	orr.w	r3, r3, #33554432	; 0x2000000
 8003eac:	6053      	str	r3, [r2, #4]

  /* USER CODE BEGIN MspInit 1 */

  /* USER CODE END MspInit 1 */
}
 8003eae:	b003      	add	sp, #12
 8003eb0:	f85d fb04 	ldr.w	pc, [sp], #4
 8003eb4:	40021000 	.word	0x40021000
 8003eb8:	40010000 	.word	0x40010000

08003ebc <HAL_ADC_MspInit>:

void HAL_ADC_MspInit(ADC_HandleTypeDef* hadc)
{
 8003ebc:	b510      	push	{r4, lr}

  GPIO_InitTypeDef GPIO_InitStruct;
  if(hadc->Instance==ADC1)
 8003ebe:	6802      	ldr	r2, [r0, #0]
 8003ec0:	4b12      	ldr	r3, [pc, #72]	; (8003f0c <HAL_ADC_MspInit+0x50>)
{
 8003ec2:	b086      	sub	sp, #24
  if(hadc->Instance==ADC1)
 8003ec4:	429a      	cmp	r2, r3
 8003ec6:	d11f      	bne.n	8003f08 <HAL_ADC_MspInit+0x4c>
  {
  /* USER CODE BEGIN ADC1_MspInit 0 */

  /* USER CODE END ADC1_MspInit 0 */
    /* Peripheral clock enable */
    __HAL_RCC_ADC1_CLK_ENABLE();
 8003ec8:	f503 436c 	add.w	r3, r3, #60416	; 0xec00
 8003ecc:	699a      	ldr	r2, [r3, #24]
    PB0     ------> ADC1_IN8
    PB1     ------> ADC1_IN9 
    */
    GPIO_InitStruct.Pin = GPIO_PIN_0|GPIO_PIN_1|GPIO_PIN_2|GPIO_PIN_3 
                          |GPIO_PIN_4|GPIO_PIN_5;
    GPIO_InitStruct.Mode = GPIO_MODE_ANALOG;
 8003ece:	2403      	movs	r4, #3
    __HAL_RCC_ADC1_CLK_ENABLE();
 8003ed0:	f442 7200 	orr.w	r2, r2, #512	; 0x200
 8003ed4:	619a      	str	r2, [r3, #24]
 8003ed6:	699b      	ldr	r3, [r3, #24]
    HAL_GPIO_Init(GPIOC, &GPIO_InitStruct);
 8003ed8:	a902      	add	r1, sp, #8
    __HAL_RCC_ADC1_CLK_ENABLE();
 8003eda:	f403 7300 	and.w	r3, r3, #512	; 0x200
 8003ede:	9301      	str	r3, [sp, #4]
 8003ee0:	9b01      	ldr	r3, [sp, #4]
    GPIO_InitStruct.Pin = GPIO_PIN_0|GPIO_PIN_1|GPIO_PIN_2|GPIO_PIN_3 
 8003ee2:	233f      	movs	r3, #63	; 0x3f
    HAL_GPIO_Init(GPIOC, &GPIO_InitStruct);
 8003ee4:	480a      	ldr	r0, [pc, #40]	; (8003f10 <HAL_ADC_MspInit+0x54>)
    GPIO_InitStruct.Pin = GPIO_PIN_0|GPIO_PIN_1|GPIO_PIN_2|GPIO_PIN_3 
 8003ee6:	9302      	str	r3, [sp, #8]
    GPIO_InitStruct.Mode = GPIO_MODE_ANALOG;
 8003ee8:	9403      	str	r4, [sp, #12]
    HAL_GPIO_Init(GPIOC, &GPIO_InitStruct);
 8003eea:	f7fd fc49 	bl	8001780 <HAL_GPIO_Init>

    GPIO_InitStruct.Pin = GPIO_PIN_0|GPIO_PIN_1|GPIO_PIN_4|GPIO_PIN_5 
 8003eee:	23f3      	movs	r3, #243	; 0xf3
                          |GPIO_PIN_6|GPIO_PIN_7;
    GPIO_InitStruct.Mode = GPIO_MODE_ANALOG;
    HAL_GPIO_Init(GPIOA, &GPIO_InitStruct);
 8003ef0:	a902      	add	r1, sp, #8
 8003ef2:	4808      	ldr	r0, [pc, #32]	; (8003f14 <HAL_ADC_MspInit+0x58>)
    GPIO_InitStruct.Pin = GPIO_PIN_0|GPIO_PIN_1|GPIO_PIN_4|GPIO_PIN_5 
 8003ef4:	9302      	str	r3, [sp, #8]
    GPIO_InitStruct.Mode = GPIO_MODE_ANALOG;
 8003ef6:	9403      	str	r4, [sp, #12]
    HAL_GPIO_Init(GPIOA, &GPIO_InitStruct);
 8003ef8:	f7fd fc42 	bl	8001780 <HAL_GPIO_Init>

    GPIO_InitStruct.Pin = GPIO_PIN_0|GPIO_PIN_1;
    GPIO_InitStruct.Mode = GPIO_MODE_ANALOG;
    HAL_GPIO_Init(GPIOB, &GPIO_InitStruct);
 8003efc:	a902      	add	r1, sp, #8
 8003efe:	4806      	ldr	r0, [pc, #24]	; (8003f18 <HAL_ADC_MspInit+0x5c>)
    GPIO_InitStruct.Pin = GPIO_PIN_0|GPIO_PIN_1;
 8003f00:	9402      	str	r4, [sp, #8]
    GPIO_InitStruct.Mode = GPIO_MODE_ANALOG;
 8003f02:	9403      	str	r4, [sp, #12]
    HAL_GPIO_Init(GPIOB, &GPIO_InitStruct);
 8003f04:	f7fd fc3c 	bl	8001780 <HAL_GPIO_Init>
  /* USER CODE BEGIN ADC1_MspInit 1 */

  /* USER CODE END ADC1_MspInit 1 */
  }

}
 8003f08:	b006      	add	sp, #24
 8003f0a:	bd10      	pop	{r4, pc}
 8003f0c:	40012400 	.word	0x40012400
 8003f10:	40011000 	.word	0x40011000
 8003f14:	40010800 	.word	0x40010800
 8003f18:	40010c00 	.word	0x40010c00

08003f1c <HAL_CAN_MspInit>:
  }

}

void HAL_CAN_MspInit(CAN_HandleTypeDef* hcan)
{
 8003f1c:	b57f      	push	{r0, r1, r2, r3, r4, r5, r6, lr}

  GPIO_InitTypeDef GPIO_InitStruct;
  if(hcan->Instance==CAN1)
 8003f1e:	6802      	ldr	r2, [r0, #0]
 8003f20:	4b17      	ldr	r3, [pc, #92]	; (8003f80 <HAL_CAN_MspInit+0x64>)
 8003f22:	429a      	cmp	r2, r3
 8003f24:	d128      	bne.n	8003f78 <HAL_CAN_MspInit+0x5c>
  {
  /* USER CODE BEGIN CAN1_MspInit 0 */

  /* USER CODE END CAN1_MspInit 0 */
    /* Peripheral clock enable */
    __HAL_RCC_CAN1_CLK_ENABLE();
 8003f26:	f503 33d6 	add.w	r3, r3, #109568	; 0x1ac00
 8003f2a:	69da      	ldr	r2, [r3, #28]
    PB9     ------> CAN_TX 
    */
    GPIO_InitStruct.Pin = GPIO_PIN_8;
    GPIO_InitStruct.Mode = GPIO_MODE_INPUT;
    GPIO_InitStruct.Pull = GPIO_NOPULL;
    HAL_GPIO_Init(GPIOB, &GPIO_InitStruct);
 8003f2c:	a902      	add	r1, sp, #8
    __HAL_RCC_CAN1_CLK_ENABLE();
 8003f2e:	f042 7200 	orr.w	r2, r2, #33554432	; 0x2000000
 8003f32:	61da      	str	r2, [r3, #28]
 8003f34:	69db      	ldr	r3, [r3, #28]
    HAL_GPIO_Init(GPIOB, &GPIO_InitStruct);
 8003f36:	4813      	ldr	r0, [pc, #76]	; (8003f84 <HAL_CAN_MspInit+0x68>)
    __HAL_RCC_CAN1_CLK_ENABLE();
 8003f38:	f003 7300 	and.w	r3, r3, #33554432	; 0x2000000
 8003f3c:	9301      	str	r3, [sp, #4]
 8003f3e:	9b01      	ldr	r3, [sp, #4]
    GPIO_InitStruct.Pin = GPIO_PIN_8;
 8003f40:	f44f 7380 	mov.w	r3, #256	; 0x100
 8003f44:	9302      	str	r3, [sp, #8]
    GPIO_InitStruct.Mode = GPIO_MODE_INPUT;
 8003f46:	2300      	movs	r3, #0
 8003f48:	9303      	str	r3, [sp, #12]
    GPIO_InitStruct.Pull = GPIO_NOPULL;
 8003f4a:	9304      	str	r3, [sp, #16]
    HAL_GPIO_Init(GPIOB, &GPIO_InitStruct);
 8003f4c:	f7fd fc18 	bl	8001780 <HAL_GPIO_Init>

    GPIO_InitStruct.Pin = GPIO_PIN_9;
 8003f50:	f44f 7300 	mov.w	r3, #512	; 0x200
 8003f54:	9302      	str	r3, [sp, #8]
    GPIO_InitStruct.Mode = GPIO_MODE_AF_PP;
 8003f56:	2302      	movs	r3, #2
 8003f58:	9303      	str	r3, [sp, #12]
    GPIO_InitStruct.Speed = GPIO_SPEED_FREQ_HIGH;
 8003f5a:	2303      	movs	r3, #3
    HAL_GPIO_Init(GPIOB, &GPIO_InitStruct);
 8003f5c:	a902      	add	r1, sp, #8
 8003f5e:	4809      	ldr	r0, [pc, #36]	; (8003f84 <HAL_CAN_MspInit+0x68>)
    GPIO_InitStruct.Speed = GPIO_SPEED_FREQ_HIGH;
 8003f60:	9305      	str	r3, [sp, #20]
    HAL_GPIO_Init(GPIOB, &GPIO_InitStruct);
 8003f62:	f7fd fc0d 	bl	8001780 <HAL_GPIO_Init>

    __HAL_AFIO_REMAP_CAN1_2();
 8003f66:	4a08      	ldr	r2, [pc, #32]	; (8003f88 <HAL_CAN_MspInit+0x6c>)
 8003f68:	6853      	ldr	r3, [r2, #4]
 8003f6a:	f423 43c0 	bic.w	r3, r3, #24576	; 0x6000
 8003f6e:	f043 63e0 	orr.w	r3, r3, #117440512	; 0x7000000
 8003f72:	f443 4380 	orr.w	r3, r3, #16384	; 0x4000
 8003f76:	6053      	str	r3, [r2, #4]
  /* USER CODE BEGIN CAN1_MspInit 1 */

  /* USER CODE END CAN1_MspInit 1 */
  }

}
 8003f78:	b007      	add	sp, #28
 8003f7a:	f85d fb04 	ldr.w	pc, [sp], #4
 8003f7e:	bf00      	nop
 8003f80:	40006400 	.word	0x40006400
 8003f84:	40010c00 	.word	0x40010c00
 8003f88:	40010000 	.word	0x40010000

08003f8c <HAL_I2C_MspInit>:
  }

}

void HAL_I2C_MspInit(I2C_HandleTypeDef* hi2c)
{
 8003f8c:	b57f      	push	{r0, r1, r2, r3, r4, r5, r6, lr}

  GPIO_InitTypeDef GPIO_InitStruct;
  if(hi2c->Instance==I2C1)
 8003f8e:	6802      	ldr	r2, [r0, #0]
 8003f90:	4b0c      	ldr	r3, [pc, #48]	; (8003fc4 <HAL_I2C_MspInit+0x38>)
 8003f92:	429a      	cmp	r2, r3
 8003f94:	d113      	bne.n	8003fbe <HAL_I2C_MspInit+0x32>
  
    /**I2C1 GPIO Configuration    
    PB6     ------> I2C1_SCL
    PB7     ------> I2C1_SDA 
    */
    GPIO_InitStruct.Pin = GPIO_PIN_6|GPIO_PIN_7;
 8003f96:	23c0      	movs	r3, #192	; 0xc0
 8003f98:	9302      	str	r3, [sp, #8]
    GPIO_InitStruct.Mode = GPIO_MODE_AF_OD;
 8003f9a:	2312      	movs	r3, #18
 8003f9c:	9303      	str	r3, [sp, #12]
    GPIO_InitStruct.Speed = GPIO_SPEED_FREQ_HIGH;
 8003f9e:	2303      	movs	r3, #3
    HAL_GPIO_Init(GPIOB, &GPIO_InitStruct);
 8003fa0:	a902      	add	r1, sp, #8
 8003fa2:	4809      	ldr	r0, [pc, #36]	; (8003fc8 <HAL_I2C_MspInit+0x3c>)
    GPIO_InitStruct.Speed = GPIO_SPEED_FREQ_HIGH;
 8003fa4:	9305      	str	r3, [sp, #20]
    HAL_GPIO_Init(GPIOB, &GPIO_InitStruct);
 8003fa6:	f7fd fbeb 	bl	8001780 <HAL_GPIO_Init>

    /* Peripheral clock enable */
    __HAL_RCC_I2C1_CLK_ENABLE();
 8003faa:	4b08      	ldr	r3, [pc, #32]	; (8003fcc <HAL_I2C_MspInit+0x40>)
 8003fac:	69da      	ldr	r2, [r3, #28]
 8003fae:	f442 1200 	orr.w	r2, r2, #2097152	; 0x200000
 8003fb2:	61da      	str	r2, [r3, #28]
 8003fb4:	69db      	ldr	r3, [r3, #28]
 8003fb6:	f403 1300 	and.w	r3, r3, #2097152	; 0x200000
 8003fba:	9301      	str	r3, [sp, #4]
 8003fbc:	9b01      	ldr	r3, [sp, #4]
  /* USER CODE BEGIN I2C1_MspInit 1 */

  /* USER CODE END I2C1_MspInit 1 */
  }

}
 8003fbe:	b007      	add	sp, #28
 8003fc0:	f85d fb04 	ldr.w	pc, [sp], #4
 8003fc4:	40005400 	.word	0x40005400
 8003fc8:	40010c00 	.word	0x40010c00
 8003fcc:	40021000 	.word	0x40021000

08003fd0 <HAL_SPI_MspInit>:
  }

}

void HAL_SPI_MspInit(SPI_HandleTypeDef* hspi)
{
 8003fd0:	b510      	push	{r4, lr}

  GPIO_InitTypeDef GPIO_InitStruct;
  if(hspi->Instance==SPI1)
 8003fd2:	6803      	ldr	r3, [r0, #0]
 8003fd4:	4a2d      	ldr	r2, [pc, #180]	; (800408c <HAL_SPI_MspInit+0xbc>)
{
 8003fd6:	b086      	sub	sp, #24
  if(hspi->Instance==SPI1)
 8003fd8:	4293      	cmp	r3, r2
 8003fda:	d12d      	bne.n	8004038 <HAL_SPI_MspInit+0x68>
  {
  /* USER CODE BEGIN SPI1_MspInit 0 */

  /* USER CODE END SPI1_MspInit 0 */
    /* Peripheral clock enable */
    __HAL_RCC_SPI1_CLK_ENABLE();
 8003fdc:	4b2c      	ldr	r3, [pc, #176]	; (8004090 <HAL_SPI_MspInit+0xc0>)
    PB5     ------> SPI1_MOSI 
    */
    GPIO_InitStruct.Pin = GPIO_PIN_3|GPIO_PIN_5;
    GPIO_InitStruct.Mode = GPIO_MODE_AF_PP;
    GPIO_InitStruct.Speed = GPIO_SPEED_FREQ_HIGH;
    HAL_GPIO_Init(GPIOB, &GPIO_InitStruct);
 8003fde:	a902      	add	r1, sp, #8
    __HAL_RCC_SPI1_CLK_ENABLE();
 8003fe0:	699a      	ldr	r2, [r3, #24]
    HAL_GPIO_Init(GPIOB, &GPIO_InitStruct);
 8003fe2:	482c      	ldr	r0, [pc, #176]	; (8004094 <HAL_SPI_MspInit+0xc4>)
    __HAL_RCC_SPI1_CLK_ENABLE();
 8003fe4:	f442 5280 	orr.w	r2, r2, #4096	; 0x1000
 8003fe8:	619a      	str	r2, [r3, #24]
 8003fea:	699b      	ldr	r3, [r3, #24]

    GPIO_InitStruct.Pin = GPIO_PIN_4;
    GPIO_InitStruct.Mode = GPIO_MODE_INPUT;
 8003fec:	2400      	movs	r4, #0
    __HAL_RCC_SPI1_CLK_ENABLE();
 8003fee:	f403 5380 	and.w	r3, r3, #4096	; 0x1000
 8003ff2:	9300      	str	r3, [sp, #0]
 8003ff4:	9b00      	ldr	r3, [sp, #0]
    GPIO_InitStruct.Pin = GPIO_PIN_3|GPIO_PIN_5;
 8003ff6:	2328      	movs	r3, #40	; 0x28
 8003ff8:	9302      	str	r3, [sp, #8]
    GPIO_InitStruct.Mode = GPIO_MODE_AF_PP;
 8003ffa:	2302      	movs	r3, #2
 8003ffc:	9303      	str	r3, [sp, #12]
    GPIO_InitStruct.Speed = GPIO_SPEED_FREQ_HIGH;
 8003ffe:	2303      	movs	r3, #3
 8004000:	9305      	str	r3, [sp, #20]
    HAL_GPIO_Init(GPIOB, &GPIO_InitStruct);
 8004002:	f7fd fbbd 	bl	8001780 <HAL_GPIO_Init>
    GPIO_InitStruct.Pin = GPIO_PIN_4;
 8004006:	2310      	movs	r3, #16
    GPIO_InitStruct.Pull = GPIO_NOPULL;
    HAL_GPIO_Init(GPIOB, &GPIO_InitStruct);
 8004008:	a902      	add	r1, sp, #8
 800400a:	4822      	ldr	r0, [pc, #136]	; (8004094 <HAL_SPI_MspInit+0xc4>)
    GPIO_InitStruct.Pin = GPIO_PIN_4;
 800400c:	9302      	str	r3, [sp, #8]
    GPIO_InitStruct.Mode = GPIO_MODE_INPUT;
 800400e:	9403      	str	r4, [sp, #12]
    GPIO_InitStruct.Pull = GPIO_NOPULL;
 8004010:	9404      	str	r4, [sp, #16]
    HAL_GPIO_Init(GPIOB, &GPIO_InitStruct);
 8004012:	f7fd fbb5 	bl	8001780 <HAL_GPIO_Init>

    __HAL_AFIO_REMAP_SPI1_ENABLE();
 8004016:	4a20      	ldr	r2, [pc, #128]	; (8004098 <HAL_SPI_MspInit+0xc8>)

    /* SPI1 interrupt Init */
    HAL_NVIC_SetPriority(SPI1_IRQn, 0, 0);
 8004018:	2023      	movs	r0, #35	; 0x23
    __HAL_AFIO_REMAP_SPI1_ENABLE();
 800401a:	6853      	ldr	r3, [r2, #4]
    HAL_NVIC_SetPriority(SPI1_IRQn, 0, 0);
 800401c:	4621      	mov	r1, r4
    __HAL_AFIO_REMAP_SPI1_ENABLE();
 800401e:	f043 63e0 	orr.w	r3, r3, #117440512	; 0x7000000
 8004022:	f043 0301 	orr.w	r3, r3, #1
 8004026:	6053      	str	r3, [r2, #4]
    HAL_NVIC_SetPriority(SPI1_IRQn, 0, 0);
 8004028:	4622      	mov	r2, r4
 800402a:	f7fd f9f5 	bl	8001418 <HAL_NVIC_SetPriority>
    HAL_NVIC_EnableIRQ(SPI1_IRQn);
 800402e:	2023      	movs	r0, #35	; 0x23
    GPIO_InitStruct.Speed = GPIO_SPEED_FREQ_HIGH;
    HAL_GPIO_Init(GPIOB, &GPIO_InitStruct);

    /* SPI2 interrupt Init */
    HAL_NVIC_SetPriority(SPI2_IRQn, 0, 0);
    HAL_NVIC_EnableIRQ(SPI2_IRQn);
 8004030:	f7fd fa26 	bl	8001480 <HAL_NVIC_EnableIRQ>
  /* USER CODE BEGIN SPI2_MspInit 1 */

  /* USER CODE END SPI2_MspInit 1 */
  }

}
 8004034:	b006      	add	sp, #24
 8004036:	bd10      	pop	{r4, pc}
  else if(hspi->Instance==SPI2)
 8004038:	4a18      	ldr	r2, [pc, #96]	; (800409c <HAL_SPI_MspInit+0xcc>)
 800403a:	4293      	cmp	r3, r2
 800403c:	d1fa      	bne.n	8004034 <HAL_SPI_MspInit+0x64>
    __HAL_RCC_SPI2_CLK_ENABLE();
 800403e:	4b14      	ldr	r3, [pc, #80]	; (8004090 <HAL_SPI_MspInit+0xc0>)
    GPIO_InitStruct.Mode = GPIO_MODE_INPUT;
 8004040:	2400      	movs	r4, #0
    __HAL_RCC_SPI2_CLK_ENABLE();
 8004042:	69da      	ldr	r2, [r3, #28]
    HAL_GPIO_Init(GPIOB, &GPIO_InitStruct);
 8004044:	a902      	add	r1, sp, #8
    __HAL_RCC_SPI2_CLK_ENABLE();
 8004046:	f442 4280 	orr.w	r2, r2, #16384	; 0x4000
 800404a:	61da      	str	r2, [r3, #28]
 800404c:	69db      	ldr	r3, [r3, #28]
    HAL_GPIO_Init(GPIOB, &GPIO_InitStruct);
 800404e:	4811      	ldr	r0, [pc, #68]	; (8004094 <HAL_SPI_MspInit+0xc4>)
    __HAL_RCC_SPI2_CLK_ENABLE();
 8004050:	f403 4380 	and.w	r3, r3, #16384	; 0x4000
 8004054:	9301      	str	r3, [sp, #4]
 8004056:	9b01      	ldr	r3, [sp, #4]
    GPIO_InitStruct.Pin = GPIO_PIN_12|GPIO_PIN_13|GPIO_PIN_15;
 8004058:	f44f 4330 	mov.w	r3, #45056	; 0xb000
    GPIO_InitStruct.Mode = GPIO_MODE_INPUT;
 800405c:	9403      	str	r4, [sp, #12]
    GPIO_InitStruct.Pin = GPIO_PIN_12|GPIO_PIN_13|GPIO_PIN_15;
 800405e:	9302      	str	r3, [sp, #8]
    GPIO_InitStruct.Pull = GPIO_NOPULL;
 8004060:	9404      	str	r4, [sp, #16]
    HAL_GPIO_Init(GPIOB, &GPIO_InitStruct);
 8004062:	f7fd fb8d 	bl	8001780 <HAL_GPIO_Init>
    GPIO_InitStruct.Pin = GPIO_PIN_14;
 8004066:	f44f 4380 	mov.w	r3, #16384	; 0x4000
 800406a:	9302      	str	r3, [sp, #8]
    GPIO_InitStruct.Mode = GPIO_MODE_AF_PP;
 800406c:	2302      	movs	r3, #2
 800406e:	9303      	str	r3, [sp, #12]
    GPIO_InitStruct.Speed = GPIO_SPEED_FREQ_HIGH;
 8004070:	2303      	movs	r3, #3
    HAL_GPIO_Init(GPIOB, &GPIO_InitStruct);
 8004072:	a902      	add	r1, sp, #8
 8004074:	4807      	ldr	r0, [pc, #28]	; (8004094 <HAL_SPI_MspInit+0xc4>)
    GPIO_InitStruct.Speed = GPIO_SPEED_FREQ_HIGH;
 8004076:	9305      	str	r3, [sp, #20]
    HAL_GPIO_Init(GPIOB, &GPIO_InitStruct);
 8004078:	f7fd fb82 	bl	8001780 <HAL_GPIO_Init>
    HAL_NVIC_SetPriority(SPI2_IRQn, 0, 0);
 800407c:	2024      	movs	r0, #36	; 0x24
 800407e:	4622      	mov	r2, r4
 8004080:	4621      	mov	r1, r4
 8004082:	f7fd f9c9 	bl	8001418 <HAL_NVIC_SetPriority>
    HAL_NVIC_EnableIRQ(SPI2_IRQn);
 8004086:	2024      	movs	r0, #36	; 0x24
 8004088:	e7d2      	b.n	8004030 <HAL_SPI_MspInit+0x60>
 800408a:	bf00      	nop
 800408c:	40013000 	.word	0x40013000
 8004090:	40021000 	.word	0x40021000
 8004094:	40010c00 	.word	0x40010c00
 8004098:	40010000 	.word	0x40010000
 800409c:	40003800 	.word	0x40003800

080040a0 <HAL_TIM_Base_MspInit>:
  }

}

void HAL_TIM_Base_MspInit(TIM_HandleTypeDef* htim_base)
{
 80040a0:	b510      	push	{r4, lr}

  GPIO_InitTypeDef GPIO_InitStruct;
  if(htim_base->Instance==TIM2)
 80040a2:	6803      	ldr	r3, [r0, #0]
{
 80040a4:	b086      	sub	sp, #24
  if(htim_base->Instance==TIM2)
 80040a6:	f1b3 4f80 	cmp.w	r3, #1073741824	; 0x40000000
 80040aa:	d127      	bne.n	80040fc <HAL_TIM_Base_MspInit+0x5c>
  {
  /* USER CODE BEGIN TIM2_MspInit 0 */

  /* USER CODE END TIM2_MspInit 0 */
    /* Peripheral clock enable */
    __HAL_RCC_TIM2_CLK_ENABLE();
 80040ac:	f503 3304 	add.w	r3, r3, #135168	; 0x21000
 80040b0:	69da      	ldr	r2, [r3, #28]
  
    /**TIM2 GPIO Configuration    
    PA15     ------> TIM2_CH1 
    */
    GPIO_InitStruct.Pin = OT_TXI_Pin;
    GPIO_InitStruct.Mode = GPIO_MODE_INPUT;
 80040b2:	2400      	movs	r4, #0
    __HAL_RCC_TIM2_CLK_ENABLE();
 80040b4:	f042 0201 	orr.w	r2, r2, #1
 80040b8:	61da      	str	r2, [r3, #28]
 80040ba:	69db      	ldr	r3, [r3, #28]
    GPIO_InitStruct.Pull = GPIO_NOPULL;
    HAL_GPIO_Init(OT_TXI_GPIO_Port, &GPIO_InitStruct);
 80040bc:	a902      	add	r1, sp, #8
    __HAL_RCC_TIM2_CLK_ENABLE();
 80040be:	f003 0301 	and.w	r3, r3, #1
 80040c2:	9301      	str	r3, [sp, #4]
 80040c4:	9b01      	ldr	r3, [sp, #4]
    GPIO_InitStruct.Pin = OT_TXI_Pin;
 80040c6:	f44f 4300 	mov.w	r3, #32768	; 0x8000
    HAL_GPIO_Init(OT_TXI_GPIO_Port, &GPIO_InitStruct);
 80040ca:	4813      	ldr	r0, [pc, #76]	; (8004118 <HAL_TIM_Base_MspInit+0x78>)
    GPIO_InitStruct.Pin = OT_TXI_Pin;
 80040cc:	9302      	str	r3, [sp, #8]
    GPIO_InitStruct.Mode = GPIO_MODE_INPUT;
 80040ce:	9403      	str	r4, [sp, #12]
    GPIO_InitStruct.Pull = GPIO_NOPULL;
 80040d0:	9404      	str	r4, [sp, #16]
    HAL_GPIO_Init(OT_TXI_GPIO_Port, &GPIO_InitStruct);
 80040d2:	f7fd fb55 	bl	8001780 <HAL_GPIO_Init>

    __HAL_AFIO_REMAP_TIM2_PARTIAL_1();
 80040d6:	4a11      	ldr	r2, [pc, #68]	; (800411c <HAL_TIM_Base_MspInit+0x7c>)

    /* TIM2 interrupt Init */
    HAL_NVIC_SetPriority(TIM2_IRQn, 0, 0);
 80040d8:	201c      	movs	r0, #28
    __HAL_AFIO_REMAP_TIM2_PARTIAL_1();
 80040da:	6853      	ldr	r3, [r2, #4]
    HAL_NVIC_SetPriority(TIM2_IRQn, 0, 0);
 80040dc:	4621      	mov	r1, r4
    __HAL_AFIO_REMAP_TIM2_PARTIAL_1();
 80040de:	f423 7340 	bic.w	r3, r3, #768	; 0x300
 80040e2:	f043 63e0 	orr.w	r3, r3, #117440512	; 0x7000000
 80040e6:	f443 7380 	orr.w	r3, r3, #256	; 0x100
 80040ea:	6053      	str	r3, [r2, #4]
    HAL_NVIC_SetPriority(TIM2_IRQn, 0, 0);
 80040ec:	4622      	mov	r2, r4
 80040ee:	f7fd f993 	bl	8001418 <HAL_NVIC_SetPriority>
    HAL_NVIC_EnableIRQ(TIM2_IRQn);
 80040f2:	201c      	movs	r0, #28
 80040f4:	f7fd f9c4 	bl	8001480 <HAL_NVIC_EnableIRQ>
  /* USER CODE BEGIN TIM4_MspInit 1 */

  /* USER CODE END TIM4_MspInit 1 */
  }

}
 80040f8:	b006      	add	sp, #24
 80040fa:	bd10      	pop	{r4, pc}
  else if(htim_base->Instance==TIM4)
 80040fc:	4a08      	ldr	r2, [pc, #32]	; (8004120 <HAL_TIM_Base_MspInit+0x80>)
 80040fe:	4293      	cmp	r3, r2
 8004100:	d1fa      	bne.n	80040f8 <HAL_TIM_Base_MspInit+0x58>
    __HAL_RCC_TIM4_CLK_ENABLE();
 8004102:	4b08      	ldr	r3, [pc, #32]	; (8004124 <HAL_TIM_Base_MspInit+0x84>)
 8004104:	69da      	ldr	r2, [r3, #28]
 8004106:	f042 0204 	orr.w	r2, r2, #4
 800410a:	61da      	str	r2, [r3, #28]
 800410c:	69db      	ldr	r3, [r3, #28]
 800410e:	f003 0304 	and.w	r3, r3, #4
 8004112:	9302      	str	r3, [sp, #8]
 8004114:	9b02      	ldr	r3, [sp, #8]
}
 8004116:	e7ef      	b.n	80040f8 <HAL_TIM_Base_MspInit+0x58>
 8004118:	40010800 	.word	0x40010800
 800411c:	40010000 	.word	0x40010000
 8004120:	40000800 	.word	0x40000800
 8004124:	40021000 	.word	0x40021000

08004128 <HAL_UART_MspInit>:
  }

}

void HAL_UART_MspInit(UART_HandleTypeDef* huart)
{
 8004128:	b570      	push	{r4, r5, r6, lr}

  GPIO_InitTypeDef GPIO_InitStruct;
  if(huart->Instance==USART1)
 800412a:	6803      	ldr	r3, [r0, #0]
 800412c:	4a5e      	ldr	r2, [pc, #376]	; (80042a8 <HAL_UART_MspInit+0x180>)
{
 800412e:	b088      	sub	sp, #32
  if(huart->Instance==USART1)
 8004130:	4293      	cmp	r3, r2
{
 8004132:	4605      	mov	r5, r0
  if(huart->Instance==USART1)
 8004134:	d155      	bne.n	80041e2 <HAL_UART_MspInit+0xba>
  {
  /* USER CODE BEGIN USART1_MspInit 0 */

  /* USER CODE END USART1_MspInit 0 */
    /* Peripheral clock enable */
    __HAL_RCC_USART1_CLK_ENABLE();
 8004136:	4b5d      	ldr	r3, [pc, #372]	; (80042ac <HAL_UART_MspInit+0x184>)
    PA10     ------> USART1_RX 
    */
    GPIO_InitStruct.Pin = GPIO_PIN_9;
    GPIO_InitStruct.Mode = GPIO_MODE_AF_PP;
    GPIO_InitStruct.Speed = GPIO_SPEED_FREQ_HIGH;
    HAL_GPIO_Init(GPIOA, &GPIO_InitStruct);
 8004138:	a904      	add	r1, sp, #16
    __HAL_RCC_USART1_CLK_ENABLE();
 800413a:	699a      	ldr	r2, [r3, #24]
    HAL_GPIO_Init(GPIOA, &GPIO_InitStruct);
 800413c:	485c      	ldr	r0, [pc, #368]	; (80042b0 <HAL_UART_MspInit+0x188>)
    __HAL_RCC_USART1_CLK_ENABLE();
 800413e:	f442 4280 	orr.w	r2, r2, #16384	; 0x4000
 8004142:	619a      	str	r2, [r3, #24]
 8004144:	699b      	ldr	r3, [r3, #24]

    GPIO_InitStruct.Pin = GPIO_PIN_10;
    GPIO_InitStruct.Mode = GPIO_MODE_INPUT;
 8004146:	2600      	movs	r6, #0
    __HAL_RCC_USART1_CLK_ENABLE();
 8004148:	f403 4380 	and.w	r3, r3, #16384	; 0x4000
 800414c:	9301      	str	r3, [sp, #4]
 800414e:	9b01      	ldr	r3, [sp, #4]
    GPIO_InitStruct.Pin = GPIO_PIN_9;
 8004150:	f44f 7300 	mov.w	r3, #512	; 0x200
 8004154:	9304      	str	r3, [sp, #16]
    GPIO_InitStruct.Mode = GPIO_MODE_AF_PP;
 8004156:	2302      	movs	r3, #2
 8004158:	9305      	str	r3, [sp, #20]
    GPIO_InitStruct.Speed = GPIO_SPEED_FREQ_HIGH;
 800415a:	2303      	movs	r3, #3
 800415c:	9307      	str	r3, [sp, #28]
    HAL_GPIO_Init(GPIOA, &GPIO_InitStruct);
 800415e:	f7fd fb0f 	bl	8001780 <HAL_GPIO_Init>
    GPIO_InitStruct.Pin = GPIO_PIN_10;
 8004162:	f44f 6380 	mov.w	r3, #1024	; 0x400
    GPIO_InitStruct.Pull = GPIO_NOPULL;
    HAL_GPIO_Init(GPIOA, &GPIO_InitStruct);
 8004166:	4852      	ldr	r0, [pc, #328]	; (80042b0 <HAL_UART_MspInit+0x188>)
 8004168:	a904      	add	r1, sp, #16
    GPIO_InitStruct.Pin = GPIO_PIN_10;
 800416a:	9304      	str	r3, [sp, #16]
    GPIO_InitStruct.Mode = GPIO_MODE_INPUT;
 800416c:	9605      	str	r6, [sp, #20]
    GPIO_InitStruct.Pull = GPIO_NOPULL;
 800416e:	9606      	str	r6, [sp, #24]
    HAL_GPIO_Init(GPIOA, &GPIO_InitStruct);
 8004170:	f7fd fb06 	bl	8001780 <HAL_GPIO_Init>

    /* USART1 DMA Init */
    /* USART1_TX Init */
    hdma_usart1_tx.Instance = DMA1_Channel4;
    hdma_usart1_tx.Init.Direction = DMA_MEMORY_TO_PERIPH;
 8004174:	2310      	movs	r3, #16
    hdma_usart1_tx.Instance = DMA1_Channel4;
 8004176:	4c4f      	ldr	r4, [pc, #316]	; (80042b4 <HAL_UART_MspInit+0x18c>)
    hdma_usart1_tx.Init.Direction = DMA_MEMORY_TO_PERIPH;
 8004178:	484f      	ldr	r0, [pc, #316]	; (80042b8 <HAL_UART_MspInit+0x190>)
    hdma_usart1_tx.Init.PeriphInc = DMA_PINC_DISABLE;
 800417a:	60a6      	str	r6, [r4, #8]
    hdma_usart1_tx.Init.Direction = DMA_MEMORY_TO_PERIPH;
 800417c:	e884 0009 	stmia.w	r4, {r0, r3}
    hdma_usart1_tx.Init.MemInc = DMA_MINC_ENABLE;
 8004180:	2380      	movs	r3, #128	; 0x80
    hdma_usart1_tx.Init.PeriphDataAlignment = DMA_PDATAALIGN_BYTE;
    hdma_usart1_tx.Init.MemDataAlignment = DMA_MDATAALIGN_BYTE;
    hdma_usart1_tx.Init.Mode = DMA_NORMAL;
    hdma_usart1_tx.Init.Priority = DMA_PRIORITY_LOW;
    if (HAL_DMA_Init(&hdma_usart1_tx) != HAL_OK)
 8004182:	4620      	mov	r0, r4
    hdma_usart1_tx.Init.MemInc = DMA_MINC_ENABLE;
 8004184:	60e3      	str	r3, [r4, #12]
    hdma_usart1_tx.Init.PeriphDataAlignment = DMA_PDATAALIGN_BYTE;
 8004186:	6126      	str	r6, [r4, #16]
    hdma_usart1_tx.Init.MemDataAlignment = DMA_MDATAALIGN_BYTE;
 8004188:	6166      	str	r6, [r4, #20]
    hdma_usart1_tx.Init.Mode = DMA_NORMAL;
 800418a:	61a6      	str	r6, [r4, #24]
    hdma_usart1_tx.Init.Priority = DMA_PRIORITY_LOW;
 800418c:	61e6      	str	r6, [r4, #28]
    if (HAL_DMA_Init(&hdma_usart1_tx) != HAL_OK)
 800418e:	f7fd f9a9 	bl	80014e4 <HAL_DMA_Init>
 8004192:	b120      	cbz	r0, 800419e <HAL_UART_MspInit+0x76>
    {
      _Error_Handler(__FILE__, __LINE__);
 8004194:	f44f 7104 	mov.w	r1, #528	; 0x210
 8004198:	4848      	ldr	r0, [pc, #288]	; (80042bc <HAL_UART_MspInit+0x194>)
 800419a:	f7ff fe47 	bl	8003e2c <_Error_Handler>
    }

    __HAL_LINKDMA(huart,hdmatx,hdma_usart1_tx);

    /* USART1_RX Init */
    hdma_usart1_rx.Instance = DMA1_Channel5;
 800419e:	4b48      	ldr	r3, [pc, #288]	; (80042c0 <HAL_UART_MspInit+0x198>)
    __HAL_LINKDMA(huart,hdmatx,hdma_usart1_tx);
 80041a0:	632c      	str	r4, [r5, #48]	; 0x30
 80041a2:	6265      	str	r5, [r4, #36]	; 0x24
    hdma_usart1_rx.Instance = DMA1_Channel5;
 80041a4:	4c47      	ldr	r4, [pc, #284]	; (80042c4 <HAL_UART_MspInit+0x19c>)
    hdma_usart1_rx.Init.Direction = DMA_PERIPH_TO_MEMORY;
    hdma_usart1_rx.Init.PeriphInc = DMA_PINC_DISABLE;
    hdma_usart1_rx.Init.MemInc = DMA_MINC_ENABLE;
 80041a6:	2280      	movs	r2, #128	; 0x80
    hdma_usart1_rx.Instance = DMA1_Channel5;
 80041a8:	6023      	str	r3, [r4, #0]
    hdma_usart1_rx.Init.Direction = DMA_PERIPH_TO_MEMORY;
 80041aa:	2300      	movs	r3, #0
    hdma_usart1_rx.Init.PeriphDataAlignment = DMA_PDATAALIGN_BYTE;
    hdma_usart1_rx.Init.MemDataAlignment = DMA_MDATAALIGN_BYTE;
    hdma_usart1_rx.Init.Mode = DMA_NORMAL;
    hdma_usart1_rx.Init.Priority = DMA_PRIORITY_LOW;
    if (HAL_DMA_Init(&hdma_usart1_rx) != HAL_OK)
 80041ac:	4620      	mov	r0, r4
    hdma_usart1_rx.Init.Direction = DMA_PERIPH_TO_MEMORY;
 80041ae:	6063      	str	r3, [r4, #4]
    hdma_usart1_rx.Init.PeriphInc = DMA_PINC_DISABLE;
 80041b0:	60a3      	str	r3, [r4, #8]
    hdma_usart1_rx.Init.MemInc = DMA_MINC_ENABLE;
 80041b2:	60e2      	str	r2, [r4, #12]
    hdma_usart1_rx.Init.PeriphDataAlignment = DMA_PDATAALIGN_BYTE;
 80041b4:	6123      	str	r3, [r4, #16]
    hdma_usart1_rx.Init.MemDataAlignment = DMA_MDATAALIGN_BYTE;
 80041b6:	6163      	str	r3, [r4, #20]
    hdma_usart1_rx.Init.Mode = DMA_NORMAL;
 80041b8:	61a3      	str	r3, [r4, #24]
    hdma_usart1_rx.Init.Priority = DMA_PRIORITY_LOW;
 80041ba:	61e3      	str	r3, [r4, #28]
    if (HAL_DMA_Init(&hdma_usart1_rx) != HAL_OK)
 80041bc:	f7fd f992 	bl	80014e4 <HAL_DMA_Init>
 80041c0:	b120      	cbz	r0, 80041cc <HAL_UART_MspInit+0xa4>
    {
      _Error_Handler(__FILE__, __LINE__);
 80041c2:	f44f 7108 	mov.w	r1, #544	; 0x220
 80041c6:	483d      	ldr	r0, [pc, #244]	; (80042bc <HAL_UART_MspInit+0x194>)
 80041c8:	f7ff fe30 	bl	8003e2c <_Error_Handler>
    }

    __HAL_LINKDMA(huart,hdmarx,hdma_usart1_rx);

    /* USART1 interrupt Init */
    HAL_NVIC_SetPriority(USART1_IRQn, 0, 0);
 80041cc:	2200      	movs	r2, #0
 80041ce:	2025      	movs	r0, #37	; 0x25
    __HAL_LINKDMA(huart,hdmarx,hdma_usart1_rx);
 80041d0:	636c      	str	r4, [r5, #52]	; 0x34
    HAL_NVIC_SetPriority(USART1_IRQn, 0, 0);
 80041d2:	4611      	mov	r1, r2
    __HAL_LINKDMA(huart,hdmarx,hdma_usart1_rx);
 80041d4:	6265      	str	r5, [r4, #36]	; 0x24
    HAL_NVIC_SetPriority(USART1_IRQn, 0, 0);
 80041d6:	f7fd f91f 	bl	8001418 <HAL_NVIC_SetPriority>
    HAL_NVIC_EnableIRQ(USART1_IRQn);
 80041da:	2025      	movs	r0, #37	; 0x25

    __HAL_LINKDMA(huart,hdmatx,hdma_usart3_tx);

    /* USART3 interrupt Init */
    HAL_NVIC_SetPriority(USART3_IRQn, 0, 0);
    HAL_NVIC_EnableIRQ(USART3_IRQn);
 80041dc:	f7fd f950 	bl	8001480 <HAL_NVIC_EnableIRQ>
  /* USER CODE BEGIN USART3_MspInit 1 */

  /* USER CODE END USART3_MspInit 1 */
  }

}
 80041e0:	e01f      	b.n	8004222 <HAL_UART_MspInit+0xfa>
  else if(huart->Instance==USART2)
 80041e2:	4a39      	ldr	r2, [pc, #228]	; (80042c8 <HAL_UART_MspInit+0x1a0>)
 80041e4:	4293      	cmp	r3, r2
 80041e6:	d11e      	bne.n	8004226 <HAL_UART_MspInit+0xfe>
    __HAL_RCC_USART2_CLK_ENABLE();
 80041e8:	4b30      	ldr	r3, [pc, #192]	; (80042ac <HAL_UART_MspInit+0x184>)
    HAL_GPIO_Init(GPIOA, &GPIO_InitStruct);
 80041ea:	a904      	add	r1, sp, #16
    __HAL_RCC_USART2_CLK_ENABLE();
 80041ec:	69da      	ldr	r2, [r3, #28]
    HAL_GPIO_Init(GPIOA, &GPIO_InitStruct);
 80041ee:	4830      	ldr	r0, [pc, #192]	; (80042b0 <HAL_UART_MspInit+0x188>)
    __HAL_RCC_USART2_CLK_ENABLE();
 80041f0:	f442 3200 	orr.w	r2, r2, #131072	; 0x20000
 80041f4:	61da      	str	r2, [r3, #28]
 80041f6:	69db      	ldr	r3, [r3, #28]
 80041f8:	f403 3300 	and.w	r3, r3, #131072	; 0x20000
 80041fc:	9302      	str	r3, [sp, #8]
 80041fe:	9b02      	ldr	r3, [sp, #8]
    GPIO_InitStruct.Pin = GPIO_PIN_2;
 8004200:	2304      	movs	r3, #4
 8004202:	9304      	str	r3, [sp, #16]
    GPIO_InitStruct.Mode = GPIO_MODE_AF_PP;
 8004204:	2302      	movs	r3, #2
 8004206:	9305      	str	r3, [sp, #20]
    GPIO_InitStruct.Speed = GPIO_SPEED_FREQ_HIGH;
 8004208:	2303      	movs	r3, #3
 800420a:	9307      	str	r3, [sp, #28]
    HAL_GPIO_Init(GPIOA, &GPIO_InitStruct);
 800420c:	f7fd fab8 	bl	8001780 <HAL_GPIO_Init>
    GPIO_InitStruct.Pin = GPIO_PIN_3;
 8004210:	2308      	movs	r3, #8
 8004212:	9304      	str	r3, [sp, #16]
    GPIO_InitStruct.Mode = GPIO_MODE_INPUT;
 8004214:	2300      	movs	r3, #0
    HAL_GPIO_Init(GPIOA, &GPIO_InitStruct);
 8004216:	a904      	add	r1, sp, #16
 8004218:	4825      	ldr	r0, [pc, #148]	; (80042b0 <HAL_UART_MspInit+0x188>)
    GPIO_InitStruct.Mode = GPIO_MODE_INPUT;
 800421a:	9305      	str	r3, [sp, #20]
    GPIO_InitStruct.Pull = GPIO_NOPULL;
 800421c:	9306      	str	r3, [sp, #24]
    HAL_GPIO_Init(GPIOA, &GPIO_InitStruct);
 800421e:	f7fd faaf 	bl	8001780 <HAL_GPIO_Init>
}
 8004222:	b008      	add	sp, #32
 8004224:	bd70      	pop	{r4, r5, r6, pc}
  else if(huart->Instance==USART3)
 8004226:	4a29      	ldr	r2, [pc, #164]	; (80042cc <HAL_UART_MspInit+0x1a4>)
 8004228:	4293      	cmp	r3, r2
 800422a:	d1fa      	bne.n	8004222 <HAL_UART_MspInit+0xfa>
    __HAL_RCC_USART3_CLK_ENABLE();
 800422c:	4b1f      	ldr	r3, [pc, #124]	; (80042ac <HAL_UART_MspInit+0x184>)
    HAL_GPIO_Init(GPIOB, &GPIO_InitStruct);
 800422e:	a904      	add	r1, sp, #16
    __HAL_RCC_USART3_CLK_ENABLE();
 8004230:	69da      	ldr	r2, [r3, #28]
    HAL_GPIO_Init(GPIOB, &GPIO_InitStruct);
 8004232:	4827      	ldr	r0, [pc, #156]	; (80042d0 <HAL_UART_MspInit+0x1a8>)
    __HAL_RCC_USART3_CLK_ENABLE();
 8004234:	f442 2280 	orr.w	r2, r2, #262144	; 0x40000
 8004238:	61da      	str	r2, [r3, #28]
 800423a:	69db      	ldr	r3, [r3, #28]
    GPIO_InitStruct.Mode = GPIO_MODE_INPUT;
 800423c:	2600      	movs	r6, #0
    __HAL_RCC_USART3_CLK_ENABLE();
 800423e:	f403 2380 	and.w	r3, r3, #262144	; 0x40000
 8004242:	9303      	str	r3, [sp, #12]
 8004244:	9b03      	ldr	r3, [sp, #12]
    GPIO_InitStruct.Pin = GPIO_PIN_10;
 8004246:	f44f 6380 	mov.w	r3, #1024	; 0x400
 800424a:	9304      	str	r3, [sp, #16]
    GPIO_InitStruct.Mode = GPIO_MODE_AF_PP;
 800424c:	2302      	movs	r3, #2
 800424e:	9305      	str	r3, [sp, #20]
    GPIO_InitStruct.Speed = GPIO_SPEED_FREQ_HIGH;
 8004250:	2303      	movs	r3, #3
 8004252:	9307      	str	r3, [sp, #28]
    HAL_GPIO_Init(GPIOB, &GPIO_InitStruct);
 8004254:	f7fd fa94 	bl	8001780 <HAL_GPIO_Init>
    GPIO_InitStruct.Pin = GPIO_PIN_11;
 8004258:	f44f 6300 	mov.w	r3, #2048	; 0x800
    HAL_GPIO_Init(GPIOB, &GPIO_InitStruct);
 800425c:	481c      	ldr	r0, [pc, #112]	; (80042d0 <HAL_UART_MspInit+0x1a8>)
 800425e:	a904      	add	r1, sp, #16
    GPIO_InitStruct.Pin = GPIO_PIN_11;
 8004260:	9304      	str	r3, [sp, #16]
    GPIO_InitStruct.Mode = GPIO_MODE_INPUT;
 8004262:	9605      	str	r6, [sp, #20]
    GPIO_InitStruct.Pull = GPIO_NOPULL;
 8004264:	9606      	str	r6, [sp, #24]
    HAL_GPIO_Init(GPIOB, &GPIO_InitStruct);
 8004266:	f7fd fa8b 	bl	8001780 <HAL_GPIO_Init>
    hdma_usart3_tx.Init.Direction = DMA_MEMORY_TO_PERIPH;
 800426a:	2310      	movs	r3, #16
    hdma_usart3_tx.Instance = DMA1_Channel2;
 800426c:	4c19      	ldr	r4, [pc, #100]	; (80042d4 <HAL_UART_MspInit+0x1ac>)
    hdma_usart3_tx.Init.Direction = DMA_MEMORY_TO_PERIPH;
 800426e:	4a1a      	ldr	r2, [pc, #104]	; (80042d8 <HAL_UART_MspInit+0x1b0>)
    if (HAL_DMA_Init(&hdma_usart3_tx) != HAL_OK)
 8004270:	4620      	mov	r0, r4
    hdma_usart3_tx.Init.Direction = DMA_MEMORY_TO_PERIPH;
 8004272:	e884 000c 	stmia.w	r4, {r2, r3}
    hdma_usart3_tx.Init.MemInc = DMA_MINC_ENABLE;
 8004276:	2380      	movs	r3, #128	; 0x80
    hdma_usart3_tx.Init.PeriphInc = DMA_PINC_DISABLE;
 8004278:	60a6      	str	r6, [r4, #8]
    hdma_usart3_tx.Init.MemInc = DMA_MINC_ENABLE;
 800427a:	60e3      	str	r3, [r4, #12]
    hdma_usart3_tx.Init.PeriphDataAlignment = DMA_PDATAALIGN_BYTE;
 800427c:	6126      	str	r6, [r4, #16]
    hdma_usart3_tx.Init.MemDataAlignment = DMA_MDATAALIGN_BYTE;
 800427e:	6166      	str	r6, [r4, #20]
    hdma_usart3_tx.Init.Mode = DMA_NORMAL;
 8004280:	61a6      	str	r6, [r4, #24]
    hdma_usart3_tx.Init.Priority = DMA_PRIORITY_LOW;
 8004282:	61e6      	str	r6, [r4, #28]
    if (HAL_DMA_Init(&hdma_usart3_tx) != HAL_OK)
 8004284:	f7fd f92e 	bl	80014e4 <HAL_DMA_Init>
 8004288:	b120      	cbz	r0, 8004294 <HAL_UART_MspInit+0x16c>
      _Error_Handler(__FILE__, __LINE__);
 800428a:	f44f 711a 	mov.w	r1, #616	; 0x268
 800428e:	480b      	ldr	r0, [pc, #44]	; (80042bc <HAL_UART_MspInit+0x194>)
 8004290:	f7ff fdcc 	bl	8003e2c <_Error_Handler>
    HAL_NVIC_SetPriority(USART3_IRQn, 0, 0);
 8004294:	2200      	movs	r2, #0
 8004296:	2027      	movs	r0, #39	; 0x27
    __HAL_LINKDMA(huart,hdmatx,hdma_usart3_tx);
 8004298:	632c      	str	r4, [r5, #48]	; 0x30
    HAL_NVIC_SetPriority(USART3_IRQn, 0, 0);
 800429a:	4611      	mov	r1, r2
    __HAL_LINKDMA(huart,hdmatx,hdma_usart3_tx);
 800429c:	6265      	str	r5, [r4, #36]	; 0x24
    HAL_NVIC_SetPriority(USART3_IRQn, 0, 0);
 800429e:	f7fd f8bb 	bl	8001418 <HAL_NVIC_SetPriority>
    HAL_NVIC_EnableIRQ(USART3_IRQn);
 80042a2:	2027      	movs	r0, #39	; 0x27
 80042a4:	e79a      	b.n	80041dc <HAL_UART_MspInit+0xb4>
 80042a6:	bf00      	nop
 80042a8:	40013800 	.word	0x40013800
 80042ac:	40021000 	.word	0x40021000
 80042b0:	40010800 	.word	0x40010800
 80042b4:	20000438 	.word	0x20000438
 80042b8:	40020044 	.word	0x40020044
 80042bc:	08004762 	.word	0x08004762
 80042c0:	40020058 	.word	0x40020058
 80042c4:	20000af8 	.word	0x20000af8
 80042c8:	40004400 	.word	0x40004400
 80042cc:	40004800 	.word	0x40004800
 80042d0:	40010c00 	.word	0x40010c00
 80042d4:	200003e4 	.word	0x200003e4
 80042d8:	4002001c 	.word	0x4002001c

080042dc <NMI_Handler>:
 80042dc:	4770      	bx	lr

080042de <HardFault_Handler>:

/**
* @brief This function handles Hard fault interrupt.
*/
void HardFault_Handler(void)
{
 80042de:	e7fe      	b.n	80042de <HardFault_Handler>

080042e0 <MemManage_Handler>:

/**
* @brief This function handles Memory management fault.
*/
void MemManage_Handler(void)
{
 80042e0:	e7fe      	b.n	80042e0 <MemManage_Handler>

080042e2 <BusFault_Handler>:

/**
* @brief This function handles Prefetch fault, memory access fault.
*/
void BusFault_Handler(void)
{
 80042e2:	e7fe      	b.n	80042e2 <BusFault_Handler>

080042e4 <UsageFault_Handler>:

/**
* @brief This function handles Undefined instruction or illegal state.
*/
void UsageFault_Handler(void)
{
 80042e4:	e7fe      	b.n	80042e4 <UsageFault_Handler>

080042e6 <SVC_Handler>:
 80042e6:	4770      	bx	lr

080042e8 <DebugMon_Handler>:
 80042e8:	4770      	bx	lr

080042ea <PendSV_Handler>:

/**
* @brief This function handles Pendable request for system service.
*/
void PendSV_Handler(void)
{
 80042ea:	4770      	bx	lr

080042ec <SysTick_Handler>:

/**
* @brief This function handles System tick timer.
*/
void SysTick_Handler(void)
{
 80042ec:	b508      	push	{r3, lr}
  /* USER CODE BEGIN SysTick_IRQn 0 */

  /* USER CODE END SysTick_IRQn 0 */
  HAL_IncTick();
 80042ee:	f7fc fe0d 	bl	8000f0c <HAL_IncTick>
  HAL_SYSTICK_IRQHandler();
  /* USER CODE BEGIN SysTick_IRQn 1 */

  /* USER CODE END SysTick_IRQn 1 */
}
 80042f2:	e8bd 4008 	ldmia.w	sp!, {r3, lr}
  HAL_SYSTICK_IRQHandler();
 80042f6:	f7fd b8f1 	b.w	80014dc <HAL_SYSTICK_IRQHandler>
	...

080042fc <DMA1_Channel2_IRQHandler>:
void DMA1_Channel2_IRQHandler(void)
{
  /* USER CODE BEGIN DMA1_Channel2_IRQn 0 */

  /* USER CODE END DMA1_Channel2_IRQn 0 */
  HAL_DMA_IRQHandler(&hdma_usart3_tx);
 80042fc:	4801      	ldr	r0, [pc, #4]	; (8004304 <DMA1_Channel2_IRQHandler+0x8>)
 80042fe:	f7fd b9ab 	b.w	8001658 <HAL_DMA_IRQHandler>
 8004302:	bf00      	nop
 8004304:	200003e4 	.word	0x200003e4

08004308 <DMA1_Channel4_IRQHandler>:
void DMA1_Channel4_IRQHandler(void)
{
  /* USER CODE BEGIN DMA1_Channel4_IRQn 0 */

  /* USER CODE END DMA1_Channel4_IRQn 0 */
  HAL_DMA_IRQHandler(&hdma_usart1_tx);
 8004308:	4801      	ldr	r0, [pc, #4]	; (8004310 <DMA1_Channel4_IRQHandler+0x8>)
 800430a:	f7fd b9a5 	b.w	8001658 <HAL_DMA_IRQHandler>
 800430e:	bf00      	nop
 8004310:	20000438 	.word	0x20000438

08004314 <DMA1_Channel5_IRQHandler>:
void DMA1_Channel5_IRQHandler(void)
{
  /* USER CODE BEGIN DMA1_Channel5_IRQn 0 */

  /* USER CODE END DMA1_Channel5_IRQn 0 */
  HAL_DMA_IRQHandler(&hdma_usart1_rx);
 8004314:	4801      	ldr	r0, [pc, #4]	; (800431c <DMA1_Channel5_IRQHandler+0x8>)
 8004316:	f7fd b99f 	b.w	8001658 <HAL_DMA_IRQHandler>
 800431a:	bf00      	nop
 800431c:	20000af8 	.word	0x20000af8

08004320 <TIM2_IRQHandler>:
void TIM2_IRQHandler(void)
{
  /* USER CODE BEGIN TIM2_IRQn 0 */

  /* USER CODE END TIM2_IRQn 0 */
  HAL_TIM_IRQHandler(&htim2);
 8004320:	4801      	ldr	r0, [pc, #4]	; (8004328 <TIM2_IRQHandler+0x8>)
 8004322:	f7fe b852 	b.w	80023ca <HAL_TIM_IRQHandler>
 8004326:	bf00      	nop
 8004328:	20000d60 	.word	0x20000d60

0800432c <SPI1_IRQHandler>:
void SPI1_IRQHandler(void)
{
  /* USER CODE BEGIN SPI1_IRQn 0 */

  /* USER CODE END SPI1_IRQn 0 */
  HAL_SPI_IRQHandler(&hspi1);
 800432c:	4801      	ldr	r0, [pc, #4]	; (8004334 <SPI1_IRQHandler+0x8>)
 800432e:	f7fd be9d 	b.w	800206c <HAL_SPI_IRQHandler>
 8004332:	bf00      	nop
 8004334:	20000d08 	.word	0x20000d08

08004338 <SPI2_IRQHandler>:
void SPI2_IRQHandler(void)
{
  /* USER CODE BEGIN SPI2_IRQn 0 */

  /* USER CODE END SPI2_IRQn 0 */
  HAL_SPI_IRQHandler(&hspi2);
 8004338:	4801      	ldr	r0, [pc, #4]	; (8004340 <SPI2_IRQHandler+0x8>)
 800433a:	f7fd be97 	b.w	800206c <HAL_SPI_IRQHandler>
 800433e:	bf00      	nop
 8004340:	20000150 	.word	0x20000150

08004344 <USART1_IRQHandler>:
void USART1_IRQHandler(void)
{
  /* USER CODE BEGIN USART1_IRQn 0 */

  /* USER CODE END USART1_IRQn 0 */
  HAL_UART_IRQHandler(&huart1);
 8004344:	4801      	ldr	r0, [pc, #4]	; (800434c <USART1_IRQHandler+0x8>)
 8004346:	f7fe bd41 	b.w	8002dcc <HAL_UART_IRQHandler>
 800434a:	bf00      	nop
 800434c:	20000b40 	.word	0x20000b40

08004350 <USART3_IRQHandler>:
void USART3_IRQHandler(void)
{
  /* USER CODE BEGIN USART3_IRQn 0 */

  /* USER CODE END USART3_IRQn 0 */
  HAL_UART_IRQHandler(&huart3);
 8004350:	4801      	ldr	r0, [pc, #4]	; (8004358 <USART3_IRQHandler+0x8>)
 8004352:	f7fe bd3b 	b.w	8002dcc <HAL_UART_IRQHandler>
 8004356:	bf00      	nop
 8004358:	2000020c 	.word	0x2000020c

0800435c <SystemInit>:
  */
void SystemInit (void)
{
  /* Reset the RCC clock configuration to the default reset state(for debug purpose) */
  /* Set HSION bit */
  RCC->CR |= 0x00000001U;
 800435c:	4b0f      	ldr	r3, [pc, #60]	; (800439c <SystemInit+0x40>)
 800435e:	681a      	ldr	r2, [r3, #0]
 8004360:	f042 0201 	orr.w	r2, r2, #1
 8004364:	601a      	str	r2, [r3, #0]

  /* Reset SW, HPRE, PPRE1, PPRE2, ADCPRE and MCO bits */
#if !defined(STM32F105xC) && !defined(STM32F107xC)
  RCC->CFGR &= 0xF8FF0000U;
 8004366:	6859      	ldr	r1, [r3, #4]
 8004368:	4a0d      	ldr	r2, [pc, #52]	; (80043a0 <SystemInit+0x44>)
 800436a:	400a      	ands	r2, r1
 800436c:	605a      	str	r2, [r3, #4]
#else
  RCC->CFGR &= 0xF0FF0000U;
#endif /* STM32F105xC */   
  
  /* Reset HSEON, CSSON and PLLON bits */
  RCC->CR &= 0xFEF6FFFFU;
 800436e:	681a      	ldr	r2, [r3, #0]
 8004370:	f022 7284 	bic.w	r2, r2, #17301504	; 0x1080000
 8004374:	f422 3280 	bic.w	r2, r2, #65536	; 0x10000
 8004378:	601a      	str	r2, [r3, #0]

  /* Reset HSEBYP bit */
  RCC->CR &= 0xFFFBFFFFU;
 800437a:	681a      	ldr	r2, [r3, #0]
 800437c:	f422 2280 	bic.w	r2, r2, #262144	; 0x40000
 8004380:	601a      	str	r2, [r3, #0]

  /* Reset PLLSRC, PLLXTPRE, PLLMUL and USBPRE/OTGFSPRE bits */
  RCC->CFGR &= 0xFF80FFFFU;
 8004382:	685a      	ldr	r2, [r3, #4]
 8004384:	f422 02fe 	bic.w	r2, r2, #8323072	; 0x7f0000
 8004388:	605a      	str	r2, [r3, #4]

  /* Reset CFGR2 register */
  RCC->CFGR2 = 0x00000000U;      
#else
  /* Disable all interrupts and clear pending bits  */
  RCC->CIR = 0x009F0000U;
 800438a:	f44f 021f 	mov.w	r2, #10420224	; 0x9f0000
 800438e:	609a      	str	r2, [r3, #8]
#endif 

#ifdef VECT_TAB_SRAM
  SCB->VTOR = SRAM_BASE | VECT_TAB_OFFSET; /* Vector Table Relocation in Internal SRAM. */
#else
  SCB->VTOR = FLASH_BASE | VECT_TAB_OFFSET; /* Vector Table Relocation in Internal FLASH. */
 8004390:	f04f 6200 	mov.w	r2, #134217728	; 0x8000000
 8004394:	4b03      	ldr	r3, [pc, #12]	; (80043a4 <SystemInit+0x48>)
 8004396:	609a      	str	r2, [r3, #8]
 8004398:	4770      	bx	lr
 800439a:	bf00      	nop
 800439c:	40021000 	.word	0x40021000
 80043a0:	f8ff0000 	.word	0xf8ff0000
 80043a4:	e000ed00 	.word	0xe000ed00

080043a8 <Reset_Handler>:
  .weak Reset_Handler
  .type Reset_Handler, %function
Reset_Handler:

/* Copy the data segment initializers from flash to SRAM */
  movs r1, #0
 80043a8:	2100      	movs	r1, #0
  b LoopCopyDataInit
 80043aa:	e003      	b.n	80043b4 <LoopCopyDataInit>

080043ac <CopyDataInit>:

CopyDataInit:
  ldr r3, =_sidata
 80043ac:	4b0b      	ldr	r3, [pc, #44]	; (80043dc <LoopFillZerobss+0x14>)
  ldr r3, [r3, r1]
 80043ae:	585b      	ldr	r3, [r3, r1]
  str r3, [r0, r1]
 80043b0:	5043      	str	r3, [r0, r1]
  adds r1, r1, #4
 80043b2:	3104      	adds	r1, #4

080043b4 <LoopCopyDataInit>:

LoopCopyDataInit:
  ldr r0, =_sdata
 80043b4:	480a      	ldr	r0, [pc, #40]	; (80043e0 <LoopFillZerobss+0x18>)
  ldr r3, =_edata
 80043b6:	4b0b      	ldr	r3, [pc, #44]	; (80043e4 <LoopFillZerobss+0x1c>)
  adds r2, r0, r1
 80043b8:	1842      	adds	r2, r0, r1
  cmp r2, r3
 80043ba:	429a      	cmp	r2, r3
  bcc CopyDataInit
 80043bc:	d3f6      	bcc.n	80043ac <CopyDataInit>
  ldr r2, =_sbss
 80043be:	4a0a      	ldr	r2, [pc, #40]	; (80043e8 <LoopFillZerobss+0x20>)
  b LoopFillZerobss
 80043c0:	e002      	b.n	80043c8 <LoopFillZerobss>

080043c2 <FillZerobss>:
/* Zero fill the bss segment. */
FillZerobss:
  movs r3, #0
 80043c2:	2300      	movs	r3, #0
  str r3, [r2], #4
 80043c4:	f842 3b04 	str.w	r3, [r2], #4

080043c8 <LoopFillZerobss>:

LoopFillZerobss:
  ldr r3, = _ebss
 80043c8:	4b08      	ldr	r3, [pc, #32]	; (80043ec <LoopFillZerobss+0x24>)
  cmp r2, r3
 80043ca:	429a      	cmp	r2, r3
  bcc FillZerobss
 80043cc:	d3f9      	bcc.n	80043c2 <FillZerobss>

/* Call the clock system intitialization function.*/
    bl  SystemInit
 80043ce:	f7ff ffc5 	bl	800435c <SystemInit>
/* Call static constructors */
    bl __libc_init_array
 80043d2:	f000 f80f 	bl	80043f4 <__libc_init_array>
/* Call the application's entry point.*/
  bl main
 80043d6:	f7ff fb65 	bl	8003aa4 <main>
  bx lr
 80043da:	4770      	bx	lr
  ldr r3, =_sidata
 80043dc:	080047a0 	.word	0x080047a0
  ldr r0, =_sdata
 80043e0:	20000000 	.word	0x20000000
  ldr r3, =_edata
 80043e4:	200000b4 	.word	0x200000b4
  ldr r2, =_sbss
 80043e8:	200000b4 	.word	0x200000b4
  ldr r3, = _ebss
 80043ec:	20000e74 	.word	0x20000e74

080043f0 <ADC1_2_IRQHandler>:
 * @retval : None
*/
    .section .text.Default_Handler,"ax",%progbits
Default_Handler:
Infinite_Loop:
  b Infinite_Loop
 80043f0:	e7fe      	b.n	80043f0 <ADC1_2_IRQHandler>
	...

080043f4 <__libc_init_array>:
 80043f4:	b570      	push	{r4, r5, r6, lr}
 80043f6:	2500      	movs	r5, #0
 80043f8:	4e0c      	ldr	r6, [pc, #48]	; (800442c <__libc_init_array+0x38>)
 80043fa:	4c0d      	ldr	r4, [pc, #52]	; (8004430 <__libc_init_array+0x3c>)
 80043fc:	1ba4      	subs	r4, r4, r6
 80043fe:	10a4      	asrs	r4, r4, #2
 8004400:	42a5      	cmp	r5, r4
 8004402:	d109      	bne.n	8004418 <__libc_init_array+0x24>
 8004404:	f000 f96a 	bl	80046dc <_init>
 8004408:	2500      	movs	r5, #0
 800440a:	4e0a      	ldr	r6, [pc, #40]	; (8004434 <__libc_init_array+0x40>)
 800440c:	4c0a      	ldr	r4, [pc, #40]	; (8004438 <__libc_init_array+0x44>)
 800440e:	1ba4      	subs	r4, r4, r6
 8004410:	10a4      	asrs	r4, r4, #2
 8004412:	42a5      	cmp	r5, r4
 8004414:	d105      	bne.n	8004422 <__libc_init_array+0x2e>
 8004416:	bd70      	pop	{r4, r5, r6, pc}
 8004418:	f856 3025 	ldr.w	r3, [r6, r5, lsl #2]
 800441c:	4798      	blx	r3
 800441e:	3501      	adds	r5, #1
 8004420:	e7ee      	b.n	8004400 <__libc_init_array+0xc>
 8004422:	f856 3025 	ldr.w	r3, [r6, r5, lsl #2]
 8004426:	4798      	blx	r3
 8004428:	3501      	adds	r5, #1
 800442a:	e7f2      	b.n	8004412 <__libc_init_array+0x1e>
 800442c:	08004798 	.word	0x08004798
 8004430:	08004798 	.word	0x08004798
 8004434:	08004798 	.word	0x08004798
 8004438:	0800479c 	.word	0x0800479c

0800443c <malloc>:
 800443c:	4b02      	ldr	r3, [pc, #8]	; (8004448 <malloc+0xc>)
 800443e:	4601      	mov	r1, r0
 8004440:	6818      	ldr	r0, [r3, #0]
 8004442:	f000 b857 	b.w	80044f4 <_malloc_r>
 8004446:	bf00      	nop
 8004448:	20000050 	.word	0x20000050

0800444c <free>:
 800444c:	4b02      	ldr	r3, [pc, #8]	; (8004458 <free+0xc>)
 800444e:	4601      	mov	r1, r0
 8004450:	6818      	ldr	r0, [r3, #0]
 8004452:	f000 b803 	b.w	800445c <_free_r>
 8004456:	bf00      	nop
 8004458:	20000050 	.word	0x20000050

0800445c <_free_r>:
 800445c:	b538      	push	{r3, r4, r5, lr}
 800445e:	4605      	mov	r5, r0
 8004460:	2900      	cmp	r1, #0
 8004462:	d043      	beq.n	80044ec <_free_r+0x90>
 8004464:	f851 3c04 	ldr.w	r3, [r1, #-4]
 8004468:	1f0c      	subs	r4, r1, #4
 800446a:	2b00      	cmp	r3, #0
 800446c:	bfb8      	it	lt
 800446e:	18e4      	addlt	r4, r4, r3
 8004470:	f000 f8de 	bl	8004630 <__malloc_lock>
 8004474:	4a1e      	ldr	r2, [pc, #120]	; (80044f0 <_free_r+0x94>)
 8004476:	6813      	ldr	r3, [r2, #0]
 8004478:	4610      	mov	r0, r2
 800447a:	b933      	cbnz	r3, 800448a <_free_r+0x2e>
 800447c:	6063      	str	r3, [r4, #4]
 800447e:	6014      	str	r4, [r2, #0]
 8004480:	4628      	mov	r0, r5
 8004482:	e8bd 4038 	ldmia.w	sp!, {r3, r4, r5, lr}
 8004486:	f000 b8d4 	b.w	8004632 <__malloc_unlock>
 800448a:	42a3      	cmp	r3, r4
 800448c:	d90b      	bls.n	80044a6 <_free_r+0x4a>
 800448e:	6821      	ldr	r1, [r4, #0]
 8004490:	1862      	adds	r2, r4, r1
 8004492:	4293      	cmp	r3, r2
 8004494:	bf01      	itttt	eq
 8004496:	681a      	ldreq	r2, [r3, #0]
 8004498:	685b      	ldreq	r3, [r3, #4]
 800449a:	1852      	addeq	r2, r2, r1
 800449c:	6022      	streq	r2, [r4, #0]
 800449e:	6063      	str	r3, [r4, #4]
 80044a0:	6004      	str	r4, [r0, #0]
 80044a2:	e7ed      	b.n	8004480 <_free_r+0x24>
 80044a4:	4613      	mov	r3, r2
 80044a6:	685a      	ldr	r2, [r3, #4]
 80044a8:	b10a      	cbz	r2, 80044ae <_free_r+0x52>
 80044aa:	42a2      	cmp	r2, r4
 80044ac:	d9fa      	bls.n	80044a4 <_free_r+0x48>
 80044ae:	6819      	ldr	r1, [r3, #0]
 80044b0:	1858      	adds	r0, r3, r1
 80044b2:	42a0      	cmp	r0, r4
 80044b4:	d10b      	bne.n	80044ce <_free_r+0x72>
 80044b6:	6820      	ldr	r0, [r4, #0]
 80044b8:	4401      	add	r1, r0
 80044ba:	1858      	adds	r0, r3, r1
 80044bc:	4282      	cmp	r2, r0
 80044be:	6019      	str	r1, [r3, #0]
 80044c0:	d1de      	bne.n	8004480 <_free_r+0x24>
 80044c2:	6810      	ldr	r0, [r2, #0]
 80044c4:	6852      	ldr	r2, [r2, #4]
 80044c6:	4401      	add	r1, r0
 80044c8:	6019      	str	r1, [r3, #0]
 80044ca:	605a      	str	r2, [r3, #4]
 80044cc:	e7d8      	b.n	8004480 <_free_r+0x24>
 80044ce:	d902      	bls.n	80044d6 <_free_r+0x7a>
 80044d0:	230c      	movs	r3, #12
 80044d2:	602b      	str	r3, [r5, #0]
 80044d4:	e7d4      	b.n	8004480 <_free_r+0x24>
 80044d6:	6820      	ldr	r0, [r4, #0]
 80044d8:	1821      	adds	r1, r4, r0
 80044da:	428a      	cmp	r2, r1
 80044dc:	bf01      	itttt	eq
 80044de:	6811      	ldreq	r1, [r2, #0]
 80044e0:	6852      	ldreq	r2, [r2, #4]
 80044e2:	1809      	addeq	r1, r1, r0
 80044e4:	6021      	streq	r1, [r4, #0]
 80044e6:	6062      	str	r2, [r4, #4]
 80044e8:	605c      	str	r4, [r3, #4]
 80044ea:	e7c9      	b.n	8004480 <_free_r+0x24>
 80044ec:	bd38      	pop	{r3, r4, r5, pc}
 80044ee:	bf00      	nop
 80044f0:	200000dc 	.word	0x200000dc

080044f4 <_malloc_r>:
 80044f4:	b570      	push	{r4, r5, r6, lr}
 80044f6:	1ccd      	adds	r5, r1, #3
 80044f8:	f025 0503 	bic.w	r5, r5, #3
 80044fc:	3508      	adds	r5, #8
 80044fe:	2d0c      	cmp	r5, #12
 8004500:	bf38      	it	cc
 8004502:	250c      	movcc	r5, #12
 8004504:	2d00      	cmp	r5, #0
 8004506:	4606      	mov	r6, r0
 8004508:	db01      	blt.n	800450e <_malloc_r+0x1a>
 800450a:	42a9      	cmp	r1, r5
 800450c:	d903      	bls.n	8004516 <_malloc_r+0x22>
 800450e:	230c      	movs	r3, #12
 8004510:	6033      	str	r3, [r6, #0]
 8004512:	2000      	movs	r0, #0
 8004514:	bd70      	pop	{r4, r5, r6, pc}
 8004516:	f000 f88b 	bl	8004630 <__malloc_lock>
 800451a:	4a23      	ldr	r2, [pc, #140]	; (80045a8 <_malloc_r+0xb4>)
 800451c:	6814      	ldr	r4, [r2, #0]
 800451e:	4621      	mov	r1, r4
 8004520:	b991      	cbnz	r1, 8004548 <_malloc_r+0x54>
 8004522:	4c22      	ldr	r4, [pc, #136]	; (80045ac <_malloc_r+0xb8>)
 8004524:	6823      	ldr	r3, [r4, #0]
 8004526:	b91b      	cbnz	r3, 8004530 <_malloc_r+0x3c>
 8004528:	4630      	mov	r0, r6
 800452a:	f000 f841 	bl	80045b0 <_sbrk_r>
 800452e:	6020      	str	r0, [r4, #0]
 8004530:	4629      	mov	r1, r5
 8004532:	4630      	mov	r0, r6
 8004534:	f000 f83c 	bl	80045b0 <_sbrk_r>
 8004538:	1c43      	adds	r3, r0, #1
 800453a:	d126      	bne.n	800458a <_malloc_r+0x96>
 800453c:	230c      	movs	r3, #12
 800453e:	4630      	mov	r0, r6
 8004540:	6033      	str	r3, [r6, #0]
 8004542:	f000 f876 	bl	8004632 <__malloc_unlock>
 8004546:	e7e4      	b.n	8004512 <_malloc_r+0x1e>
 8004548:	680b      	ldr	r3, [r1, #0]
 800454a:	1b5b      	subs	r3, r3, r5
 800454c:	d41a      	bmi.n	8004584 <_malloc_r+0x90>
 800454e:	2b0b      	cmp	r3, #11
 8004550:	d90f      	bls.n	8004572 <_malloc_r+0x7e>
 8004552:	600b      	str	r3, [r1, #0]
 8004554:	18cc      	adds	r4, r1, r3
 8004556:	50cd      	str	r5, [r1, r3]
 8004558:	4630      	mov	r0, r6
 800455a:	f000 f86a 	bl	8004632 <__malloc_unlock>
 800455e:	f104 000b 	add.w	r0, r4, #11
 8004562:	1d23      	adds	r3, r4, #4
 8004564:	f020 0007 	bic.w	r0, r0, #7
 8004568:	1ac3      	subs	r3, r0, r3
 800456a:	d01b      	beq.n	80045a4 <_malloc_r+0xb0>
 800456c:	425a      	negs	r2, r3
 800456e:	50e2      	str	r2, [r4, r3]
 8004570:	bd70      	pop	{r4, r5, r6, pc}
 8004572:	428c      	cmp	r4, r1
 8004574:	bf0b      	itete	eq
 8004576:	6863      	ldreq	r3, [r4, #4]
 8004578:	684b      	ldrne	r3, [r1, #4]
 800457a:	6013      	streq	r3, [r2, #0]
 800457c:	6063      	strne	r3, [r4, #4]
 800457e:	bf18      	it	ne
 8004580:	460c      	movne	r4, r1
 8004582:	e7e9      	b.n	8004558 <_malloc_r+0x64>
 8004584:	460c      	mov	r4, r1
 8004586:	6849      	ldr	r1, [r1, #4]
 8004588:	e7ca      	b.n	8004520 <_malloc_r+0x2c>
 800458a:	1cc4      	adds	r4, r0, #3
 800458c:	f024 0403 	bic.w	r4, r4, #3
 8004590:	42a0      	cmp	r0, r4
 8004592:	d005      	beq.n	80045a0 <_malloc_r+0xac>
 8004594:	1a21      	subs	r1, r4, r0
 8004596:	4630      	mov	r0, r6
 8004598:	f000 f80a 	bl	80045b0 <_sbrk_r>
 800459c:	3001      	adds	r0, #1
 800459e:	d0cd      	beq.n	800453c <_malloc_r+0x48>
 80045a0:	6025      	str	r5, [r4, #0]
 80045a2:	e7d9      	b.n	8004558 <_malloc_r+0x64>
 80045a4:	bd70      	pop	{r4, r5, r6, pc}
 80045a6:	bf00      	nop
 80045a8:	200000dc 	.word	0x200000dc
 80045ac:	200000e0 	.word	0x200000e0

080045b0 <_sbrk_r>:
 80045b0:	b538      	push	{r3, r4, r5, lr}
 80045b2:	2300      	movs	r3, #0
 80045b4:	4c05      	ldr	r4, [pc, #20]	; (80045cc <_sbrk_r+0x1c>)
 80045b6:	4605      	mov	r5, r0
 80045b8:	4608      	mov	r0, r1
 80045ba:	6023      	str	r3, [r4, #0]
 80045bc:	f000 f880 	bl	80046c0 <_sbrk>
 80045c0:	1c43      	adds	r3, r0, #1
 80045c2:	d102      	bne.n	80045ca <_sbrk_r+0x1a>
 80045c4:	6823      	ldr	r3, [r4, #0]
 80045c6:	b103      	cbz	r3, 80045ca <_sbrk_r+0x1a>
 80045c8:	602b      	str	r3, [r5, #0]
 80045ca:	bd38      	pop	{r3, r4, r5, pc}
 80045cc:	20000e70 	.word	0x20000e70

080045d0 <strncpy>:
 80045d0:	b570      	push	{r4, r5, r6, lr}
 80045d2:	4604      	mov	r4, r0
 80045d4:	b902      	cbnz	r2, 80045d8 <strncpy+0x8>
 80045d6:	bd70      	pop	{r4, r5, r6, pc}
 80045d8:	4623      	mov	r3, r4
 80045da:	f811 5b01 	ldrb.w	r5, [r1], #1
 80045de:	1e56      	subs	r6, r2, #1
 80045e0:	f803 5b01 	strb.w	r5, [r3], #1
 80045e4:	b91d      	cbnz	r5, 80045ee <strncpy+0x1e>
 80045e6:	4414      	add	r4, r2
 80045e8:	42a3      	cmp	r3, r4
 80045ea:	d103      	bne.n	80045f4 <strncpy+0x24>
 80045ec:	bd70      	pop	{r4, r5, r6, pc}
 80045ee:	461c      	mov	r4, r3
 80045f0:	4632      	mov	r2, r6
 80045f2:	e7ef      	b.n	80045d4 <strncpy+0x4>
 80045f4:	f803 5b01 	strb.w	r5, [r3], #1
 80045f8:	e7f6      	b.n	80045e8 <strncpy+0x18>

080045fa <strstr>:
 80045fa:	b5f0      	push	{r4, r5, r6, r7, lr}
 80045fc:	7803      	ldrb	r3, [r0, #0]
 80045fe:	b133      	cbz	r3, 800460e <strstr+0x14>
 8004600:	4603      	mov	r3, r0
 8004602:	4618      	mov	r0, r3
 8004604:	1c5e      	adds	r6, r3, #1
 8004606:	781b      	ldrb	r3, [r3, #0]
 8004608:	b933      	cbnz	r3, 8004618 <strstr+0x1e>
 800460a:	4618      	mov	r0, r3
 800460c:	bdf0      	pop	{r4, r5, r6, r7, pc}
 800460e:	780b      	ldrb	r3, [r1, #0]
 8004610:	2b00      	cmp	r3, #0
 8004612:	bf18      	it	ne
 8004614:	2000      	movne	r0, #0
 8004616:	bdf0      	pop	{r4, r5, r6, r7, pc}
 8004618:	1e4d      	subs	r5, r1, #1
 800461a:	1e44      	subs	r4, r0, #1
 800461c:	f815 2f01 	ldrb.w	r2, [r5, #1]!
 8004620:	2a00      	cmp	r2, #0
 8004622:	d0f3      	beq.n	800460c <strstr+0x12>
 8004624:	f814 7f01 	ldrb.w	r7, [r4, #1]!
 8004628:	4633      	mov	r3, r6
 800462a:	4297      	cmp	r7, r2
 800462c:	d0f6      	beq.n	800461c <strstr+0x22>
 800462e:	e7e8      	b.n	8004602 <strstr+0x8>

08004630 <__malloc_lock>:
 8004630:	4770      	bx	lr

08004632 <__malloc_unlock>:
 8004632:	4770      	bx	lr

08004634 <round>:
 8004634:	b5f8      	push	{r3, r4, r5, r6, r7, lr}
 8004636:	f3c1 570a 	ubfx	r7, r1, #20, #11
 800463a:	f2a7 34ff 	subw	r4, r7, #1023	; 0x3ff
 800463e:	2c13      	cmp	r4, #19
 8004640:	4606      	mov	r6, r0
 8004642:	460d      	mov	r5, r1
 8004644:	460b      	mov	r3, r1
 8004646:	468e      	mov	lr, r1
 8004648:	dc17      	bgt.n	800467a <round+0x46>
 800464a:	2c00      	cmp	r4, #0
 800464c:	da09      	bge.n	8004662 <round+0x2e>
 800464e:	3401      	adds	r4, #1
 8004650:	f001 4300 	and.w	r3, r1, #2147483648	; 0x80000000
 8004654:	d103      	bne.n	800465e <round+0x2a>
 8004656:	f043 537f 	orr.w	r3, r3, #1069547520	; 0x3fc00000
 800465a:	f443 1340 	orr.w	r3, r3, #3145728	; 0x300000
 800465e:	2200      	movs	r2, #0
 8004660:	e029      	b.n	80046b6 <round+0x82>
 8004662:	4916      	ldr	r1, [pc, #88]	; (80046bc <round+0x88>)
 8004664:	4121      	asrs	r1, r4
 8004666:	420d      	tst	r5, r1
 8004668:	d100      	bne.n	800466c <round+0x38>
 800466a:	b188      	cbz	r0, 8004690 <round+0x5c>
 800466c:	f44f 2300 	mov.w	r3, #524288	; 0x80000
 8004670:	4123      	asrs	r3, r4
 8004672:	4473      	add	r3, lr
 8004674:	ea23 0301 	bic.w	r3, r3, r1
 8004678:	e7f1      	b.n	800465e <round+0x2a>
 800467a:	2c33      	cmp	r4, #51	; 0x33
 800467c:	dd0b      	ble.n	8004696 <round+0x62>
 800467e:	f5b4 6f80 	cmp.w	r4, #1024	; 0x400
 8004682:	d105      	bne.n	8004690 <round+0x5c>
 8004684:	4602      	mov	r2, r0
 8004686:	460b      	mov	r3, r1
 8004688:	f7fb fd70 	bl	800016c <__adddf3>
 800468c:	4606      	mov	r6, r0
 800468e:	460d      	mov	r5, r1
 8004690:	4630      	mov	r0, r6
 8004692:	4629      	mov	r1, r5
 8004694:	bdf8      	pop	{r3, r4, r5, r6, r7, pc}
 8004696:	f04f 30ff 	mov.w	r0, #4294967295
 800469a:	f2a7 4713 	subw	r7, r7, #1043	; 0x413
 800469e:	40f8      	lsrs	r0, r7
 80046a0:	4206      	tst	r6, r0
 80046a2:	d0f5      	beq.n	8004690 <round+0x5c>
 80046a4:	2101      	movs	r1, #1
 80046a6:	f1c4 0433 	rsb	r4, r4, #51	; 0x33
 80046aa:	40a1      	lsls	r1, r4
 80046ac:	198a      	adds	r2, r1, r6
 80046ae:	bf28      	it	cs
 80046b0:	3301      	addcs	r3, #1
 80046b2:	ea22 0200 	bic.w	r2, r2, r0
 80046b6:	4619      	mov	r1, r3
 80046b8:	4610      	mov	r0, r2
 80046ba:	e7e7      	b.n	800468c <round+0x58>
 80046bc:	000fffff 	.word	0x000fffff

080046c0 <_sbrk>:
 80046c0:	4b04      	ldr	r3, [pc, #16]	; (80046d4 <_sbrk+0x14>)
 80046c2:	4602      	mov	r2, r0
 80046c4:	6819      	ldr	r1, [r3, #0]
 80046c6:	b909      	cbnz	r1, 80046cc <_sbrk+0xc>
 80046c8:	4903      	ldr	r1, [pc, #12]	; (80046d8 <_sbrk+0x18>)
 80046ca:	6019      	str	r1, [r3, #0]
 80046cc:	6818      	ldr	r0, [r3, #0]
 80046ce:	4402      	add	r2, r0
 80046d0:	601a      	str	r2, [r3, #0]
 80046d2:	4770      	bx	lr
 80046d4:	200000e4 	.word	0x200000e4
 80046d8:	20000e74 	.word	0x20000e74

080046dc <_init>:
 80046dc:	b5f8      	push	{r3, r4, r5, r6, r7, lr}
 80046de:	bf00      	nop
 80046e0:	bcf8      	pop	{r3, r4, r5, r6, r7}
 80046e2:	bc08      	pop	{r3}
 80046e4:	469e      	mov	lr, r3
 80046e6:	4770      	bx	lr

080046e8 <_fini>:
 80046e8:	b5f8      	push	{r3, r4, r5, r6, r7, lr}
 80046ea:	bf00      	nop
 80046ec:	bcf8      	pop	{r3, r4, r5, r6, r7}
 80046ee:	bc08      	pop	{r3}
 80046f0:	469e      	mov	lr, r3
 80046f2:	4770      	bx	lr
